 PhysXCommon_64

 Timestamp is 65ffa67f (Sun Mar 24 12:05:19 2024)

 Preferred load address is 0000000180000000

 Start         Length     Name                   Class
 0001:00000000 00003530H .text$di                CODE
 0001:00003530 001d1aa0H .text$mn                CODE
 0001:001d4fd0 00000040H .text$mn$00             CODE
 0001:001d5010 000004d0H .text$x                 CODE
 0001:001d54e0 0000000fH .text$yd                CODE
 0002:00000000 00000268H .idata$5                DATA
 0002:00000268 00000038H .00cfg                  DATA
 0002:000002a0 00000008H .CRT$XCA                DATA
 0002:000002a8 000019d0H .CRT$XCU                DATA
 0002:00001c78 00000008H .CRT$XCZ                DATA
 0002:00001c80 00000008H .CRT$XIA                DATA
 0002:00001c88 00000018H .CRT$XIC                DATA
 0002:00001ca0 00000008H .CRT$XIZ                DATA
 0002:00001ca8 00000008H .CRT$XPA                DATA
 0002:00001cb0 00000010H .CRT$XPX                DATA
 0002:00001cc0 00000008H .CRT$XPXA               DATA
 0002:00001cc8 00000008H .CRT$XPZ                DATA
 0002:00001cd0 00000008H .CRT$XTA                DATA
 0002:00001cd8 00000008H .CRT$XTZ                DATA
 0002:00001ce0 00000000H .gehcont$y              DATA
 0002:00001ce0 00000000H .gfids$y                DATA
 0002:00001ce0 00011720H .rdata                  DATA
 0002:00013400 00000000H .rdata$CastGuardVftablesA DATA
 0002:00013400 00000000H .rdata$CastGuardVftablesC DATA
 0002:00013400 0000043cH .rdata$r                DATA
 0002:0001383c 00000214H .rdata$voltmd           DATA
 0002:00013a50 00000420H .rdata$zzzdbg           DATA
 0002:00013e70 00000008H .rtc$IAA                DATA
 0002:00013e78 00000008H .rtc$IZZ                DATA
 0002:00013e80 00000008H .rtc$TAA                DATA
 0002:00013e88 00000008H .rtc$TZZ                DATA
 0002:00013e90 00014c80H .xdata                  DATA
 0002:00028b10 00000084H .xdata$x                DATA
 0002:00028b94 00000020H .didat$2                DATA
 0002:00028bb4 00000024H .didat$3                DATA
 0002:00028bd8 000000c8H .didat$4                DATA
 0002:00028ca0 00000418H .didat$6                DATA
 0002:000290b8 000000c8H .didat$7                DATA
 0002:00029180 0000c614H .edata                  DATA
 0002:00035794 00000014H .idata$2                DATA
 0002:000357a8 00000018H .idata$3                DATA
 0002:000357c0 00000268H .idata$4                DATA
 0002:00035a28 00000598H .idata$6                DATA
 0003:00000000 00001c40H .data                   DATA
 0003:00001c40 000011d8H .data$r                 DATA
 0003:00002e18 000000f0H .data$rs                DATA
 0003:00002f08 000000c8H .didat$5                DATA
 0003:00002fd0 0000463cH .bss                    DATA
 0004:00000000 0000c3a8H .pdata                  DATA
 0005:00000000 0000236cH _RDATA                  DATA
 0006:00000000 000000a0H .rsrc$01                DATA
 0006:000000a0 000004b0H .rsrc$02                DATA

  Address         Publics by Value              Rva+Base               Lib:Object

 0000:00000000       __AbsoluteZero             0000000000000000     <absolute>
 0000:00000000       ___safe_se_handler_count   0000000000000000     <absolute>
 0000:00000000       ___safe_se_handler_table   0000000000000000     <absolute>
 0000:00000000       __arm64x_extra_rfe_table   0000000000000000     <absolute>
 0000:00000000       __arm64x_extra_rfe_table_size 0000000000000000     <absolute>
 0000:00000000       __arm64x_native_entrypoint 0000000000000000     <absolute>
 0000:00000000       __arm64x_redirection_metadata 0000000000000000     <absolute>
 0000:00000000       __arm64x_redirection_metadata_count 0000000000000000     <absolute>
 0000:00000000       __dynamic_value_reloc_table 0000000000000000     <absolute>
 0000:00000000       __enclave_config           0000000000000000     <absolute>
 0000:00000000       __guard_check_icall_a64n_fptr 0000000000000000     <absolute>
 0000:00000000       __guard_eh_cont_count      0000000000000000     <absolute>
 0000:00000000       __guard_eh_cont_table      0000000000000000     <absolute>
 0000:00000000       __guard_fids_count         0000000000000000     <absolute>
 0000:00000000       __guard_fids_table         0000000000000000     <absolute>
 0000:00000000       __guard_iat_count          0000000000000000     <absolute>
 0000:00000000       __guard_iat_table          0000000000000000     <absolute>
 0000:00000000       __guard_longjmp_count      0000000000000000     <absolute>
 0000:00000000       __guard_longjmp_table      0000000000000000     <absolute>
 0000:00000000       __hybrid_auxiliary_iat     0000000000000000     <absolute>
 0000:00000000       __hybrid_auxiliary_iat_copy 0000000000000000     <absolute>
 0000:00000000       __hybrid_code_map          0000000000000000     <absolute>
 0000:00000000       __hybrid_code_map_count    0000000000000000     <absolute>
 0000:00000000       __x64_code_ranges_to_entry_points 0000000000000000     <absolute>
 0000:00000000       __x64_code_ranges_to_entry_points_count 0000000000000000     <absolute>
 0000:00000100       __guard_flags              0000000000000100     <absolute>
 0000:00000000       __ImageBase                0000000180000000     <linker-defined>
 0001:00003530       ??0PtrTable@Cm@physx@@QEAA@W4PxEMPTY@2@@Z 0000000180004530 f i CmPtrTable.obj
 0001:00003550       ??0PtrTable@Cm@physx@@QEAA@XZ 0000000180004550 f   CmPtrTable.obj
 0001:00003560       ??1AABBTreeBuildNode@Gu@physx@@QEAA@XZ 0000000180004560 f   GuMeshFactory.obj
 0001:00003560       ??1BigConvexDataBuilder@physx@@QEAA@XZ 0000000180004560 f   GuCookingBigConvexDataBuilder.obj
 0001:00003560       ??1Box@Gu@physx@@QEAA@XZ   0000000180004560 f   GuBox.obj
 0001:00003560       ??1HeightFieldData@Gu@physx@@QEAA@XZ 0000000180004560 f   GuCCTSweepTests.obj
 0001:00003560       ??1PtrTable@Cm@physx@@QEAA@XZ 0000000180004560 f   CmPtrTable.obj
 0001:00003560       ?build@CompanionPrunerIncremental@@UEAAXXZ 0000000180004560 f   GuSecondaryPruner.obj
 0001:00003560       ?checkTreeLeaf@IncrementalAABBTree@Gu@physx@@QEAAXPEAVIncrementalAABBTreeNode@23@I@Z 0000000180004560 f   GuIncrementalAABBTree.obj
 0001:00003560       ?execute@?$PxThreadT@V?$PxReflectionAllocator@VPxThreadImpl@physx@@@physx@@@physx@@UEAAXXZ 0000000180004560 f   GuSDF.obj
 0001:00003560       ?execute@PxRunnable@physx@@UEAAXXZ 0000000180004560 f   GuSDF.obj
 0001:00003560       ?merge@BucketPruner@Gu@physx@@UEAAXPEBX@Z 0000000180004560 f   GuBucketPruner.obj
 0001:00003560       ?merge@IncrementalAABBPruner@Gu@physx@@UEAAXPEBX@Z 0000000180004560 f   GuIncrementalAABBPruner.obj
 0001:00003560       ?onMeshIndexFormatChange@TriangleMeshBuilder@physx@@UEAAXXZ 0000000180004560 f   GuCookingTriangleMesh.obj
 0001:00003560       ?profile@Callback@RTree@Gu@physx@@UEAAXXZ 0000000180004560 f   GuMidphaseRTree.obj
 0001:00003560       ?purge@BucketPruner@Gu@physx@@UEAAXXZ 0000000180004560 f   GuBucketPruner.obj
 0001:00003560       ?requiresObjects@ConvexMesh@Gu@physx@@UEAAXAEAVPxProcessPxBaseCallback@3@@Z 0000000180004560 f   GuConvexMesh.obj
 0001:00003560       ?requiresObjects@HeightField@Gu@physx@@UEAAXAEAVPxProcessPxBaseCallback@3@@Z 0000000180004560 f   GuHeightField.obj
 0001:00003560       ?requiresObjects@SoftBodyMesh@Gu@physx@@UEAAXAEAVPxProcessPxBaseCallback@3@@Z 0000000180004560 f   GuTetrahedronMesh.obj
 0001:00003560       ?requiresObjects@TriangleMesh@Gu@physx@@UEAAXAEAVPxProcessPxBaseCallback@3@@Z 0000000180004560 f   GuTriangleMesh.obj
 0001:00003560       ?swapIndex@CompanionPrunerAABBTree@@UEAAXII@Z 0000000180004560 f   GuSecondaryPruner.obj
 0001:00003560       ?swapIndex@CompanionPrunerBucket@@UEAAXII@Z 0000000180004560 f   GuSecondaryPruner.obj
 0001:00003560       ?timeStampChange@CompanionPrunerAABBTree@@UEAAXXZ 0000000180004560 f   GuSecondaryPruner.obj
 0001:00003560       ?timeStampChange@CompanionPrunerBucket@@UEAAXXZ 0000000180004560 f   GuSecondaryPruner.obj
 0001:00003560       ?visualize@BasePruner@Gu@physx@@UEBAXAEAVPxRenderOutput@3@II@Z 0000000180004560 f   GuIncrementalAABBPruner.obj
 0001:00003560       _guard_check_icall_nop     0000000180004560 f   LIBCMT:guard_support.obj
 0001:00003570       ??4AABBTreeBounds@Gu@physx@@QEAAAEAV012@AEBV012@@Z 0000000180004570 f i GuMeshFactory.obj
 0001:00003570       ??4CmModuleUpdateLoader@Cm@physx@@QEAAAEAV012@AEBV012@@Z 0000000180004570 f i CmWindowsModuleUpdateLoader.obj
 0001:00003570       ??4PtrTable@Cm@physx@@QEAAAEAU012@AEBU012@@Z 0000000180004570 f i CmPtrTable.obj
 0001:00003580       ?add@PtrTable@Cm@physx@@QEAAXPEAXAEAVPtrTableStorageManager@23@@Z 0000000180004580 f   CmPtrTable.obj
 0001:00003690       ?clear@PtrTable@Cm@physx@@QEAAXAEAVPtrTableStorageManager@23@@Z 0000000180004690 f   CmPtrTable.obj
 0001:00003700       ?exportExtraData@PtrTable@Cm@physx@@QEAAXAEAVPxSerializationContext@3@@Z 0000000180004700 f   CmPtrTable.obj
 0001:00003750       ?find@PtrTable@Cm@physx@@QEBAIPEBX@Z 0000000180004750 f   CmPtrTable.obj
 0001:00003780       ?getBinaryMetaData@PtrTable@Cm@physx@@SAXAEAVPxOutputStream@3@@Z 0000000180004780 f   CmPtrTable.obj
 0001:00003970       ?getCount@PtrTable@Cm@physx@@QEBAIXZ 0000000180004970 f i CmPtrTable.obj
 0001:00003980       ?getPtrs@PtrTable@Cm@physx@@QEAAPEAPEAXXZ 0000000180004980 f i CmPtrTable.obj
 0001:00003980       ?getPtrs@PtrTable@Cm@physx@@QEBAPEBQEAXXZ 0000000180004980 f i CmPtrTable.obj
 0001:00003990       ?importExtraData@PtrTable@Cm@physx@@QEAAXAEAVPxDeserializationContext@3@@Z 0000000180004990 f   CmPtrTable.obj
 0001:000039c0       ?realloc@PtrTable@Cm@physx@@AEAAXIIAEAVPtrTableStorageManager@23@@Z 00000001800049c0 f   CmPtrTable.obj
 0001:00003a50       ?replaceWithLast@PtrTable@Cm@physx@@QEAAXIAEAVPtrTableStorageManager@23@@Z 0000000180004a50 f   CmPtrTable.obj
 0001:00003b50       ??_ECollection@Cm@physx@@UEAAPEAXI@Z 0000000180004b50 f i CmCollection.obj
 0001:00003b50       ??_GCollection@Cm@physx@@UEAAPEAXI@Z 0000000180004b50 f i CmCollection.obj
 0001:00003c00       ??_EPxCollection@physx@@MEAAPEAXI@Z 0000000180004c00 f i CmCollection.obj
 0001:00003c00       ??_GPxCollection@physx@@MEAAPEAXI@Z 0000000180004c00 f i CmCollection.obj
 0001:00003c30       ?add@Collection@Cm@physx@@UEAAXAEAVPxBase@3@_K@Z 0000000180004c30 f   CmCollection.obj
 0001:00003d20       ?add@Collection@Cm@physx@@UEAAXAEAVPxCollection@3@@Z 0000000180004d20 f   CmCollection.obj
 0001:00003ec0       ?addId@Collection@Cm@physx@@UEAAXAEAVPxBase@3@_K@Z 0000000180004ec0 f   CmCollection.obj
 0001:00003ff0       ?contains@Collection@Cm@physx@@UEBA_NAEAVPxBase@3@@Z 0000000180004ff0 f   CmCollection.obj
 0001:000040a0       ?create@?$PxHashBase@V?$PxPair@$$CB_KPEAVPxBase@physx@@@physx@@_KU?$PxHash@_K@2@UGetKey@?$PxHashMapBase@_KPEAVPxBase@physx@@U?$PxHash@_K@2@VPxAllocator@2@@2@VPxAllocator@2@$00@physx@@QEAAPEAV?$PxPair@$$CB_KPEAVPxBase@physx@@@2@AEB_KAEA_N@Z 00000001800050a0 f i CmCollection.obj
 0001:000040a0       ?create@?$PxHashBase@V?$PxPair@QEAVPxBase@physx@@_K@physx@@PEAVPxBase@2@U?$PxHash@PEAVPxBase@physx@@@2@UGetKey@?$PxHashMapBase@PEAVPxBase@physx@@_KU?$PxHash@PEAVPxBase@physx@@@2@VPxAllocator@2@@2@VPxAllocator@2@$00@physx@@QEAAPEAV?$PxPair@QEAVPxBase@physx@@_K@2@AEBQEAVPxBase@2@AEA_N@Z 00000001800050a0 f i CmCollection.obj
 0001:00004230       ?erase@?$PxHashBase@V?$PxPair@$$CB_KPEAVPxBase@physx@@@physx@@_KU?$PxHash@_K@2@UGetKey@?$PxHashMapBase@_KPEAVPxBase@physx@@U?$PxHash@_K@2@VPxAllocator@2@@2@VPxAllocator@2@$00@physx@@QEAA_NAEB_K@Z 0000000180005230 f i CmCollection.obj
 0001:00004230       ?erase@?$PxHashBase@V?$PxPair@QEAVPxBase@physx@@_K@physx@@PEAVPxBase@2@U?$PxHash@PEAVPxBase@physx@@@2@UGetKey@?$PxHashMapBase@PEAVPxBase@physx@@_KU?$PxHash@PEAVPxBase@physx@@@2@VPxAllocator@2@@2@VPxAllocator@2@$00@physx@@QEAA_NAEBQEAVPxBase@2@@Z 0000000180005230 f i CmCollection.obj
 0001:000043e0       ?find@?$PxHashMapBase@_KPEAVPxBase@physx@@U?$PxHash@_K@2@VPxAllocator@2@@physx@@QEBAPEBV?$PxPair@$$CB_KPEAVPxBase@physx@@@2@AEB_K@Z 00000001800053e0 f i CmCollection.obj
 0001:00004480       ?find@Collection@Cm@physx@@UEBAPEAVPxBase@3@_K@Z 0000000180005480 f   CmCollection.obj
 0001:000044b0       ?getId@Collection@Cm@physx@@UEBA_KAEBVPxBase@3@@Z 00000001800054b0 f   CmCollection.obj
 0001:00004560       ?getIds@Collection@Cm@physx@@UEBAIPEA_KII@Z 0000000180005560 f   CmCollection.obj
 0001:00004630       ?getNbIds@Collection@Cm@physx@@UEBAIXZ 0000000180005630 f   CmCollection.obj
 0001:00004640       ?getNbObjects@Collection@Cm@physx@@UEBAIXZ 0000000180005640 f   CmCollection.obj
 0001:00004650       ?getObject@Collection@Cm@physx@@UEBAAEAVPxBase@3@I@Z 0000000180005650 f   CmCollection.obj
 0001:00004660       ?getObjects@Collection@Cm@physx@@UEBAIPEAPEAVPxBase@3@II@Z 0000000180005660 f   CmCollection.obj
 0001:000046a0       ?release@Collection@Cm@physx@@UEAAXXZ 00000001800056a0 f i CmCollection.obj
 0001:000046c0       ?remove@Collection@Cm@physx@@UEAAXAEAVPxBase@3@@Z 00000001800056c0 f   CmCollection.obj
 0001:000047b0       ?remove@Collection@Cm@physx@@UEAAXAEAVPxCollection@3@@Z 00000001800057b0 f   CmCollection.obj
 0001:000048c0       ?removeId@Collection@Cm@physx@@UEAAX_K@Z 00000001800058c0 f   CmCollection.obj
 0001:00004940       ?reserveInternal@?$PxHashBase@V?$PxPair@$$CB_KPEAVPxBase@physx@@@physx@@_KU?$PxHash@_K@2@UGetKey@?$PxHashMapBase@_KPEAVPxBase@physx@@U?$PxHash@_K@2@VPxAllocator@2@@2@VPxAllocator@2@$00@physx@@AEAAXI@Z 0000000180005940 f i CmCollection.obj
 0001:00004940       ?reserveInternal@?$PxHashBase@V?$PxPair@QEAVPxBase@physx@@_K@physx@@PEAVPxBase@2@U?$PxHash@PEAVPxBase@physx@@@2@UGetKey@?$PxHashMapBase@PEAVPxBase@physx@@_KU?$PxHash@PEAVPxBase@physx@@@2@VPxAllocator@2@@2@VPxAllocator@2@$00@physx@@AEAAXI@Z 0000000180005940 f i CmCollection.obj
 0001:00004b20       PxCreateCollection         0000000180005b20 f   CmCollection.obj
 0001:00004c10       ??0RadixSort@Cm@physx@@QEAA@XZ 0000000180005c10 f   CmRadixSort.obj
 0001:00004c40       ??0RadixSortBuffered@Cm@physx@@QEAA@XZ 0000000180005c40 f   CmRadixSort.obj
 0001:00004c70       ??1RadixSort@Cm@physx@@UEAA@XZ 0000000180005c70 f   CmRadixSort.obj
 0001:00004c80       ??1RadixSortBuffered@Cm@physx@@UEAA@XZ 0000000180005c80 f   CmRadixSort.obj
 0001:00004cb0       ??_ERadixSort@Cm@physx@@UEAAPEAXI@Z 0000000180005cb0 f i CmRadixSort.obj
 0001:00004d40       ??_ERadixSortBuffered@Cm@physx@@UEAAPEAXI@Z 0000000180005d40 f i CmRadixSort.obj
 0001:00004e30       ?CheckResize@RadixSortBuffered@Cm@physx@@AEAAXI@Z 0000000180005e30 f i CmRadixSort.obj
 0001:00004e70       ?GetNbHits@RadixSort@Cm@physx@@QEBAIXZ 0000000180005e70 f i CmRadixSort.obj
 0001:00004e80       ?GetNbTotalCalls@RadixSort@Cm@physx@@QEBAIXZ 0000000180005e80 f i CmRadixSort.obj
 0001:00004e90       ?GetRanks@RadixSort@Cm@physx@@QEBAPEBIXZ 0000000180005e90 f i CmRadixSort.obj
 0001:00004e90       ?getGridModelInvMass@SoftBodyAuxData@Gu@physx@@UEAAPEAMXZ 0000000180005e90 f i GuTetrahedronMesh.obj
 0001:00004e90       ?getHeightField@HeightFieldUtil@Gu@physx@@QEBAAEBVHeightField@23@XZ 0000000180005e90 f i GuCCTSweepTests.obj
 0001:00004e90       ?getSimulationMesh@SoftBodyMesh@Gu@physx@@UEAAPEAVPxTetrahedronMesh@3@XZ 0000000180005e90 f i GuTetrahedronMesh.obj
 0001:00004e90       ?getSimulationMesh@SoftBodyMesh@Gu@physx@@UEBAPEBVPxTetrahedronMesh@3@XZ 0000000180005e90 f i GuTetrahedronMesh.obj
 0001:00004ea0       ?GetRecyclable@RadixSort@Cm@physx@@QEBAPEAIXZ 0000000180005ea0 f i CmRadixSort.obj
 0001:00004ea0       ?GetValencies@BigConvexData@physx@@QEBAPEBUValency@Gu@2@XZ 0000000180005ea0 f i GuMetaData.obj
 0001:00004ea0       ?getCollisionMesh@SoftBodyMesh@Gu@physx@@UEAAPEAVPxTetrahedronMesh@3@XZ 0000000180005ea0 f i GuTetrahedronMesh.obj
 0001:00004ea0       ?getCollisionMesh@SoftBodyMesh@Gu@physx@@UEBAPEBVPxTetrahedronMesh@3@XZ 0000000180005ea0 f i GuTetrahedronMesh.obj
 0001:00004ea0       ?getHeightFieldGeometry@HeightFieldUtil@Gu@physx@@QEBAAEBVPxHeightFieldGeometry@3@XZ 0000000180005ea0 f i GuCCTSweepTests.obj
 0001:00004ea0       ?getObjects@PruningPool@Gu@physx@@QEBAPEAUPrunerPayload@23@XZ 0000000180005ea0 f i GuIncrementalAABBPrunerCore.obj
 0001:00004ea0       ?getPos@AABBTreeBuildNode@Gu@physx@@QEBAPEBV123@XZ 0000000180005ea0 f i GuMeshFactory.obj
 0001:00004ea0       ?getVertices@TetrahedronMesh@Gu@physx@@UEBAPEBV?$PxVec3T@M@3@XZ 0000000180005ea0 f i GuTetrahedronMesh.obj
 0001:00004ea0       ?getVertices@TriangleMesh@Gu@physx@@UEBAPEBV?$PxVec3T@M@3@XZ 0000000180005ea0 f i GuTriangleMesh.obj
 0001:00004eb0       ?Resize@RadixSortBuffered@Cm@physx@@AEAA_NI@Z 0000000180005eb0 f   CmRadixSort.obj
 0001:00004fb0       ?SetBuffers@RadixSort@Cm@physx@@QEAA_NPEAI00PEAPEAI@Z 0000000180005fb0 f   CmRadixSort.obj
 0001:00004ff0       ?Sort@RadixSort@Cm@physx@@QEAAAEAV123@PEBIIW4RadixHint@23@@Z 0000000180005ff0 f   CmRadixSort.obj
 0001:000056a0       ?Sort@RadixSort@Cm@physx@@QEAAAEAV123@PEBMI@Z 00000001800066a0 f   CmRadixSort.obj
 0001:00005e40       ?Sort@RadixSortBuffered@Cm@physx@@QEAAAEAV123@PEBIIW4RadixHint@23@@Z 0000000180006e40 f   CmRadixSort.obj
 0001:00005ee0       ?Sort@RadixSortBuffered@Cm@physx@@QEAAAEAV123@PEBMI@Z 0000000180006ee0 f   CmRadixSort.obj
 0001:00005f70       ?invalidateRanks@RadixSort@Cm@physx@@QEAAXXZ 0000000180006f70 f i CmRadixSort.obj
 0001:00005f80       ?reset@RadixSortBuffered@Cm@physx@@QEAAXXZ 0000000180006f80 f   CmRadixSort.obj
 0001:00006000       ?ReadHeader@Cm@physx@@YA_NEEEEAEAIAEA_NAEAVPxInputStream@2@@Z 0000000180007000 f   CmSerialize.obj
 0001:00006160       ?ReadIndices@Cm@physx@@YAXGIPEAGAEAVPxInputStream@2@_N@Z 0000000180007160 f   CmSerialize.obj
 0001:000062b0       ?StoreIndices@Cm@physx@@YAXGIPEBGAEAVPxOutputStream@2@_N@Z 00000001800072b0 f   CmSerialize.obj
 0001:000063a0       ?WriteHeader@Cm@physx@@YA_NEEEEI_NAEAVPxOutputStream@2@@Z 00000001800073a0 f   CmSerialize.obj
 0001:000064d0       ?computeMaxIndex@physx@@YAGPEBGI@Z 00000001800074d0 f   CmSerialize.obj
 0001:00006500       ?computeMaxIndex@physx@@YAIPEBII@Z 0000000180007500 f   CmSerialize.obj
 0001:00006530       ?readByteBuffer@physx@@YAXPEAEIAEAVPxInputStream@1@@Z 0000000180007530 f   CmSerialize.obj
 0001:00006530       ?writeByteBuffer@physx@@YAXPEBEIAEAVPxOutputStream@1@@Z 0000000180007530 f   CmSerialize.obj
 0001:00006550       ?readChunk@physx@@YAXAEAC000AEAVPxInputStream@1@@Z 0000000180007550 f   CmSerialize.obj
 0001:000065d0       ?readDword@physx@@YAI_NAEAVPxInputStream@1@@Z 00000001800075d0 f   CmSerialize.obj
 0001:00006630       ?readFloat@physx@@YAM_NAEAVPxInputStream@1@@Z 0000000180007630 f   CmSerialize.obj
 0001:00006690       ?readFloatBuffer@physx@@YA_NPEAMI_NAEAVPxInputStream@1@@Z 0000000180007690 f   CmSerialize.obj
 0001:00006710       ?readHeader@physx@@YA_NCCCCAEAIAEA_NAEAVPxInputStream@1@@Z 0000000180007710 f   CmSerialize.obj
 0001:00006860       ?readIndices@physx@@YAXIIPEAIAEAVPxInputStream@1@_N@Z 0000000180007860 f   CmSerialize.obj
 0001:00006990       ?readWord@physx@@YAG_NAEAVPxInputStream@1@@Z 0000000180007990 f   CmSerialize.obj
 0001:000069d0       ?readWordBuffer@physx@@YAXPEAGI_NAEAVPxInputStream@1@@Z 00000001800079d0 f   CmSerialize.obj
 0001:00006a40       ?storeIndices@physx@@YAXIIPEBIAEAVPxOutputStream@1@_N@Z 0000000180007a40 f   CmSerialize.obj
 0001:00006bd0       ?writeDword@physx@@YAXI_NAEAVPxOutputStream@1@@Z 0000000180007bd0 f   CmSerialize.obj
 0001:00006c20       ?writeFloat@physx@@YAXM_NAEAVPxOutputStream@1@@Z 0000000180007c20 f   CmSerialize.obj
 0001:00006c70       ?writeFloatBuffer@physx@@YAXPEBMI_NAEAVPxOutputStream@1@@Z 0000000180007c70 f   CmSerialize.obj
 0001:00006d10       ?writeHeader@physx@@YA_NCCCCI_NAEAVPxOutputStream@1@@Z 0000000180007d10 f   CmSerialize.obj
 0001:00006e40       ?writeWord@physx@@YAXG_NAEAVPxOutputStream@1@@Z 0000000180007e40 f   CmSerialize.obj
 0001:00006e80       ?writeWordBuffer@physx@@YAXPEBGI_NAEAVPxOutputStream@1@@Z 0000000180007e80 f   CmSerialize.obj
 0001:00006f00       ??6PxRenderOutput@physx@@QEAAAEAV01@AEBV?$PxTransformT@M@1@@Z 0000000180007f00 f i CmVisualization.obj
 0001:00007080       ??6PxRenderOutput@physx@@QEAAAEAV01@AEBV?$PxVec3T@M@1@@Z 0000000180008080 f i CmVisualization.obj
 0001:00007370       ?renderOutputDebugArrow@Cm@physx@@YAXAEAVPxRenderOutput@2@AEBUPxDebugArrow@2@@Z 0000000180008370 f   CmVisualization.obj
 0001:00007710       ?renderOutputDebugBasis@Cm@physx@@YAXAEAVPxRenderOutput@2@AEBUPxDebugBasis@2@@Z 0000000180008710 f   CmVisualization.obj
 0001:00007ca0       ?renderOutputDebugBox@Cm@physx@@YAXAEAVPxRenderOutput@2@AEBVPxBounds3@2@@Z 0000000180008ca0 f   CmVisualization.obj
 0001:00007f10       ?renderOutputDebugCircle@Cm@physx@@YAXAEAVPxRenderOutput@2@IM@Z 0000000180008f10 f   CmVisualization.obj
 0001:00007ff0       ?visualizeAngularLimit@Cm@physx@@YAXAEAVPxRenderOutput@2@MAEBV?$PxTransformT@M@2@MM@Z 0000000180008ff0 f   CmVisualization.obj
 0001:00008180       ?visualizeDoubleCone@Cm@physx@@YAXAEAVPxRenderOutput@2@MAEBV?$PxTransformT@M@2@M@Z 0000000180009180 f   CmVisualization.obj
 0001:000083a0       ?visualizeJointFrames@Cm@physx@@YAXAEAVPxRenderOutput@2@MAEBV?$PxTransformT@M@2@1@Z 00000001800093a0 f   CmVisualization.obj
 0001:00008ea0       ?visualizeLimitCone@Cm@physx@@YAXAEAVPxRenderOutput@2@MAEBV?$PxTransformT@M@2@MM@Z 0000000180009ea0 f   CmVisualization.obj
 0001:000090d0       ?visualizeLinearLimit@Cm@physx@@YAXAEAVPxRenderOutput@2@MAEBV?$PxTransformT@M@2@1M@Z 000000018000a0d0 f   CmVisualization.obj
 0001:000096c0       ??0CmModuleUpdateLoader@Cm@physx@@QEAA@PEBD@Z 000000018000a6c0 f   CmWindowsModuleUpdateLoader.obj
 0001:00009700       ??1CmModuleUpdateLoader@Cm@physx@@QEAA@XZ 000000018000a700 f   CmWindowsModuleUpdateLoader.obj
 0001:00009730       ?LoadModule@CmModuleUpdateLoader@Cm@physx@@QEAAPEAUHINSTANCE__@@PEBD0@Z 000000018000a730 f   CmWindowsModuleUpdateLoader.obj
 0001:000097a0       __local_stdio_printf_options 000000018000a7a0 f i CmWindowsModuleUpdateLoader.obj
 0001:000097b0       printf                     000000018000a7b0 f i CmWindowsModuleUpdateLoader.obj
 0001:00009810       ?commonDelayHook@@YAP6A_JXZIPEAUDelayLoadInfo@@@Z 000000018000a810 f   CmWindowsDelayLoadHook.obj
 0001:000098f0       PxSetPhysXCommonDelayLoadHook 000000018000a8f0 f   CmWindowsDelayLoadHook.obj
 0001:00009900       ??0?$PxQuatT@M@physx@@QEAA@AEBV?$PxMat33T@M@1@@Z 000000018000a900 f i GuBox.obj
 0001:00009b00       ??0Box@Gu@physx@@QEAA@AEBV012@@Z 000000018000ab00 f i GuBox.obj
 0001:00009b00       ??4Box@Gu@physx@@QEAAAEBV012@AEBV012@@Z 000000018000ab00 f i GuBox.obj
 0001:00009b60       ??0Box@Gu@physx@@QEAA@AEBV?$PxVec3T@M@2@0AEBV?$PxMat33T@M@2@@Z 000000018000ab60 f i GuBox.obj
 0001:00009bd0       ??$forward@_K@std@@YA$$QEA_KAEA_K@Z 000000018000abd0 f i libvcruntime:undname.obj
 0001:00009bd0       ??0AABBTreeBuildNode@Gu@physx@@QEAA@XZ 000000018000abd0 f i GuMeshFactory.obj
 0001:00009bd0       ??0BigConvexData@physx@@QEAA@W4PxEMPTY@1@@Z 000000018000abd0 f i GuMetaData.obj
 0001:00009bd0       ??0Box@Gu@physx@@QEAA@XZ   000000018000abd0 f i GuBox.obj
 0001:00009bd0       ??0HeightFieldData@Gu@physx@@QEAA@W4PxEMPTY@2@@Z 000000018000abd0 f i GuCCTSweepTests.obj
 0001:00009bd0       ?getAABB@AABBTreeBuildNode@Gu@physx@@QEBAAEBVPxBounds3@3@XZ 000000018000abd0 f i GuMeshFactory.obj
 0001:00009bd0       ?getPaddedBounds@HeightFieldData@Gu@physx@@QEBAAEBVCenterExtentsPadded@23@XZ 000000018000abd0 f i GuCCTSweepTests.obj
 0001:00009be0       ?computeAABBExtent@Box@Gu@physx@@QEBA?AV?$PxVec3T@M@3@XZ 000000018000abe0 f i GuBox.obj
 0001:00009ca0       ?computeBoxPoints@Box@Gu@physx@@QEBAXPEIAV?$PxVec3T@M@3@@Z 000000018000aca0 f i GuBox.obj
 0001:00009ce0       ?computeOBBPoints@Gu@physx@@YAXPEIAV?$PxVec3T@M@2@AEBV32@1111@Z 000000018000ace0 f   GuBox.obj
 0001:00009f60       ?create@Box@Gu@physx@@QEAAXAEBVCapsule@23@@Z 000000018000af60 f   GuBox.obj
 0001:0000a190       ?getBoxEdges@Gu@physx@@YAPEBEXZ 000000018000b190 f   GuBox.obj
 0001:0000a1a0       ?getTransform@Box@Gu@physx@@QEBA?AV?$PxTransformT@M@3@XZ 000000018000b1a0 f i GuBox.obj
 0001:0000a200       ?isValid@Box@Gu@physx@@QEBA_NXZ 000000018000b200 f i GuBox.obj
 0001:0000a220       ?rotate@Box@Gu@physx@@QEBA?AV?$PxVec3T@M@3@AEBV43@@Z 000000018000b220 f i GuBox.obj
 0001:0000a2b0       ?rotateInv@Box@Gu@physx@@QEBA?AV?$PxVec3T@M@3@AEBV43@@Z 000000018000b2b0 f i GuBox.obj
 0001:0000a340       ?setAxes@Box@Gu@physx@@QEAAXAEBV?$PxVec3T@M@3@00@Z 000000018000b340 f i GuBox.obj
 0001:0000a380       ?setEmpty@Box@Gu@physx@@QEAAXXZ 000000018000b380 f i GuBox.obj
 0001:0000a3c0       ?transform@Box@Gu@physx@@QEBA?AV?$PxVec3T@M@3@AEBV43@@Z 000000018000b3c0 f i GuBox.obj
 0001:0000a460       ?PxComputeBasisVectors@physx@@YAXAEBV?$PxVec3T@M@1@0AEAV21@11@Z 000000018000b460 f i GuCapsule.obj
 0001:0000a600       ?computeBoxAroundCapsule@Gu@physx@@YAXAEBVCapsule@12@AEAVBox@12@@Z 000000018000b600 f   GuCapsule.obj
 0001:0000a750       ??0HeightFieldData@Gu@physx@@QEAA@$$QEAU012@@Z 000000018000b750 f i GuCCTSweepTests.obj
 0001:0000a750       ??0HeightFieldData@Gu@physx@@QEAA@AEBU012@@Z 000000018000b750 f i GuCCTSweepTests.obj
 0001:0000a750       ??4HeightFieldData@Gu@physx@@QEAAAEAU012@$$QEAU012@@Z 000000018000b750 f i GuCCTSweepTests.obj
 0001:0000a750       ??4HeightFieldData@Gu@physx@@QEAAAEAU012@AEBU012@@Z 000000018000b750 f i GuCCTSweepTests.obj
 0001:0000a7b0       ??0HeightFieldData@Gu@physx@@QEAA@XZ 000000018000b7b0 f i GuCCTSweepTests.obj
 0001:0000a7c0       ??0HeightFieldTraceUtil@Gu@physx@@QEAA@AEBVPxHeightFieldGeometry@2@@Z 000000018000b7c0 f i GuCCTSweepTests.obj
 0001:0000a7c0       ??0HeightFieldUtil@Gu@physx@@QEAA@AEBVPxHeightFieldGeometry@2@@Z 000000018000b7c0 f i GuCCTSweepTests.obj
 0001:0000a800       ??4AABBTreeBuildParams@Gu@physx@@QEAAAEAV012@AEBV012@@Z 000000018000b800 f i GuMeshFactory.obj
 0001:0000a800       ??4HeightFieldTraceUtil@Gu@physx@@QEAAAEAV012@$$QEAV012@@Z 000000018000b800 f i GuCCTSweepTests.obj
 0001:0000a800       ??4HeightFieldTraceUtil@Gu@physx@@QEAAAEAV012@AEBV012@@Z 000000018000b800 f i GuCCTSweepTests.obj
 0001:0000a800       ??4HeightFieldUtil@Gu@physx@@QEAAAEAV012@AEBV012@@Z 000000018000b800 f i GuCCTSweepTests.obj
 0001:0000a820       ??4HeightFieldUtil@Gu@physx@@QEAAAEAV012@$$QEAV012@@Z 000000018000b820 f i GuCCTSweepTests.obj
 0001:0000a880       ??_EEntityReport@Gu@physx@@UEAAPEAXI@Z 000000018000b880 f i GuSweepsHF.obj
 0001:0000a880       ??_EOverlapCallback@PxBVH@physx@@UEAAPEAXI@Z 000000018000b880 f i GuQuerySystem.obj
 0001:0000a880       ??_EOverlapReport@Gu@physx@@UEAAPEAXI@Z 000000018000b880 f i GuCCTSweepTests.obj
 0001:0000a880       ??_ERaycastCallback@PxBVH@physx@@UEAAPEAXI@Z 000000018000b880 f i GuQuerySystem.obj
 0001:0000a880       ??_ERemapCallback@RTreeCooker@physx@@UEAAPEAXI@Z 000000018000b880 f i GuCookingTriangleMesh.obj
 0001:0000a880       ??_GEntityReport@Gu@physx@@UEAAPEAXI@Z 000000018000b880 f i GuSweepsHF.obj
 0001:0000a880       ??_GOverlapCallback@PxBVH@physx@@UEAAPEAXI@Z 000000018000b880 f i GuQuerySystem.obj
 0001:0000a880       ??_GOverlapReport@Gu@physx@@UEAAPEAXI@Z 000000018000b880 f i GuCCTSweepTests.obj
 0001:0000a880       ??_GRaycastCallback@PxBVH@physx@@UEAAPEAXI@Z 000000018000b880 f i GuQuerySystem.obj
 0001:0000a880       ??_GRemapCallback@RTreeCooker@physx@@UEAAPEAXI@Z 000000018000b880 f i GuCookingTriangleMesh.obj
 0001:0000a8b0       ??_H@YAXPEAX_K1P6APEAX0@Z@Z 000000018000b8b0 f i GuCCTSweepTests.obj
 0001:0000a900       ?ceilUp@HeightFieldTraceUtil@Gu@physx@@SAMM@Z 000000018000b900 f i GuCCTSweepTests.obj
 0001:0000a940       ?floorDown@HeightFieldTraceUtil@Gu@physx@@SAMM@Z 000000018000b940 f i GuCCTSweepTests.obj
 0001:0000a980       ?getHeightAtShapePoint@HeightFieldUtil@Gu@physx@@QEBAMMM@Z 000000018000b980 f i GuCCTSweepTests.obj
 0001:0000a9e0       ?getHeightInternal2@HeightField@Gu@physx@@QEBAMIMM@Z 000000018000b9e0 f i GuCCTSweepTests.obj
 0001:0000ab50       ?getNormalAtShapePoint@HeightFieldUtil@Gu@physx@@QEBA?AV?$PxVec3T@M@3@MM@Z 000000018000bb50 f i GuCCTSweepTests.obj
 0001:0000ac10       ?getNormal_2@HeightField@Gu@physx@@QEBA?AV?$PxVec3T@M@3@IMMMMM@Z 000000018000bc10 f i GuCCTSweepTests.obj
 0001:0000ad30       ?getOneOverColumnScale@HeightFieldUtil@Gu@physx@@QEBAMXZ 000000018000bd30 f i GuCCTSweepTests.obj
 0001:0000ad40       ?getOneOverHeightScale@HeightFieldUtil@Gu@physx@@QEBAMXZ 000000018000bd40 f i GuCCTSweepTests.obj
 0001:0000ad50       ?getOneOverRowScale@HeightFieldUtil@Gu@physx@@QEBAMXZ 000000018000bd50 f i GuCCTSweepTests.obj
 0001:0000ad60       ?hf2shapen@HeightFieldUtil@Gu@physx@@QEBA?AV?$PxVec3T@M@3@AEBV43@@Z 000000018000bd60 f i GuCCTSweepTests.obj
 0001:0000ad60       ?shape2hfp@HeightFieldUtil@Gu@physx@@QEBA?AV?$PxVec3T@M@3@AEBV43@@Z 000000018000bd60 f i GuCCTSweepTests.obj
 0001:0000ada0       ?hf2shapep@HeightFieldUtil@Gu@physx@@QEBA?AV?$PxVec3T@M@3@AEBV43@@Z 000000018000bda0 f i GuCCTSweepTests.obj
 0001:0000ade0       ?hf2worldn@HeightFieldUtil@Gu@physx@@QEBA?AV?$PxVec3T@M@3@AEBV?$PxTransformT@M@3@AEBV43@@Z 000000018000bde0 f i GuCCTSweepTests.obj
 0001:0000af50       ?hf2worldp@HeightFieldUtil@Gu@physx@@QEBA?AV?$PxVec3T@M@3@AEBV?$PxTransformT@M@3@AEBV43@@Z 000000018000bf50 f i GuCCTSweepTests.obj
 0001:0000b0d0       ?overlapAABBTriangles0to1@HeightFieldUtil@Gu@physx@@QEBAXAEBV?$PxTransformT@M@3@AEBVPxBounds3@3@AEAVOverlapReport@23@I@Z 000000018000c0d0 f i GuCCTSweepTests.obj
 0001:0000b470       ?overlapAABBTriangles@HeightFieldUtil@Gu@physx@@QEBAXAEBV?$PxTransformT@M@3@0AEBVPxBounds3@3@AEAVOverlapReport@23@I@Z 000000018000c470 f i GuCCTSweepTests.obj
 0001:0000ba90       ?overlapAABBTriangles@HeightFieldUtil@Gu@physx@@QEBAXAEBV?$PxTransformT@M@3@AEBVPxBounds3@3@AEAVOverlapReport@23@I@Z 000000018000ca90 f i GuCCTSweepTests.obj
 0001:0000c170       ?sweepBoxTriangles_Precise@Gu@physx@@YA_NIPEBVPxTriangle@2@_NAEBVPxBoxGeometry@2@AEBV?$PxTransformT@M@2@AEBV?$PxVec3T@M@2@MAEAUPxGeomSweepHit@2@PEBIMV?$PxFlags@W4Enum@PxHitFlag@physx@@G@2@@Z 000000018000d170 f   GuCCTSweepTests.obj
 0001:0000cef0       ?sweepBox_BoxGeom_Precise@@YA_NAEBVPxGeometry@physx@@AEBV?$PxTransformT@M@2@AEBVPxBoxGeometry@2@1AEBVBox@Gu@2@AEBV?$PxVec3T@M@2@MAEAUPxGeomSweepHit@2@V?$PxFlags@W4Enum@PxHitFlag@physx@@G@2@MPEAUPxQueryThreadContext@2@@Z 000000018000def0 f   GuCCTSweepTests.obj
 0001:0000d0b0       ?sweepBox_CapsuleGeom_Precise@@YA_NAEBVPxGeometry@physx@@AEBV?$PxTransformT@M@2@AEBVPxBoxGeometry@2@1AEBVBox@Gu@2@AEBV?$PxVec3T@M@2@MAEAUPxGeomSweepHit@2@V?$PxFlags@W4Enum@PxHitFlag@physx@@G@2@MPEAUPxQueryThreadContext@2@@Z 000000018000e0b0 f   GuCCTSweepTests.obj
 0001:0000d480       ?sweepBox_HeightFieldGeom_Precise@@YA_NAEBVPxGeometry@physx@@AEBV?$PxTransformT@M@2@AEBVPxBoxGeometry@2@1AEBVBox@Gu@2@AEBV?$PxVec3T@M@2@MAEAUPxGeomSweepHit@2@V?$PxFlags@W4Enum@PxHitFlag@physx@@G@2@MPEAUPxQueryThreadContext@2@@Z 000000018000e480 f   GuCCTSweepTests.obj
 0001:0000dca0       ?sweepBox_SphereGeom_Precise@@YA_NAEBVPxGeometry@physx@@AEBV?$PxTransformT@M@2@AEBVPxBoxGeometry@2@1AEBVBox@Gu@2@AEBV?$PxVec3T@M@2@MAEAUPxGeomSweepHit@2@V?$PxFlags@W4Enum@PxHitFlag@physx@@G@2@MPEAUPxQueryThreadContext@2@@Z 000000018000eca0 f   GuCCTSweepTests.obj
 0001:0000df80       ?sweepCapsule_BoxGeom_Precise@@YA_NAEBVPxGeometry@physx@@AEBV?$PxTransformT@M@2@AEBVPxCapsuleGeometry@2@1AEBVCapsule@Gu@2@AEBV?$PxVec3T@M@2@MAEAUPxGeomSweepHit@2@V?$PxFlags@W4Enum@PxHitFlag@physx@@G@2@MPEAUPxQueryThreadContext@2@@Z 000000018000ef80 f   GuCCTSweepTests.obj
 0001:0000e5e0       ??0?$CacheMap@UCachedEdge@Gu@physx@@$0IA@@Gu@physx@@QEAA@XZ 000000018000f5e0 f i GuGeometryQuery.obj
 0001:0000e6a0       ??0?$CacheMap@UCachedVertex@Gu@physx@@$0IA@@Gu@physx@@QEAA@XZ 000000018000f6a0 f i GuGeometryQuery.obj
 0001:0000e760       ??0MultiplePersistentContactManifold@Gu@physx@@QEAA@XZ 000000018000f760 f i GuGeometryQuery.obj
 0001:0000e7b0       ??0PCMMeshContactGeneration@Gu@physx@@QEAA@AEBT__m128@@0AEBVPxTransformV@aos@2@1AEAVMultiplePersistentContactManifold@12@AEAVPxContactBuffer@2@PEAV?$PxInlineArray@I$0DMA@V?$PxReflectionAllocator@I@physx@@@2@PEAVPxRenderOutput@2@@Z 000000018000f7b0 f i GuGeometryQuery.obj
 0001:0000f0e0       ??0PolygonalBox@Gu@physx@@QEAA@AEBV012@@Z 00000001800100e0 f i GuGeometryQuery.obj
 0001:0000f360       ??4MultiplePersistentContactManifold@Gu@physx@@QEAAAEAV012@$$QEAV012@@Z 0000000180010360 f i GuGeometryQuery.obj
 0001:0000f670       ??4MultiplePersistentContactManifold@Gu@physx@@QEAAAEAV012@AEBV012@@Z 0000000180010670 f i GuGeometryQuery.obj
 0001:0000f690       ??_E?$SupportLocalImpl@VBoxV@Gu@physx@@@Gu@physx@@UEAAPEAXI@Z 0000000180010690 f i GuGeometryQuery.obj
 0001:0000f690       ??_E?$SupportLocalImpl@VConvexHullNoScaleV@Gu@physx@@@Gu@physx@@UEAAPEAXI@Z 0000000180010690 f i GuMTD.obj
 0001:0000f690       ??_E?$SupportLocalImpl@VConvexHullV@Gu@physx@@@Gu@physx@@UEAAPEAXI@Z 0000000180010690 f i GuGeometryQuery.obj
 0001:0000f690       ??_E?$SupportLocalImpl@VTriangleV@Gu@physx@@@Gu@physx@@UEAAPEAXI@Z 0000000180010690 f i GuPCMContactConvexCommon.obj
 0001:0000f690       ??_G?$SupportLocalImpl@VBoxV@Gu@physx@@@Gu@physx@@UEAAPEAXI@Z 0000000180010690 f i GuGeometryQuery.obj
 0001:0000f690       ??_G?$SupportLocalImpl@VConvexHullNoScaleV@Gu@physx@@@Gu@physx@@UEAAPEAXI@Z 0000000180010690 f i GuMTD.obj
 0001:0000f690       ??_G?$SupportLocalImpl@VConvexHullV@Gu@physx@@@Gu@physx@@UEAAPEAXI@Z 0000000180010690 f i GuGeometryQuery.obj
 0001:0000f690       ??_G?$SupportLocalImpl@VTriangleV@Gu@physx@@@Gu@physx@@UEAAPEAXI@Z 0000000180010690 f i GuPCMContactConvexCommon.obj
 0001:0000f6c0       ??_ESupportLocal@Gu@physx@@UEAAPEAXI@Z 00000001800106c0 f i GuGeometryQuery.obj
 0001:0000f6c0       ??_GSupportLocal@Gu@physx@@UEAAPEAXI@Z 00000001800106c0 f i GuGeometryQuery.obj
 0001:0000f6f0       ?clearManifold@MultiplePersistentContactManifold@Gu@physx@@QEAAXXZ 00000001800106f0 f i GuGeometryQuery.obj
 0001:0000f750       ?computeGeomBounds@PxGeometryQuery@physx@@SAXAEAVPxBounds3@2@AEBVPxGeometry@2@AEBV?$PxTransformT@M@2@MMV?$PxFlags@W4Enum@PxGeometryQueryFlag@physx@@I@2@@Z 0000000180010750 f   GuGeometryQuery.obj
 0001:0000f7d0       ?computePenetration@PxGeometryQuery@physx@@SA_NAEAV?$PxVec3T@M@2@AEAMAEBVPxGeometry@2@AEBV?$PxTransformT@M@2@23V?$PxFlags@W4Enum@PxGeometryQueryFlag@physx@@I@2@@Z 00000001800107d0 f   GuGeometryQuery.obj
 0001:0000f950       ?doSupport@?$SupportLocalImpl@VBoxV@Gu@physx@@@Gu@physx@@UEBA?AT__m128@@AEBT4@@Z 0000000180010950 f i GuGeometryQuery.obj
 0001:0000f980       ?doSupport@?$SupportLocalImpl@VBoxV@Gu@physx@@@Gu@physx@@UEBAXAEBT__m128@@AEAT4@1@Z 0000000180010980 f i GuGeometryQuery.obj
 0001:0000f9d0       ?doSupport@?$SupportLocalImpl@VConvexHullV@Gu@physx@@@Gu@physx@@UEBA?AT__m128@@AEBT4@@Z 00000001800109d0 f i GuGeometryQuery.obj
 0001:0000fab0       ?doSupport@?$SupportLocalImpl@VConvexHullV@Gu@physx@@@Gu@physx@@UEBAXAEBT__m128@@AEAT4@1@Z 0000000180010ab0 f i GuGeometryQuery.obj
 0001:0000fe10       ?generateTriangleContacts@PxGeometryQuery@physx@@SA_NAEBVPxGeometry@2@AEBV?$PxTransformT@M@2@QEBV?$PxVec3T@M@2@IMMMAEAVPxContactBuffer@2@@Z 0000000180010e10 f   GuGeometryQuery.obj
 0001:00011760       ?getEmptyManifold@MultiplePersistentContactManifold@Gu@physx@@QEAAPEAVSinglePersistentContactManifold@23@XZ 0000000180012760 f i GuGeometryQuery.obj
 0001:00011780       ?getManifold@MultiplePersistentContactManifold@Gu@physx@@QEAAPEAVSinglePersistentContactManifold@23@I@Z 0000000180012780 f i GuGeometryQuery.obj
 0001:00011780       ?getManifold@MultiplePersistentContactManifold@Gu@physx@@QEBAPEBVSinglePersistentContactManifold@23@I@Z 0000000180012780 f i GuGeometryQuery.obj
 0001:000117a0       ?getUniqueID@PxCustomGeometry@physx@@SAIXZ 00000001800127a0 f   GuGeometryQuery.obj
 0001:000117c0       ?hillClimbing@ConvexHullV@Gu@physx@@QEBAIAEBT__m128@@@Z 00000001800127c0 f i GuGeometryQuery.obj
 0001:000119f0       ?initialize@MultiplePersistentContactManifold@Gu@physx@@QEAAXXZ 00000001800129f0 f i GuGeometryQuery.obj
 0001:00011a50       ?invalidate@MultiplePersistentContactManifold@Gu@physx@@QEBAIAEBVPxTransformV@aos@3@AEBT__m128@@1@Z 0000000180012a50 f i GuGeometryQuery.obj
 0001:00011ac0       ?invalidate@MultiplePersistentContactManifold@Gu@physx@@QEBAIAEBVPxTransformV@aos@3@AEBT__m128@@@Z 0000000180012ac0 f i GuGeometryQuery.obj
 0001:00011b30       ?isUnit@?$PxQuatT@M@physx@@QEBA_NXZ 0000000180012b30 f i GuGeometryQuery.obj
 0001:00011bf0       ?isValid@PxGeometryQuery@physx@@SA_NAEBVPxGeometry@2@@Z 0000000180012bf0 f   GuGeometryQuery.obj
 0001:00011ee0       ?maxTransformPositionDelta@MultiplePersistentContactManifold@Gu@physx@@QEBA?AT__m128@@AEBT4@@Z 0000000180012ee0 f i GuGeometryQuery.obj
 0001:00011f20       ?maxTransformQuatDelta@MultiplePersistentContactManifold@Gu@physx@@QEBA?AT__m128@@AEBT4@@Z 0000000180012f20 f i GuGeometryQuery.obj
 0001:00011f60       ?overlap@PxGeometryQuery@physx@@SA_NAEBVPxGeometry@2@AEBV?$PxTransformT@M@2@01V?$PxFlags@W4Enum@PxGeometryQueryFlag@physx@@I@2@PEAUPxQueryThreadContext@2@@Z 0000000180012f60 f   GuGeometryQuery.obj
 0001:00012030       ?pointDistance@PxGeometryQuery@physx@@SAMAEBV?$PxVec3T@M@2@AEBVPxGeometry@2@AEBV?$PxTransformT@M@2@PEAV32@PEAIV?$PxFlags@W4Enum@PxGeometryQueryFlag@physx@@I@2@@Z 0000000180013030 f   GuGeometryQuery.obj
 0001:000127c0       ?populateVerts@?$SupportLocalImpl@VBoxV@Gu@physx@@@Gu@physx@@UEBAXPEBEIPEBV?$PxVec3T@M@3@PEAT__m128@@@Z 00000001800137c0 f i GuGeometryQuery.obj
 0001:00012800       ?populateVerts@?$SupportLocalImpl@VConvexHullV@Gu@physx@@@Gu@physx@@UEBAXPEBEIPEBV?$PxVec3T@M@3@PEAT__m128@@@Z 0000000180013800 f i GuGeometryQuery.obj
 0001:00012860       ?raycast@PxGeometryQuery@physx@@SAIAEBV?$PxVec3T@M@2@0AEBVPxGeometry@2@AEBV?$PxTransformT@M@2@MV?$PxFlags@W4Enum@PxHitFlag@physx@@G@2@IPEIAUPxGeomRaycastHit@2@IV?$PxFlags@W4Enum@PxGeometryQueryFlag@physx@@I@2@PEAUPxQueryThreadContext@2@@Z 0000000180013860 f   GuGeometryQuery.obj
 0001:00012960       ?reduceManifoldContactsInDifferentPatches@MultiplePersistentContactManifold@Gu@physx@@QEBAIPEAPEAUPCMContactPatch@23@IPEAVMeshPersistentContact@23@IAEBT__m128@@@Z 0000000180013960 f i GuGeometryQuery.obj
 0001:00012ad0       ?refineContactPatchConnective@MultiplePersistentContactManifold@Gu@physx@@QEBAXPEAPEAUPCMContactPatch@23@IPEAVMeshPersistentContact@23@AEBT__m128@@@Z 0000000180013ad0 f i GuGeometryQuery.obj
 0001:00012bc0       ?refreshManifold@MultiplePersistentContactManifold@Gu@physx@@QEAAXAEBVPxMatTransformV@aos@3@AEBT__m128@@1@Z 0000000180013bc0 f i GuGeometryQuery.obj
 0001:00012cc0       ?setRelativeTransform@MultiplePersistentContactManifold@Gu@physx@@QEAAXAEBVPxTransformV@aos@3@@Z 0000000180013cc0 f i GuGeometryQuery.obj
 0001:00012cd0       ?supportVertexIndex@ConvexHullV@Gu@physx@@QEBAIAEBT__m128@@@Z 0000000180013cd0 f i GuGeometryQuery.obj
 0001:00012f50       ?sweep@PxGeometryQuery@physx@@SA_NAEBV?$PxVec3T@M@2@MAEBVPxGeometry@2@AEBV?$PxTransformT@M@2@12AEAUPxGeomSweepHit@2@V?$PxFlags@W4Enum@PxHitFlag@physx@@G@2@MV?$PxFlags@W4Enum@PxGeometryQueryFlag@physx@@I@2@PEAUPxQueryThreadContext@2@@Z 0000000180013f50 f   GuGeometryQuery.obj
 0001:000133e0       ?computeBoxPoints@Gu@physx@@YAXAEBVPxBounds3@2@PEIAV?$PxVec3T@M@2@@Z 00000001800143e0 f   GuInternal.obj
 0001:00013480       ?computeSweptBox@Gu@physx@@YAXAEAVBox@12@AEBV?$PxVec3T@M@2@1AEBV?$PxMat33T@M@2@1M@Z 0000000180014480 f   GuInternal.obj
 0001:000139c0       ?getPlane@Gu@physx@@YA?AVPxPlane@2@AEBV?$PxTransformT@M@2@@Z 00000001800149c0 f   GuInternal.obj
 0001:00013e10       ??_ECallbackRaycast@RTree@Gu@physx@@UEAAPEAXI@Z 0000000180014e10 f i GuMidphaseRTree.obj
 0001:00013e10       ??_ECallbackRefit@RTree@Gu@physx@@UEAAPEAXI@Z 0000000180014e10 f i GuTriangleMeshRTree.obj
 0001:00013e10       ??_EPxInsertionCallback@physx@@MEAAPEAXI@Z 0000000180014e10 f i GuMeshFactory.obj
 0001:00013e10       ??_GCallbackRaycast@RTree@Gu@physx@@UEAAPEAXI@Z 0000000180014e10 f i GuMidphaseRTree.obj
 0001:00013e10       ??_GCallbackRefit@RTree@Gu@physx@@UEAAPEAXI@Z 0000000180014e10 f i GuTriangleMeshRTree.obj
 0001:00013e10       ??_GPxInsertionCallback@physx@@MEAAPEAXI@Z 0000000180014e10 f i GuMeshFactory.obj
 0001:00013e40       ??$copy@V?$PxReflectionAllocator@USlab@NodeAllocator@Gu@physx@@@physx@@@?$PxArray@USlab@NodeAllocator@Gu@physx@@V?$PxReflectionAllocator@USlab@NodeAllocator@Gu@physx@@@4@@physx@@IEAAXAEBV01@@Z 0000000180014e40 f i GuMeshFactory.obj
 0001:00013f00       ??0AABBTreeBounds@Gu@physx@@QEAA@XZ 0000000180014f00 f i GuMeshFactory.obj
 0001:00013f10       ??0AABBTreeBuildNode@Gu@physx@@QEAA@AEBV012@@Z 0000000180014f10 f i GuMeshFactory.obj
 0001:00013f10       ??4AABBTreeBuildNode@Gu@physx@@QEAAAEAV012@AEBV012@@Z 0000000180014f10 f i GuMeshFactory.obj
 0001:00013f50       ??0AABBTreeBuildParams@Gu@physx@@QEAA@IIPEBVAABBTreeBounds@12@W4BVHBuildStrategy@12@@Z 0000000180014f50 f i GuMeshFactory.obj
 0001:00013f70       ??0MeshFactory@Gu@physx@@QEAA@XZ 0000000180014f70 f   GuMeshFactory.obj
 0001:00014170       ??0NodeAllocator@Gu@physx@@QEAA@AEBV012@@Z 0000000180015170 f i GuMeshFactory.obj
 0001:000141b0       ??0TriangleMeshData@Gu@physx@@QEAA@XZ 00000001800151b0 f i GuMeshFactory.obj
 0001:000142d0       ??1AABBTreeBounds@Gu@physx@@QEAA@XZ 00000001800152d0 f i GuMeshFactory.obj
 0001:000142e0       ??1AABBTreeBuildParams@Gu@physx@@QEAA@XZ 00000001800152e0 f i GuMeshFactory.obj
 0001:000142e0       ?reset@AABBTreeBuildParams@Gu@physx@@QEAAXXZ 00000001800152e0 f i GuMeshFactory.obj
 0001:00014330       ??1CollisionMeshMappingData@Gu@physx@@UEAA@XZ 0000000180015330 f i GuMeshFactory.obj
 0001:00014480       ??1MeshDataBase@Gu@physx@@UEAA@XZ 0000000180015480 f i GuMeshFactory.obj
 0001:000145c0       ??1MeshFactory@Gu@physx@@MEAA@XZ 00000001800155c0 f   GuMeshFactory.obj
 0001:00014700       ??1RTreeTriangleData@Gu@physx@@UEAA@XZ 0000000180015700 f i GuMeshFactory.obj
 0001:00014770       ??1SoftBodyCollisionData@Gu@physx@@UEAA@XZ 0000000180015770 f i GuMeshFactory.obj
 0001:000148b0       ??1SoftBodySimulationData@Gu@physx@@UEAA@XZ 00000001800158b0 f i GuMeshFactory.obj
 0001:000149d0       ??1TetrahedronMeshData@Gu@physx@@QEAA@XZ 00000001800159d0 f i GuMeshFactory.obj
 0001:00014a60       ??1TriangleMeshData@Gu@physx@@UEAA@XZ 0000000180015a60 f i GuMeshFactory.obj
 0001:00014b90       ??4NodeAllocator@Gu@physx@@QEAAAEAV012@AEBV012@@Z 0000000180015b90 f i GuMeshFactory.obj
 0001:00014c40       ??_EMeshFactory@Gu@physx@@MEAAPEAXI@Z 0000000180015c40 f i GuMeshFactory.obj
 0001:00014d60       ??_FAABBTreeBuildParams@Gu@physx@@QEAAXXZ 0000000180015d60 f i GuMeshFactory.obj
 0001:00014d80       ??_EBV4TriangleData@Gu@physx@@UEAAPEAXI@Z 0000000180015d80 f i GuMeshFactory.obj
 0001:00014d80       ??_GBV4TriangleData@Gu@physx@@UEAAPEAXI@Z 0000000180015d80 f i GuMeshFactory.obj
 0001:00014e10       ??_ECollisionMeshMappingData@Gu@physx@@UEAAPEAXI@Z 0000000180015e10 f i GuMeshFactory.obj
 0001:00014e10       ??_GCollisionMeshMappingData@Gu@physx@@UEAAPEAXI@Z 0000000180015e10 f i GuMeshFactory.obj
 0001:00014e80       ??_EMeshDataBase@Gu@physx@@UEAAPEAXI@Z 0000000180015e80 f i GuMeshFactory.obj
 0001:00014e80       ??_GMeshDataBase@Gu@physx@@UEAAPEAXI@Z 0000000180015e80 f i GuMeshFactory.obj
 0001:00014ef0       ??_EPxCollisionMeshMappingData@physx@@UEAAPEAXI@Z 0000000180015ef0 f i GuMeshFactory.obj
 0001:00014ef0       ??_GPxCollisionMeshMappingData@physx@@UEAAPEAXI@Z 0000000180015ef0 f i GuMeshFactory.obj
 0001:00014f40       ??_ERTreeTriangleData@Gu@physx@@UEAAPEAXI@Z 0000000180015f40 f i GuMeshFactory.obj
 0001:00014f40       ??_GRTreeTriangleData@Gu@physx@@UEAAPEAXI@Z 0000000180015f40 f i GuMeshFactory.obj
 0001:00014ff0       ??_ESoftBodyCollisionData@Gu@physx@@UEAAPEAXI@Z 0000000180015ff0 f i GuMeshFactory.obj
 0001:00014ff0       ??_GSoftBodyCollisionData@Gu@physx@@UEAAPEAXI@Z 0000000180015ff0 f i GuMeshFactory.obj
 0001:00015060       ??_ESoftBodySimulationData@Gu@physx@@UEAAPEAXI@Z 0000000180016060 f i GuMeshFactory.obj
 0001:00015060       ??_GSoftBodySimulationData@Gu@physx@@UEAAPEAXI@Z 0000000180016060 f i GuMeshFactory.obj
 0001:000150d0       ??_ETriangleMeshData@Gu@physx@@UEAAPEAXI@Z 00000001800160d0 f i GuMeshFactory.obj
 0001:000150d0       ??_GTriangleMeshData@Gu@physx@@UEAAPEAXI@Z 00000001800160d0 f i GuMeshFactory.obj
 0001:00015140       ??_V@YAXPEAX_K@Z           0000000180016140 f i LIBCMT:delete_array_size.obj
 0001:00015140       ?__global_delete@@YAXPEAX_K@Z 0000000180016140 f i GuMeshFactory.obj
 0001:00015150       ?addBVH@MeshFactory@Gu@physx@@QEAAXPEAVBVH@23@_N@Z 0000000180016150 f   GuMeshFactory.obj
 0001:000151d0       ?addConvexMesh@MeshFactory@Gu@physx@@QEAAXPEAVConvexMesh@23@_N@Z 00000001800161d0 f   GuMeshFactory.obj
 0001:00015250       ?addFactoryListener@MeshFactory@Gu@physx@@QEAAXAEAVMeshFactoryListener@23@@Z 0000000180016250 f   GuMeshFactory.obj
 0001:000152c0       ?addHeightField@MeshFactory@Gu@physx@@QEAAXPEAVHeightField@23@_N@Z 00000001800162c0 f   GuMeshFactory.obj
 0001:00015340       ?addSoftBodyMesh@MeshFactory@Gu@physx@@QEAAXPEAVSoftBodyMesh@23@_N@Z 0000000180016340 f   GuMeshFactory.obj
 0001:000153c0       ?addTetrahedronMesh@MeshFactory@Gu@physx@@QEAAXPEAVTetrahedronMesh@23@_N@Z 00000001800163c0 f   GuMeshFactory.obj
 0001:00015440       ?addTriangleMesh@MeshFactory@Gu@physx@@QEAAXPEAVTriangleMesh@23@_N@Z 0000000180016440 f   GuMeshFactory.obj
 0001:000154c0       ?allocate@?$PxArray@USlab@NodeAllocator@Gu@physx@@V?$PxReflectionAllocator@USlab@NodeAllocator@Gu@physx@@@4@@physx@@IEAAPEAUSlab@NodeAllocator@Gu@2@I@Z 00000001800164c0 f i GuMeshFactory.obj
 0001:00015550       ?allocateAdjacencies@TriangleMeshData@Gu@physx@@QEAAPEAIXZ 0000000180016550 f i GuMeshFactory.obj
 0001:000155c0       ?allocateExtraTrigData@TriangleMeshData@Gu@physx@@QEAAPEAEXZ 00000001800165c0 f i GuMeshFactory.obj
 0001:00015630       ?allocateFaceRemap@TriangleMeshData@Gu@physx@@QEAAPEAIXZ 0000000180016630 f i GuMeshFactory.obj
 0001:000156a0       ?allocateGridModelData@SoftBodySimulationData@Gu@physx@@QEAAXIIIIIII@Z 00000001800166a0 f i GuMeshFactory.obj
 0001:00015920       ?allocateMaterials@TetrahedronMeshData@Gu@physx@@QEAAPEAGXZ 0000000180016920 f i GuMeshFactory.obj
 0001:00015990       ?allocateMaterials@TriangleMeshData@Gu@physx@@QEAAPEAGXZ 0000000180016990 f i GuMeshFactory.obj
 0001:00015a00       ?allocateTetrahedrons@TetrahedronMeshData@Gu@physx@@QEAAXII@Z 0000000180016a00 f i GuMeshFactory.obj
 0001:00015a90       ?allocateTriangles@TriangleMeshData@Gu@physx@@QEAAPEAXI_NI@Z 0000000180016a90 f i GuMeshFactory.obj
 0001:00015b80       ?allocateVertices@MeshDataBase@Gu@physx@@QEAAPEAV?$PxVec3T@M@3@I@Z 0000000180016b80 f i GuMeshFactory.obj
 0001:00015bf0       ?allocateVertices@TetrahedronMeshData@Gu@physx@@QEAAPEAV?$PxVec3T@M@3@II@Z 0000000180016bf0 f i GuMeshFactory.obj
 0001:00015c90       ?allocatemappingData@CollisionMeshMappingData@Gu@physx@@QEAAXIIII@Z 0000000180016c90 f i GuMeshFactory.obj
 0001:00015e70       ?create@?$PxHashBase@PEAVBVH@Gu@physx@@PEAV123@U?$PxHash@PEAVBVH@Gu@physx@@@3@UGetKey@?$PxHashSetBase@PEAVBVH@Gu@physx@@U?$PxHash@PEAVBVH@Gu@physx@@@3@VPxAllocator@3@$00@3@VPxAllocator@3@$00@physx@@QEAAPEAPEAVBVH@Gu@2@AEBQEAV342@AEA_N@Z 0000000180016e70 f i GuMeshFactory.obj
 0001:00015e70       ?create@?$PxHashBase@PEAVConvexMesh@Gu@physx@@PEAV123@U?$PxHash@PEAVConvexMesh@Gu@physx@@@3@UGetKey@?$PxHashSetBase@PEAVConvexMesh@Gu@physx@@U?$PxHash@PEAVConvexMesh@Gu@physx@@@3@VPxAllocator@3@$00@3@VPxAllocator@3@$00@physx@@QEAAPEAPEAVConvexMesh@Gu@2@AEBQEAV342@AEA_N@Z 0000000180016e70 f i GuMeshFactory.obj
 0001:00015e70       ?create@?$PxHashBase@PEAVHeightField@Gu@physx@@PEAV123@U?$PxHash@PEAVHeightField@Gu@physx@@@3@UGetKey@?$PxHashSetBase@PEAVHeightField@Gu@physx@@U?$PxHash@PEAVHeightField@Gu@physx@@@3@VPxAllocator@3@$00@3@VPxAllocator@3@$00@physx@@QEAAPEAPEAVHeightField@Gu@2@AEBQEAV342@AEA_N@Z 0000000180016e70 f i GuMeshFactory.obj
 0001:00015e70       ?create@?$PxHashBase@PEAVSoftBodyMesh@Gu@physx@@PEAV123@U?$PxHash@PEAVSoftBodyMesh@Gu@physx@@@3@UGetKey@?$PxHashSetBase@PEAVSoftBodyMesh@Gu@physx@@U?$PxHash@PEAVSoftBodyMesh@Gu@physx@@@3@VPxAllocator@3@$00@3@VPxAllocator@3@$00@physx@@QEAAPEAPEAVSoftBodyMesh@Gu@2@AEBQEAV342@AEA_N@Z 0000000180016e70 f i GuMeshFactory.obj
 0001:00015e70       ?create@?$PxHashBase@PEAVTetrahedronMesh@Gu@physx@@PEAV123@U?$PxHash@PEAVTetrahedronMesh@Gu@physx@@@3@UGetKey@?$PxHashSetBase@PEAVTetrahedronMesh@Gu@physx@@U?$PxHash@PEAVTetrahedronMesh@Gu@physx@@@3@VPxAllocator@3@$00@3@VPxAllocator@3@$00@physx@@QEAAPEAPEAVTetrahedronMesh@Gu@2@AEBQEAV342@AEA_N@Z 0000000180016e70 f i GuMeshFactory.obj
 0001:00015e70       ?create@?$PxHashBase@PEAVTriangleMesh@Gu@physx@@PEAV123@U?$PxHash@PEAVTriangleMesh@Gu@physx@@@3@UGetKey@?$PxHashSetBase@PEAVTriangleMesh@Gu@physx@@U?$PxHash@PEAVTriangleMesh@Gu@physx@@@3@VPxAllocator@3@$00@3@VPxAllocator@3@$00@physx@@QEAAPEAPEAVTriangleMesh@Gu@2@AEBQEAV342@AEA_N@Z 0000000180016e70 f i GuMeshFactory.obj
 0001:00016000       ?createBVH@MeshFactory@Gu@physx@@IEAAPEAVPxBVH@3@AEAVBVHData@23@@Z 0000000180017000 f   GuMeshFactory.obj
 0001:000160f0       ?createBVH@MeshFactory@Gu@physx@@QEAAPEAVPxBVH@3@AEAVPxInputStream@3@@Z 00000001800170f0 f   GuMeshFactory.obj
 0001:00016210       ?createBVH@MeshFactory@Gu@physx@@QEAAPEAVPxBVH@3@PEAX@Z 0000000180017210 f   GuMeshFactory.obj
 0001:00016220       ?createConvexMesh@MeshFactory@Gu@physx@@IEAAPEAVPxConvexMesh@3@AEAUConvexHullInitData@23@@Z 0000000180017220 f   GuMeshFactory.obj
 0001:00016310       ?createConvexMesh@MeshFactory@Gu@physx@@QEAAPEAVPxConvexMesh@3@AEAVPxInputStream@3@@Z 0000000180017310 f   GuMeshFactory.obj
 0001:00016430       ?createConvexMesh@MeshFactory@Gu@physx@@QEAAPEAVPxConvexMesh@3@PEAX@Z 0000000180017430 f   GuMeshFactory.obj
 0001:00016440       ?createHeightField@MeshFactory@Gu@physx@@QEAAPEAVPxHeightField@3@AEAVPxInputStream@3@@Z 0000000180017440 f   GuMeshFactory.obj
 0001:00016560       ?createHeightField@MeshFactory@Gu@physx@@QEAAPEAVPxHeightField@3@PEAX@Z 0000000180017560 f   GuMeshFactory.obj
 0001:00016650       ?createSoftBodyMesh@MeshFactory@Gu@physx@@IEAAPEAVPxSoftBodyMesh@3@AEAVSoftBodyMeshData@23@@Z 0000000180017650 f   GuMeshFactory.obj
 0001:00016740       ?createSoftBodyMesh@MeshFactory@Gu@physx@@QEAAPEAVPxSoftBodyMesh@3@AEAVPxInputStream@3@@Z 0000000180017740 f   GuMeshFactory.obj
 0001:00016d40       ?createSoftBodyMesh@MeshFactory@Gu@physx@@QEAAPEAVPxSoftBodyMesh@3@PEAX@Z 0000000180017d40 f   GuMeshFactory.obj
 0001:00016d50       ?createTetrahedronMesh@MeshFactory@Gu@physx@@IEAAPEAVPxTetrahedronMesh@3@AEAVTetrahedronMeshData@23@@Z 0000000180017d50 f   GuMeshFactory.obj
 0001:00016e40       ?createTetrahedronMesh@MeshFactory@Gu@physx@@QEAAPEAVPxTetrahedronMesh@3@AEAVPxInputStream@3@@Z 0000000180017e40 f   GuMeshFactory.obj
 0001:00016eb0       ?createTetrahedronMesh@MeshFactory@Gu@physx@@QEAAPEAVPxTetrahedronMesh@3@PEAX@Z 0000000180017eb0 f   GuMeshFactory.obj
 0001:00016ec0       ?createTriangleMesh@MeshFactory@Gu@physx@@IEAAPEAVPxTriangleMesh@3@AEAVTriangleMeshData@23@@Z 0000000180017ec0 f   GuMeshFactory.obj
 0001:00017040       ?createTriangleMesh@MeshFactory@Gu@physx@@QEAAPEAVPxTriangleMesh@3@AEAVPxInputStream@3@@Z 0000000180018040 f   GuMeshFactory.obj
 0001:000170a0       ?createTriangleMesh@MeshFactory@Gu@physx@@QEAAPEAVPxTriangleMesh@3@PEAX@Z 00000001800180a0 f   GuMeshFactory.obj
 0001:000170b0       ?erase@?$PxHashBase@PEAVBVH@Gu@physx@@PEAV123@U?$PxHash@PEAVBVH@Gu@physx@@@3@UGetKey@?$PxHashSetBase@PEAVBVH@Gu@physx@@U?$PxHash@PEAVBVH@Gu@physx@@@3@VPxAllocator@3@$00@3@VPxAllocator@3@$00@physx@@QEAA_NAEBQEAVBVH@Gu@2@@Z 00000001800180b0 f i GuMeshFactory.obj
 0001:000170b0       ?erase@?$PxHashBase@PEAVConvexMesh@Gu@physx@@PEAV123@U?$PxHash@PEAVConvexMesh@Gu@physx@@@3@UGetKey@?$PxHashSetBase@PEAVConvexMesh@Gu@physx@@U?$PxHash@PEAVConvexMesh@Gu@physx@@@3@VPxAllocator@3@$00@3@VPxAllocator@3@$00@physx@@QEAA_NAEBQEAVConvexMesh@Gu@2@@Z 00000001800180b0 f i GuMeshFactory.obj
 0001:000170b0       ?erase@?$PxHashBase@PEAVHeightField@Gu@physx@@PEAV123@U?$PxHash@PEAVHeightField@Gu@physx@@@3@UGetKey@?$PxHashSetBase@PEAVHeightField@Gu@physx@@U?$PxHash@PEAVHeightField@Gu@physx@@@3@VPxAllocator@3@$00@3@VPxAllocator@3@$00@physx@@QEAA_NAEBQEAVHeightField@Gu@2@@Z 00000001800180b0 f i GuMeshFactory.obj
 0001:000170b0       ?erase@?$PxHashBase@PEAVSoftBodyMesh@Gu@physx@@PEAV123@U?$PxHash@PEAVSoftBodyMesh@Gu@physx@@@3@UGetKey@?$PxHashSetBase@PEAVSoftBodyMesh@Gu@physx@@U?$PxHash@PEAVSoftBodyMesh@Gu@physx@@@3@VPxAllocator@3@$00@3@VPxAllocator@3@$00@physx@@QEAA_NAEBQEAVSoftBodyMesh@Gu@2@@Z 00000001800180b0 f i GuMeshFactory.obj
 0001:000170b0       ?erase@?$PxHashBase@PEAVTetrahedronMesh@Gu@physx@@PEAV123@U?$PxHash@PEAVTetrahedronMesh@Gu@physx@@@3@UGetKey@?$PxHashSetBase@PEAVTetrahedronMesh@Gu@physx@@U?$PxHash@PEAVTetrahedronMesh@Gu@physx@@@3@VPxAllocator@3@$00@3@VPxAllocator@3@$00@physx@@QEAA_NAEBQEAVTetrahedronMesh@Gu@2@@Z 00000001800180b0 f i GuMeshFactory.obj
 0001:000170b0       ?erase@?$PxHashBase@PEAVTriangleMesh@Gu@physx@@PEAV123@U?$PxHash@PEAVTriangleMesh@Gu@physx@@@3@UGetKey@?$PxHashSetBase@PEAVTriangleMesh@Gu@physx@@U?$PxHash@PEAVTriangleMesh@Gu@physx@@@3@VPxAllocator@3@$00@3@VPxAllocator@3@$00@physx@@QEAA_NAEBQEAVTriangleMesh@Gu@2@@Z 00000001800180b0 f i GuMeshFactory.obj
 0001:00017230       ?getBVHs@MeshFactory@Gu@physx@@QEBAIPEAPEAVPxBVH@3@II@Z 0000000180018230 f   GuMeshFactory.obj
 0001:000172d0       ?getBounds@AABBTreeBounds@Gu@physx@@QEAAPEAVPxBounds3@3@XZ 00000001800182d0 f i GuMeshFactory.obj
 0001:000172d0       ?getBounds@AABBTreeBounds@Gu@physx@@QEBAPEBVPxBounds3@3@XZ 00000001800182d0 f i GuMeshFactory.obj
 0001:000172e0       ?getConvexMeshes@MeshFactory@Gu@physx@@QEBAIPEAPEAVPxConvexMesh@3@II@Z 00000001800182e0 f   GuMeshFactory.obj
 0001:00017380       ?getHeightFields@MeshFactory@Gu@physx@@QEBAIPEAPEAVPxHeightField@3@II@Z 0000000180018380 f   GuMeshFactory.obj
 0001:00017420       ?getNbBVHs@MeshFactory@Gu@physx@@QEBAIXZ 0000000180018420 f   GuMeshFactory.obj
 0001:00017460       ?getNbConvexMeshes@MeshFactory@Gu@physx@@QEBAIXZ 0000000180018460 f   GuMeshFactory.obj
 0001:000174a0       ?getNbHeightFields@MeshFactory@Gu@physx@@QEBAIXZ 00000001800184a0 f   GuMeshFactory.obj
 0001:000174e0       ?getNbPrimitives@AABBTreeBuildNode@Gu@physx@@QEBAIXZ 00000001800184e0 f i GuMeshFactory.obj
 0001:000174e0       ?getNbRuntimePrimitives@AABBTreeBuildNode@Gu@physx@@QEBAIXZ 00000001800184e0 f i GuMeshFactory.obj
 0001:000174f0       ?getNbSoftBodyMeshes@MeshFactory@Gu@physx@@QEBAIXZ 00000001800184f0 f   GuMeshFactory.obj
 0001:00017530       ?getNbTetrahedronMeshes@MeshFactory@Gu@physx@@QEBAIXZ 0000000180018530 f   GuMeshFactory.obj
 0001:00017570       ?getNbTriangleMeshes@MeshFactory@Gu@physx@@QEBAIXZ 0000000180018570 f   GuMeshFactory.obj
 0001:000175b0       ?getNeg@AABBTreeBuildNode@Gu@physx@@QEBAPEBV123@XZ 00000001800185b0 f i GuMeshFactory.obj
 0001:000175d0       ?getPrimitives@AABBTreeBuildNode@Gu@physx@@QEAAPEAIPEAI@Z 00000001800185d0 f i GuMeshFactory.obj
 0001:000175d0       ?getPrimitives@AABBTreeBuildNode@Gu@physx@@QEBAPEBIPEBI@Z 00000001800185d0 f i GuMeshFactory.obj
 0001:000175e0       ?getSoftBodyMeshes@MeshFactory@Gu@physx@@QEBAIPEAPEAVPxSoftBodyMesh@3@II@Z 00000001800185e0 f   GuMeshFactory.obj
 0001:00017680       ?getTetrahedronMeshes@MeshFactory@Gu@physx@@QEBAIPEAPEAVPxTetrahedronMesh@3@II@Z 0000000180018680 f   GuMeshFactory.obj
 0001:00017710       ?getTriangleMeshes@MeshFactory@Gu@physx@@QEBAIPEAPEAVPxTriangleMesh@3@II@Z 0000000180018710 f   GuMeshFactory.obj
 0001:000177a0       ?growAndPushBack@?$PxArray@PEAVMeshFactoryListener@Gu@physx@@V?$PxReflectionAllocator@PEAVMeshFactoryListener@Gu@physx@@@3@@physx@@IEAAAEAPEAVMeshFactoryListener@Gu@2@AEBQEAV342@@Z 00000001800187a0 f i GuMeshFactory.obj
 0001:000178c0       ?isLeaf@AABBTreeBuildNode@Gu@physx@@QEBA_NXZ 00000001800188c0 f i GuMeshFactory.obj
 0001:000192e0       ?moveFrom@AABBTreeBounds@Gu@physx@@QEAAXAEAV123@@Z 000000018001a2e0 f i GuMeshFactory.obj
 0001:000192f0       ?notifyFactoryListener@MeshFactory@Gu@physx@@QEAAXPEBVPxBase@3@G@Z 000000018001a2f0 f   GuMeshFactory.obj
 0001:00019360       ?ownsMemory@AABBTreeBounds@Gu@physx@@QEBA_NXZ 000000018001a360 f i GuMeshFactory.obj
 0001:00019640       ?recreate@?$PxArray@USlab@NodeAllocator@Gu@physx@@V?$PxReflectionAllocator@USlab@NodeAllocator@Gu@physx@@@4@@physx@@IEAAXI@Z 000000018001a640 f i GuMeshFactory.obj
 0001:000196f0       ?release@CollisionMeshMappingData@Gu@physx@@UEAAXXZ 000000018001a6f0 f i GuMeshFactory.obj
 0001:00019710       ?release@MeshFactory@Gu@physx@@QEAAXXZ 000000018001a710 f   GuMeshFactory.obj
 0001:00019810       ?remove@MeshFactory@Gu@physx@@QEAA_NAEAVPxBase@3@@Z 000000018001a810 f   GuMeshFactory.obj
 0001:00019910       ?removeBVH@MeshFactory@Gu@physx@@QEAA_NAEAVPxBVH@3@@Z 000000018001a910 f   GuMeshFactory.obj
 0001:00019960       ?removeConvexMesh@MeshFactory@Gu@physx@@QEAA_NAEAVPxConvexMesh@3@@Z 000000018001a960 f   GuMeshFactory.obj
 0001:000199b0       ?removeFactoryListener@MeshFactory@Gu@physx@@QEAAXAEAVMeshFactoryListener@23@@Z 000000018001a9b0 f   GuMeshFactory.obj
 0001:00019a40       ?removeHeightField@MeshFactory@Gu@physx@@QEAA_NAEAVPxHeightField@3@@Z 000000018001aa40 f   GuMeshFactory.obj
 0001:00019a90       ?removeSoftBodyMesh@MeshFactory@Gu@physx@@QEAA_NAEAVPxSoftBodyMesh@3@@Z 000000018001aa90 f   GuMeshFactory.obj
 0001:00019ae0       ?removeTetrahedronMesh@MeshFactory@Gu@physx@@QEAA_NAEAVPxTetrahedronMesh@3@@Z 000000018001aae0 f   GuMeshFactory.obj
 0001:00019b30       ?removeTriangleMesh@MeshFactory@Gu@physx@@QEAA_NAEAVPxTriangleMesh@3@@Z 000000018001ab30 f   GuMeshFactory.obj
 0001:00019b80       ?reserveInternal@?$PxHashBase@PEAVBVH@Gu@physx@@PEAV123@U?$PxHash@PEAVBVH@Gu@physx@@@3@UGetKey@?$PxHashSetBase@PEAVBVH@Gu@physx@@U?$PxHash@PEAVBVH@Gu@physx@@@3@VPxAllocator@3@$00@3@VPxAllocator@3@$00@physx@@AEAAXI@Z 000000018001ab80 f i GuMeshFactory.obj
 0001:00019b80       ?reserveInternal@?$PxHashBase@PEAVConvexMesh@Gu@physx@@PEAV123@U?$PxHash@PEAVConvexMesh@Gu@physx@@@3@UGetKey@?$PxHashSetBase@PEAVConvexMesh@Gu@physx@@U?$PxHash@PEAVConvexMesh@Gu@physx@@@3@VPxAllocator@3@$00@3@VPxAllocator@3@$00@physx@@AEAAXI@Z 000000018001ab80 f i GuMeshFactory.obj
 0001:00019b80       ?reserveInternal@?$PxHashBase@PEAVHeightField@Gu@physx@@PEAV123@U?$PxHash@PEAVHeightField@Gu@physx@@@3@UGetKey@?$PxHashSetBase@PEAVHeightField@Gu@physx@@U?$PxHash@PEAVHeightField@Gu@physx@@@3@VPxAllocator@3@$00@3@VPxAllocator@3@$00@physx@@AEAAXI@Z 000000018001ab80 f i GuMeshFactory.obj
 0001:00019b80       ?reserveInternal@?$PxHashBase@PEAVSoftBodyMesh@Gu@physx@@PEAV123@U?$PxHash@PEAVSoftBodyMesh@Gu@physx@@@3@UGetKey@?$PxHashSetBase@PEAVSoftBodyMesh@Gu@physx@@U?$PxHash@PEAVSoftBodyMesh@Gu@physx@@@3@VPxAllocator@3@$00@3@VPxAllocator@3@$00@physx@@AEAAXI@Z 000000018001ab80 f i GuMeshFactory.obj
 0001:00019b80       ?reserveInternal@?$PxHashBase@PEAVTetrahedronMesh@Gu@physx@@PEAV123@U?$PxHash@PEAVTetrahedronMesh@Gu@physx@@@3@UGetKey@?$PxHashSetBase@PEAVTetrahedronMesh@Gu@physx@@U?$PxHash@PEAVTetrahedronMesh@Gu@physx@@@3@VPxAllocator@3@$00@3@VPxAllocator@3@$00@physx@@AEAAXI@Z 000000018001ab80 f i GuMeshFactory.obj
 0001:00019b80       ?reserveInternal@?$PxHashBase@PEAVTriangleMesh@Gu@physx@@PEAV123@U?$PxHash@PEAVTriangleMesh@Gu@physx@@@3@UGetKey@?$PxHashSetBase@PEAVTriangleMesh@Gu@physx@@U?$PxHash@PEAVTriangleMesh@Gu@physx@@@3@VPxAllocator@3@$00@3@VPxAllocator@3@$00@physx@@AEAAXI@Z 000000018001ab80 f i GuMeshFactory.obj
 0001:00019d50       ?setBounds@AABBTreeBounds@Gu@physx@@QEAAXPEAVPxBounds3@3@@Z 000000018001ad50 f i GuMeshFactory.obj
 0001:00019d60       ?setNbRunTimePrimitives@AABBTreeBuildNode@Gu@physx@@QEAAXI@Z 000000018001ad60 f i GuMeshFactory.obj
 0001:00019d70       ?takeOwnership@AABBTreeBounds@Gu@physx@@QEAAXXZ 000000018001ad70 f i GuMeshFactory.obj
 0001:00019d80       getInsertionCallback       000000018001ad80 f   GuMeshFactory.obj
 0001:00019d90       ??4BigConvexData@physx@@QEAAAEAV01@AEBV01@@Z 000000018001ad90 f i GuMetaData.obj
 0001:00019db0       ?GetAdjacentVerts@BigConvexData@physx@@QEBAPEBEXZ 000000018001adb0 f i GuMetaData.obj
 0001:00019db0       ?getSoftBodyAuxData@SoftBodyMesh@Gu@physx@@UEAAPEAVPxSoftBodyAuxData@3@XZ 000000018001adb0 f i GuTetrahedronMesh.obj
 0001:00019db0       ?getSoftBodyAuxData@SoftBodyMesh@Gu@physx@@UEBAPEBVPxSoftBodyAuxData@3@XZ 000000018001adb0 f i GuTetrahedronMesh.obj
 0001:00019db0       ?getTransforms@PruningPool@Gu@physx@@QEAAPEAV?$PxTransformT@M@3@XZ 000000018001adb0 f i GuIncrementalAABBPrunerCore.obj
 0001:00019db0       ?getTransforms@PruningPool@Gu@physx@@QEBAPEBV?$PxTransformT@M@3@XZ 000000018001adb0 f i GuIncrementalAABBPrunerCore.obj
 0001:00019db0       ?getTriangles@TriangleMesh@Gu@physx@@UEBAPEBXXZ 000000018001adb0 f i GuTriangleMesh.obj
 0001:00019dc0       ?GetNbNeighbors@BigConvexData@physx@@QEBAGI@Z 000000018001adc0 f i GuMetaData.obj
 0001:00019dc0       ?GetValency@BigConvexData@physx@@QEBAGI@Z 000000018001adc0 f i GuMetaData.obj
 0001:00019dd0       ?GetNbSamples@BigConvexData@physx@@QEBAIXZ 000000018001add0 f i GuMetaData.obj
 0001:00019de0       ?GetNbVerts@BigConvexData@physx@@QEBAIXZ 000000018001ade0 f i GuMetaData.obj
 0001:00019de0       ?getNbVertices@TetrahedronMesh@Gu@physx@@UEBAIXZ 000000018001ade0 f i GuTetrahedronMesh.obj
 0001:00019de0       ?getNbVertices@TriangleMesh@Gu@physx@@UEBAIXZ 000000018001ade0 f i GuTriangleMesh.obj
 0001:00019de0       ?length@pcharNode@@UEBAHXZ 000000018001ade0 f i libvcruntime:undname.obj
 0001:00019de0       ?raw_length@pcharNode@@UEBAHXZ 000000018001ade0 f i libvcruntime:undname.obj
 0001:00019df0       ?GetNeighbors@BigConvexData@physx@@QEBAPEBEI@Z 000000018001adf0 f i GuMetaData.obj
 0001:00019e00       ?GetOffset@BigConvexData@physx@@QEBAGI@Z 000000018001ae00 f i GuMetaData.obj
 0001:00019e10       ?GetSubdiv@BigConvexData@physx@@QEBAIXZ 000000018001ae10 f i GuMetaData.obj
 0001:00019e20       ?getBinaryMetaData@BV4Tree@Gu@physx@@SAXAEAVPxOutputStream@3@@Z 000000018001ae20 f   GuMetaData.obj
 0001:0001a3c0       ?getBinaryMetaData@BV4TriangleMesh@Gu@physx@@SAXAEAVPxOutputStream@3@@Z 000000018001b3c0 f   GuMetaData.obj
 0001:0001a740       ?getBinaryMetaData@BigConvexData@physx@@SAXAEAVPxOutputStream@2@@Z 000000018001b740 f   GuMetaData.obj
 0001:0001aa00       ?getBinaryMetaData@ConvexMesh@Gu@physx@@SAXAEAVPxOutputStream@3@@Z 000000018001ba00 f   GuMetaData.obj
 0001:0001b0a0       ?getBinaryMetaData@HeightField@Gu@physx@@SAXAEAVPxOutputStream@3@@Z 000000018001c0a0 f   GuMetaData.obj
 0001:0001b490       ?getBinaryMetaData@RTree@Gu@physx@@SAXAEAVPxOutputStream@3@@Z 000000018001c490 f   GuMetaData.obj
 0001:0001b7c0       ?getBinaryMetaData@RTreeTriangleMesh@Gu@physx@@SAXAEAVPxOutputStream@3@@Z 000000018001c7c0 f   GuMetaData.obj
 0001:0001b8a0       ?getBinaryMetaData@SDF@Gu@physx@@SAXAEAVPxOutputStream@3@@Z 000000018001c8a0 f   GuMetaData.obj
 0001:0001bd80       ?getBinaryMetaData@TriangleMesh@Gu@physx@@SAXAEAVPxOutputStream@3@@Z 000000018001cd80 f   GuMetaData.obj
 0001:0001d430       ?doSupport@?$SupportLocalImpl@VConvexHullNoScaleV@Gu@physx@@@Gu@physx@@UEBA?AT__m128@@AEBT4@@Z 000000018001e430 f i GuMTD.obj
 0001:0001d480       ?doSupport@?$SupportLocalImpl@VConvexHullNoScaleV@Gu@physx@@@Gu@physx@@UEBAXAEBT__m128@@AEAT4@1@Z 000000018001e480 f i GuMTD.obj
 0001:0001d600       ?populateVerts@?$SupportLocalImpl@VConvexHullNoScaleV@Gu@physx@@@Gu@physx@@UEBAXPEBEIPEBV?$PxVec3T@M@3@PEAT__m128@@@Z 000000018001e600 f i GuMTD.obj
 0001:0001d640       ?getInternalData@TriangleMesh@Gu@physx@@UEBA_NAEAUPxTriangleMeshInternalData@3@_N@Z 000000018001e640 f   GuTriangleMesh.obj
 0001:0001d640       ?isDynamic@Pruner@Gu@physx@@UEBA_NXZ 000000018001e640 f   GuIncrementalAABBPruner.obj
 0001:0001f480       ??$gjk@U?$LocalConvex@VCapsuleV@Gu@physx@@@Gu@physx@@U?$LocalConvex@VConvexHullV@Gu@physx@@@23@@Gu@physx@@YA?AW4GjkStatus@01@AEBU?$LocalConvex@VCapsuleV@Gu@physx@@@01@AEBU?$LocalConvex@VConvexHullV@Gu@physx@@@01@AEBT__m128@@2AEAT5@333@Z 0000000180020480 f i GuMTD.obj
 0001:000201e0       ??0SeparatingAxes@Gu@physx@@QEAA@$$QEAV012@@Z 00000001800211e0 f i GuMTD.obj
 0001:000201e0       ??0SeparatingAxes@Gu@physx@@QEAA@AEBV012@@Z 00000001800211e0 f i GuMTD.obj
 0001:000202f0       ??0SeparatingAxes@Gu@physx@@QEAA@XZ 00000001800212f0 f i GuMTD.obj
 0001:00020300       ??4SeparatingAxes@Gu@physx@@QEAAAEAV012@$$QEAV012@@Z 0000000180021300 f i GuMTD.obj
 0001:00020300       ??4SeparatingAxes@Gu@physx@@QEAAAEAV012@AEBV012@@Z 0000000180021300 f i GuMTD.obj
 0001:00020410       ??_E?$LocalConvex@UCustomConvexV@@@Gu@physx@@UEAAPEAXI@Z 0000000180021410 f i GuGjkQuery.obj
 0001:00020410       ??_E?$LocalConvex@UPointConvexV@@@Gu@physx@@UEAAPEAXI@Z 0000000180021410 f i GuGjkQuery.obj
 0001:00020410       ??_E?$LocalConvex@VBoxV@Gu@physx@@@Gu@physx@@UEAAPEAXI@Z 0000000180021410 f i GuSweepTests.obj
 0001:00020410       ??_E?$LocalConvex@VCapsuleV@Gu@physx@@@Gu@physx@@UEAAPEAXI@Z 0000000180021410 f i GuMTD.obj
 0001:00020410       ??_E?$LocalConvex@VConvexHullNoScaleV@Gu@physx@@@Gu@physx@@UEAAPEAXI@Z 0000000180021410 f i GuPCMContactBoxConvex.obj
 0001:00020410       ??_E?$LocalConvex@VConvexHullV@Gu@physx@@@Gu@physx@@UEAAPEAXI@Z 0000000180021410 f i GuMTD.obj
 0001:00020410       ??_E?$LocalConvex@VTetrahedronV@Gu@physx@@@Gu@physx@@UEAAPEAXI@Z 0000000180021410 f i GuCookingTetrahedronMesh.obj
 0001:00020410       ??_E?$LocalConvex@VTriangleV@Gu@physx@@@Gu@physx@@UEAAPEAXI@Z 0000000180021410 f i GuSweepTests.obj
 0001:00020410       ??_EGjkConvex@Gu@physx@@UEAAPEAXI@Z 0000000180021410 f i GuMTD.obj
 0001:00020410       ??_G?$LocalConvex@UCustomConvexV@@@Gu@physx@@UEAAPEAXI@Z 0000000180021410 f i GuGjkQuery.obj
 0001:00020410       ??_G?$LocalConvex@UPointConvexV@@@Gu@physx@@UEAAPEAXI@Z 0000000180021410 f i GuGjkQuery.obj
 0001:00020410       ??_G?$LocalConvex@VBoxV@Gu@physx@@@Gu@physx@@UEAAPEAXI@Z 0000000180021410 f i GuSweepTests.obj
 0001:00020410       ??_G?$LocalConvex@VCapsuleV@Gu@physx@@@Gu@physx@@UEAAPEAXI@Z 0000000180021410 f i GuMTD.obj
 0001:00020410       ??_G?$LocalConvex@VConvexHullNoScaleV@Gu@physx@@@Gu@physx@@UEAAPEAXI@Z 0000000180021410 f i GuPCMContactBoxConvex.obj
 0001:00020410       ??_G?$LocalConvex@VConvexHullV@Gu@physx@@@Gu@physx@@UEAAPEAXI@Z 0000000180021410 f i GuMTD.obj
 0001:00020410       ??_G?$LocalConvex@VTetrahedronV@Gu@physx@@@Gu@physx@@UEAAPEAXI@Z 0000000180021410 f i GuCookingTetrahedronMesh.obj
 0001:00020410       ??_G?$LocalConvex@VTriangleV@Gu@physx@@@Gu@physx@@UEAAPEAXI@Z 0000000180021410 f i GuSweepTests.obj
 0001:00020410       ??_GGjkConvex@Gu@physx@@UEAAPEAXI@Z 0000000180021410 f i GuMTD.obj
 0001:00024590       ?getAxes@SeparatingAxes@Gu@physx@@QEBAPEBV?$PxVec3T@M@3@XZ 0000000180025590 f i GuMTD.obj
 0001:000245a0       ?getCenter@?$LocalConvex@UCustomConvexV@@@Gu@physx@@UEBA?AT__m128@@XZ 00000001800255a0 f i GuGjkQuery.obj
 0001:000245a0       ?getCenter@?$LocalConvex@UPointConvexV@@@Gu@physx@@UEBA?AT__m128@@XZ 00000001800255a0 f i GuGjkQuery.obj
 0001:000245a0       ?getCenter@?$LocalConvex@VBoxV@Gu@physx@@@Gu@physx@@UEBA?AT__m128@@XZ 00000001800255a0 f i GuSweepTests.obj
 0001:000245a0       ?getCenter@?$LocalConvex@VCapsuleV@Gu@physx@@@Gu@physx@@UEBA?AT__m128@@XZ 00000001800255a0 f i GuMTD.obj
 0001:000245a0       ?getCenter@?$LocalConvex@VConvexHullNoScaleV@Gu@physx@@@Gu@physx@@UEBA?AT__m128@@XZ 00000001800255a0 f i GuPCMContactBoxConvex.obj
 0001:000245a0       ?getCenter@?$LocalConvex@VConvexHullV@Gu@physx@@@Gu@physx@@UEBA?AT__m128@@XZ 00000001800255a0 f i GuMTD.obj
 0001:000245a0       ?getCenter@?$LocalConvex@VTetrahedronV@Gu@physx@@@Gu@physx@@UEBA?AT__m128@@XZ 00000001800255a0 f i GuCookingTetrahedronMesh.obj
 0001:000245a0       ?getCenter@?$LocalConvex@VTriangleV@Gu@physx@@@Gu@physx@@UEBA?AT__m128@@XZ 00000001800255a0 f i GuSweepTests.obj
 0001:000245b0       ?getCount@BuildStats@Gu@physx@@QEBAIXZ 00000001800255b0 f i GuBV4Build.obj
 0001:000245b0       ?getNbActiveObjects@PruningPool@Gu@physx@@QEBAIXZ 00000001800255b0 f i GuIncrementalAABBPrunerCore.obj
 0001:000245b0       ?getNumAxes@SeparatingAxes@Gu@physx@@QEBAIXZ 00000001800255b0 f i GuMTD.obj
 0001:000245c0       ?getSweepMargin@?$LocalConvex@VCapsuleV@Gu@physx@@@Gu@physx@@UEBA?AT__m128@@XZ 00000001800255c0 f i GuMTD.obj
 0001:000245c0       ?getSweepMargin@?$RelativeConvex@VCapsuleV@Gu@physx@@@Gu@physx@@UEBA?AT__m128@@XZ 00000001800255c0 f i GuCCDSweepPrimitives.obj
 0001:000245d0       ?getSweepMargin@?$LocalConvex@UCustomConvexV@@@Gu@physx@@UEBA?AT__m128@@XZ 00000001800255d0 f i GuGjkQuery.obj
 0001:000245d0       ?getSweepMargin@?$LocalConvex@UPointConvexV@@@Gu@physx@@UEBA?AT__m128@@XZ 00000001800255d0 f i GuGjkQuery.obj
 0001:000245d0       ?getSweepMargin@?$LocalConvex@VBoxV@Gu@physx@@@Gu@physx@@UEBA?AT__m128@@XZ 00000001800255d0 f i GuSweepTests.obj
 0001:000245d0       ?getSweepMargin@?$LocalConvex@VConvexHullNoScaleV@Gu@physx@@@Gu@physx@@UEBA?AT__m128@@XZ 00000001800255d0 f i GuPCMContactBoxConvex.obj
 0001:000245d0       ?getSweepMargin@?$LocalConvex@VConvexHullV@Gu@physx@@@Gu@physx@@UEBA?AT__m128@@XZ 00000001800255d0 f i GuMTD.obj
 0001:000245d0       ?getSweepMargin@?$RelativeConvex@UCustomConvexV@@@Gu@physx@@UEBA?AT__m128@@XZ 00000001800255d0 f i GuGjkQuery.obj
 0001:000245d0       ?getSweepMargin@?$RelativeConvex@VBoxV@Gu@physx@@@Gu@physx@@UEBA?AT__m128@@XZ 00000001800255d0 f i GuOverlapTests.obj
 0001:000245d0       ?getSweepMargin@?$RelativeConvex@VConvexHullNoScaleV@Gu@physx@@@Gu@physx@@UEBA?AT__m128@@XZ 00000001800255d0 f i GuPCMContactConvexConvex.obj
 0001:000245d0       ?getSweepMargin@?$RelativeConvex@VConvexHullV@Gu@physx@@@Gu@physx@@UEBA?AT__m128@@XZ 00000001800255d0 f i GuOverlapTests.obj
 0001:000245f0       ?getSweepMargin@GjkConvex@Gu@physx@@UEBA?AT__m128@@XZ 00000001800255f0 f i GuMTD.obj
 0001:00024610       ?pointConvexDistance@@YA_NAEAV?$PxVec3T@M@physx@@0AEAMAEBV12@PEBVConvexMesh@Gu@2@AEBVPxMeshScale@2@AEBUPxTransformPadded@2@@Z 0000000180025610 f   GuMTD.obj
 0001:00025370       ?reset@SeparatingAxes@Gu@physx@@QEAAXXZ 0000000180026370 f i GuMTD.obj
 0001:00025380       ?support@?$LocalConvex@VCapsuleV@Gu@physx@@@Gu@physx@@UEBA?AT__m128@@AEBT4@@Z 0000000180026380 f i GuMTD.obj
 0001:000253e0       ?support@?$LocalConvex@VCapsuleV@Gu@physx@@@Gu@physx@@UEBA?AT__m128@@AEBT4@AEAH@Z 00000001800263e0 f i GuMTD.obj
 0001:00025450       ?support@?$LocalConvex@VConvexHullV@Gu@physx@@@Gu@physx@@UEBA?AT__m128@@AEBT4@@Z 0000000180026450 f i GuMTD.obj
 0001:00025530       ?support@?$LocalConvex@VConvexHullV@Gu@physx@@@Gu@physx@@UEBA?AT__m128@@AEBT4@AEAH@Z 0000000180026530 f i GuMTD.obj
 0001:00025600       ?support@GjkConvex@Gu@physx@@UEBA?AT__m128@@AEBT4@@Z 0000000180026600 f i GuMTD.obj
 0001:00025620       ?support@GjkConvex@Gu@physx@@UEBA?AT__m128@@AEBT4@AEAH@Z 0000000180026620 f i GuMTD.obj
 0001:00025640       ?supportPoint@?$LocalConvex@VCapsuleV@Gu@physx@@@Gu@physx@@UEBA?AT__m128@@H@Z 0000000180026640 f i GuMTD.obj
 0001:00025670       ?supportPoint@?$LocalConvex@VConvexHullV@Gu@physx@@@Gu@physx@@UEBA?AT__m128@@H@Z 0000000180026670 f i GuMTD.obj
 0001:000256c0       ?supportPoint@GjkConvex@Gu@physx@@UEBA?AT__m128@@H@Z 00000001800266c0 f i GuMTD.obj
 0001:000256e0       ?supportPoint@?$RelativeConvex@VBoxV@Gu@physx@@@Gu@physx@@UEBA?AT__m128@@H@Z 00000001800266e0 f i GuOverlapTests.obj
 0001:00025750       ?support@?$RelativeConvex@VBoxV@Gu@physx@@@Gu@physx@@UEBA?AT__m128@@AEBT4@@Z 0000000180026750 f i GuOverlapTests.obj
 0001:000257d0       ?support@?$RelativeConvex@VBoxV@Gu@physx@@@Gu@physx@@UEBA?AT__m128@@AEBT4@AEAH@Z 00000001800267d0 f i GuOverlapTests.obj
 0001:00025860       ?getCenter@?$RelativeConvex@UCustomConvexV@@@Gu@physx@@UEBA?AT__m128@@XZ 0000000180026860 f i GuGjkQuery.obj
 0001:00025860       ?getCenter@?$RelativeConvex@VBoxV@Gu@physx@@@Gu@physx@@UEBA?AT__m128@@XZ 0000000180026860 f i GuOverlapTests.obj
 0001:00025860       ?getCenter@?$RelativeConvex@VCapsuleV@Gu@physx@@@Gu@physx@@UEBA?AT__m128@@XZ 0000000180026860 f i GuCCDSweepPrimitives.obj
 0001:00025860       ?getCenter@?$RelativeConvex@VConvexHullNoScaleV@Gu@physx@@@Gu@physx@@UEBA?AT__m128@@XZ 0000000180026860 f i GuPCMContactConvexConvex.obj
 0001:00025860       ?getCenter@?$RelativeConvex@VConvexHullV@Gu@physx@@@Gu@physx@@UEBA?AT__m128@@XZ 0000000180026860 f i GuOverlapTests.obj
 0001:00025860       ?getCenter@?$RelativeConvex@VTriangleV@Gu@physx@@@Gu@physx@@UEBA?AT__m128@@XZ 0000000180026860 f i GuCCDSweepPrimitives.obj
 0001:000258a0       ??_E?$RelativeConvex@UCustomConvexV@@@Gu@physx@@UEAAPEAXI@Z 00000001800268a0 f i GuGjkQuery.obj
 0001:000258a0       ??_E?$RelativeConvex@VBoxV@Gu@physx@@@Gu@physx@@UEAAPEAXI@Z 00000001800268a0 f i GuOverlapTests.obj
 0001:000258a0       ??_E?$RelativeConvex@VCapsuleV@Gu@physx@@@Gu@physx@@UEAAPEAXI@Z 00000001800268a0 f i GuCCDSweepPrimitives.obj
 0001:000258a0       ??_E?$RelativeConvex@VConvexHullNoScaleV@Gu@physx@@@Gu@physx@@UEAAPEAXI@Z 00000001800268a0 f i GuPCMContactConvexConvex.obj
 0001:000258a0       ??_E?$RelativeConvex@VConvexHullV@Gu@physx@@@Gu@physx@@UEAAPEAXI@Z 00000001800268a0 f i GuOverlapTests.obj
 0001:000258a0       ??_E?$RelativeConvex@VTriangleV@Gu@physx@@@Gu@physx@@UEAAPEAXI@Z 00000001800268a0 f i GuCCDSweepPrimitives.obj
 0001:000258a0       ??_G?$RelativeConvex@UCustomConvexV@@@Gu@physx@@UEAAPEAXI@Z 00000001800268a0 f i GuGjkQuery.obj
 0001:000258a0       ??_G?$RelativeConvex@VBoxV@Gu@physx@@@Gu@physx@@UEAAPEAXI@Z 00000001800268a0 f i GuOverlapTests.obj
 0001:000258a0       ??_G?$RelativeConvex@VCapsuleV@Gu@physx@@@Gu@physx@@UEAAPEAXI@Z 00000001800268a0 f i GuCCDSweepPrimitives.obj
 0001:000258a0       ??_G?$RelativeConvex@VConvexHullNoScaleV@Gu@physx@@@Gu@physx@@UEAAPEAXI@Z 00000001800268a0 f i GuPCMContactConvexConvex.obj
 0001:000258a0       ??_G?$RelativeConvex@VConvexHullV@Gu@physx@@@Gu@physx@@UEAAPEAXI@Z 00000001800268a0 f i GuOverlapTests.obj
 0001:000258a0       ??_G?$RelativeConvex@VTriangleV@Gu@physx@@@Gu@physx@@UEAAPEAXI@Z 00000001800268a0 f i GuCCDSweepPrimitives.obj
 0001:00027a20       ?supportPoint@?$RelativeConvex@VConvexHullV@Gu@physx@@@Gu@physx@@UEBA?AT__m128@@H@Z 0000000180028a20 f i GuOverlapTests.obj
 0001:00027aa0       ?support@?$RelativeConvex@VConvexHullV@Gu@physx@@@Gu@physx@@UEBA?AT__m128@@AEBT4@@Z 0000000180028aa0 f i GuOverlapTests.obj
 0001:00027bd0       ?support@?$RelativeConvex@VConvexHullV@Gu@physx@@@Gu@physx@@UEBA?AT__m128@@AEBT4@AEAH@Z 0000000180028bd0 f i GuOverlapTests.obj
 0001:00027d60       ??$gjk@U?$RelativeConvex@VBoxV@Gu@physx@@@Gu@physx@@U?$LocalConvex@VConvexHullV@Gu@physx@@@23@@Gu@physx@@YA?AW4GjkStatus@01@AEBU?$RelativeConvex@VBoxV@Gu@physx@@@01@AEBU?$LocalConvex@VConvexHullV@Gu@physx@@@01@AEBT__m128@@2AEAT5@333@Z 0000000180028d60 f i GuOverlapTests.obj
 0001:00028b10       ??$gjk@U?$RelativeConvex@VConvexHullV@Gu@physx@@@Gu@physx@@U?$LocalConvex@VConvexHullV@Gu@physx@@@23@@Gu@physx@@YA?AW4GjkStatus@01@AEBU?$RelativeConvex@VConvexHullV@Gu@physx@@@01@AEBU?$LocalConvex@VConvexHullV@Gu@physx@@@01@AEBT__m128@@2AEAT5@333@Z 0000000180029b10 f i GuOverlapTests.obj
 0001:00029990       ?ComputeCubemapNearestOffset@physx@@YAIAEBV?$PxVec3T@M@1@I@Z 000000018002a990 f i GuOverlapTests.obj
 0001:00029a90       ?getOverlapFuncTable@Gu@physx@@YAPEAY0L@Q6A_NAEBVPxGeometry@2@AEBV?$PxTransformT@M@2@01PEAUTriggerCache@12@PEAUPxQueryThreadContext@2@@ZXZ 000000018002aa90 f   GuOverlapTests.obj
 0001:0002b650       ?raycast_box@@YAIAEBVPxGeometry@physx@@AEBV?$PxTransformT@M@2@AEBV?$PxVec3T@M@2@2MV?$PxFlags@W4Enum@PxHitFlag@physx@@G@2@IPEIAUPxGeomRaycastHit@2@IPEAUPxQueryThreadContext@2@@Z 000000018002c650 f   GuRaycastTests.obj
 0001:0002bc80       ?raycast_sphere@@YAIAEBVPxGeometry@physx@@AEBV?$PxTransformT@M@2@AEBV?$PxVec3T@M@2@2MV?$PxFlags@W4Enum@PxHitFlag@physx@@G@2@IPEIAUPxGeomRaycastHit@2@IPEAUPxQueryThreadContext@2@@Z 000000018002cc80 f   GuRaycastTests.obj
 0001:0002be10       ?raycast_capsule@@YAIAEBVPxGeometry@physx@@AEBV?$PxTransformT@M@2@AEBV?$PxVec3T@M@2@2MV?$PxFlags@W4Enum@PxHitFlag@physx@@G@2@IPEIAUPxGeomRaycastHit@2@IPEAUPxQueryThreadContext@2@@Z 000000018002ce10 f   GuRaycastTests.obj
 0001:0002c370       ?raycast_plane@@YAIAEBVPxGeometry@physx@@AEBV?$PxTransformT@M@2@AEBV?$PxVec3T@M@2@2MV?$PxFlags@W4Enum@PxHitFlag@physx@@G@2@IPEIAUPxGeomRaycastHit@2@IPEAUPxQueryThreadContext@2@@Z 000000018002d370 f   GuRaycastTests.obj
 0001:0002c4e0       ?raycast_convexMesh@@YAIAEBVPxGeometry@physx@@AEBV?$PxTransformT@M@2@AEBV?$PxVec3T@M@2@2MV?$PxFlags@W4Enum@PxHitFlag@physx@@G@2@IPEIAUPxGeomRaycastHit@2@IPEAUPxQueryThreadContext@2@@Z 000000018002d4e0 f   GuRaycastTests.obj
 0001:0002cfe0       ?getMidphaseID@RTreeTriangleMesh@Gu@physx@@UEBA?AW4Enum@PxMeshMidPhase@3@XZ 000000018002dfe0 f   GuTriangleMeshRTree.obj
 0001:0002cfe0       ?getMidphaseID@RTreeTriangleMeshBuilder@physx@@UEBA?AW4Enum@PxMeshMidPhase@2@XZ 000000018002dfe0 f   GuCookingTriangleMesh.obj
 0001:0002cfe0       ?getTetrahedraRemap@TetrahedronMesh@Gu@physx@@UEBAPEBIXZ 000000018002dfe0 f   GuTetrahedronMesh.obj
 0001:0002cfe0       ?raycast_hairsystem@@YAIAEBVPxGeometry@physx@@AEBV?$PxTransformT@M@2@AEBV?$PxVec3T@M@2@2MV?$PxFlags@W4Enum@PxHitFlag@physx@@G@2@IPEIAUPxGeomRaycastHit@2@IPEAUPxQueryThreadContext@2@@Z 000000018002dfe0 f   GuRaycastTests.obj
 0001:0002cfe0       ?raycast_particlesystem@@YAIAEBVPxGeometry@physx@@AEBV?$PxTransformT@M@2@AEBV?$PxVec3T@M@2@2MV?$PxFlags@W4Enum@PxHitFlag@physx@@G@2@IPEIAUPxGeomRaycastHit@2@IPEAUPxQueryThreadContext@2@@Z 000000018002dfe0 f   GuRaycastTests.obj
 0001:0002cfe0       ?raycast_softbody@@YAIAEBVPxGeometry@physx@@AEBV?$PxTransformT@M@2@AEBV?$PxVec3T@M@2@2MV?$PxFlags@W4Enum@PxHitFlag@physx@@G@2@IPEIAUPxGeomRaycastHit@2@IPEAUPxQueryThreadContext@2@@Z 000000018002dfe0 f   GuRaycastTests.obj
 0001:0002cff0       ?raycast_triangleMesh@@YAIAEBVPxGeometry@physx@@AEBV?$PxTransformT@M@2@AEBV?$PxVec3T@M@2@2MV?$PxFlags@W4Enum@PxHitFlag@physx@@G@2@IPEIAUPxGeomRaycastHit@2@IPEAUPxQueryThreadContext@2@@Z 000000018002dff0 f   GuRaycastTests.obj
 0001:0002d080       ?raycast_heightField@@YAIAEBVPxGeometry@physx@@AEBV?$PxTransformT@M@2@AEBV?$PxVec3T@M@2@2MV?$PxFlags@W4Enum@PxHitFlag@physx@@G@2@IPEIAUPxGeomRaycastHit@2@IPEAUPxQueryThreadContext@2@@Z 000000018002e080 f   GuRaycastTests.obj
 0001:0002ead0       ??Dphysx@@YA?AV?$PxMat34T@M@0@AEBVPxMeshScale@0@AEBV?$PxTransformT@M@0@@Z 000000018002fad0 f i GuRaycastTests.obj
 0001:0002f5c0       ?getRaycastFuncTable@Gu@physx@@YAAEAY0L@Q6AIAEBVPxGeometry@2@AEBV?$PxTransformT@M@2@AEBV?$PxVec3T@M@2@2MV?$PxFlags@W4Enum@PxHitFlag@physx@@G@2@IPEIAUPxGeomRaycastHit@2@IPEAUPxQueryThreadContext@2@@ZXZ 00000001800305c0 f   GuRaycastTests.obj
 0001:0002f5d0       ??Dphysx@@YA?AV?$PxMat34T@M@0@AEBV?$PxTransformT@M@0@AEBVPxMeshScale@0@@Z 00000001800305d0 f i GuSweepMTD.obj
 0001:0002fb20       ??_E?$MeshHitCallback@UPxGeomRaycastHit@physx@@@Gu@physx@@UEAAPEAXI@Z 0000000180030b20 f i GuSweepMTD.obj
 0001:0002fb20       ??_G?$MeshHitCallback@UPxGeomRaycastHit@physx@@@Gu@physx@@UEAAPEAXI@Z 0000000180030b20 f i GuSweepMTD.obj
 0001:0002fb50       ??_EMeshMTDGenerationCallback@@UEAAPEAXI@Z 0000000180030b50 f i GuSweepMTD.obj
 0001:0002fb50       ??_GMeshMTDGenerationCallback@@UEAAPEAXI@Z 0000000180030b50 f i GuSweepMTD.obj
 0001:0002fb80       ??_EMidPhaseQueryLocalReport@@UEAAPEAXI@Z 0000000180030b80 f i GuSweepMTD.obj
 0001:0002fb80       ??_ERTreeCookerRemap@@UEAAPEAXI@Z 0000000180030b80 f i GuCookingTriangleMesh.obj
 0001:0002fb80       ??_GMidPhaseQueryLocalReport@@UEAAPEAXI@Z 0000000180030b80 f i GuSweepMTD.obj
 0001:0002fb80       ??_GRTreeCookerRemap@@UEAAPEAXI@Z 0000000180030b80 f i GuCookingTriangleMesh.obj
 0001:0002fbb0       ?allocate@?$PxArray@IV?$PxReflectionAllocator@I@physx@@@physx@@IEAAPEAII@Z 0000000180030bb0 f i GuSweepMTD.obj
 0001:0002fc40       ?computeBox_HeightFieldMTD@Gu@physx@@YA_NAEBVPxHeightFieldGeometry@2@AEBV?$PxTransformT@M@2@AEBVBox@12@1M_NAEAUPxGeomSweepHit@2@@Z 0000000180030c40 f   GuSweepMTD.obj
 0001:00030a10       ?computeBox_TriangleMeshMTD@Gu@physx@@YA_NAEBVPxTriangleMeshGeometry@2@AEBV?$PxTransformT@M@2@AEBVBox@12@1M_NAEAUPxGeomSweepHit@2@@Z 0000000180031a10 f   GuSweepMTD.obj
 0001:00031a80       ?computeCapsule_CapsuleMTD@Gu@physx@@YA_NAEBVCapsule@12@0AEAUPxGeomSweepHit@2@@Z 0000000180032a80 f   GuSweepMTD.obj
 0001:00031cc0       ?computeCapsule_HeightFieldMTD@Gu@physx@@YA_NAEBVPxHeightFieldGeometry@2@AEBV?$PxTransformT@M@2@AEAVCapsuleV@12@M_NAEAUPxGeomSweepHit@2@@Z 0000000180032cc0 f   GuSweepMTD.obj
 0001:00032490       ?computeCapsule_TriangleMeshMTD@Gu@physx@@YA_NAEBVPxTriangleMeshGeometry@2@AEBV?$PxTransformT@M@2@AEAVCapsuleV@12@M_NAEAUPxGeomSweepHit@2@@Z 0000000180033490 f   GuSweepMTD.obj
 0001:00032d40       ?computeConvex_HeightFieldMTD@Gu@physx@@YA_NAEBVPxHeightFieldGeometry@2@AEBV?$PxTransformT@M@2@AEBVPxConvexMeshGeometry@2@1M_NAEAUPxGeomSweepHit@2@@Z 0000000180033d40 f   GuSweepMTD.obj
 0001:00034010       ?computeConvex_TriangleMeshMTD@Gu@physx@@YA_NAEBVPxTriangleMeshGeometry@2@AEBV?$PxTransformT@M@2@AEBVPxConvexMeshGeometry@2@1M_NAEAUPxGeomSweepHit@2@@Z 0000000180035010 f   GuSweepMTD.obj
 0001:00035630       ?computePlane_BoxMTD@Gu@physx@@YA_NAEBVPxPlane@2@AEBVBox@12@AEAUPxGeomSweepHit@2@@Z 0000000180036630 f   GuSweepMTD.obj
 0001:000358d0       ?computePlane_CapsuleMTD@Gu@physx@@YA_NAEBVPxPlane@2@AEBVCapsule@12@AEAUPxGeomSweepHit@2@@Z 00000001800368d0 f   GuSweepMTD.obj
 0001:000359e0       ?computePlane_ConvexMTD@Gu@physx@@YA_NAEBVPxPlane@2@AEBVPxConvexMeshGeometry@2@AEBV?$PxTransformT@M@2@AEAUPxGeomSweepHit@2@@Z 00000001800369e0 f   GuSweepMTD.obj
 0001:000365a0       ?computeSphere_CapsuleMTD@Gu@physx@@YA_NAEBVSphere@12@AEBVCapsule@12@AEAUPxGeomSweepHit@2@@Z 00000001800375a0 f   GuSweepMTD.obj
 0001:00036750       ?computeSphere_SphereMTD@Gu@physx@@YA_NAEBVSphere@12@0AEAUPxGeomSweepHit@2@@Z 0000000180037750 f   GuSweepMTD.obj
 0001:00036840       ?getInverse@?$PxMat33T@M@physx@@QEBA?BV12@XZ 0000000180037840 f i GuSweepMTD.obj
 0001:00036a90       ?growAndPushBack@?$PxArray@IV?$PxReflectionAllocator@I@physx@@@physx@@IEAAAEAIAEBI@Z 0000000180037a90 f i GuSweepMTD.obj
 0001:00036b50       ?init@FastVertex2ShapeScaling@Cm@physx@@QEAAXAEBV?$PxVec3T@M@3@AEBV?$PxQuatT@M@3@@Z 0000000180037b50 f i GuSweepMTD.obj
 0001:00037460       ?processHit@MeshMTDGenerationCallback@@UEAA_NAEBUPxGeomRaycastHit@physx@@AEBV?$PxVec3T@M@3@11AEAMPEBI@Z 0000000180038460 f i GuSweepMTD.obj
 0001:000374b0       ?recreate@?$PxArray@IV?$PxReflectionAllocator@I@physx@@@physx@@IEAAXI@Z 00000001800384b0 f i GuSweepMTD.obj
 0001:00037550       ?reportTouchedTris@MidPhaseQueryLocalReport@@UEAA_NIPEBI@Z 0000000180038550 f i GuSweepMTD.obj
 0001:000375c0       ??$gjkPenetration@U?$LocalConvex@VCapsuleV@Gu@physx@@@Gu@physx@@U?$LocalConvex@VConvexHullV@Gu@physx@@@23@@Gu@physx@@YA?AW4GjkStatus@01@AEBU?$LocalConvex@VCapsuleV@Gu@physx@@@01@AEBU?$LocalConvex@VConvexHullV@Gu@physx@@@01@AEBT__m128@@2_NPEIAE4AEAEAEAUGjkOutput@01@@Z 00000001800385c0 f i GuSweepSharedTests.obj
 0001:00037630       ??$gjkPenetration@U?$LocalConvex@VCapsuleV@Gu@physx@@@Gu@physx@@U?$LocalConvex@VConvexHullV@Gu@physx@@@23@@Gu@physx@@YA?AW4GjkStatus@01@AEBU?$LocalConvex@VCapsuleV@Gu@physx@@@01@AEBU?$LocalConvex@VConvexHullV@Gu@physx@@@01@AEBT__m128@@2_NPEIAE4PEIAT5@5AEAEAEAUGjkOutput@01@@Z 0000000180038630 f i GuSweepSharedTests.obj
 0001:00038b60       ??$gjkPenetration@U?$RelativeConvex@VBoxV@Gu@physx@@@Gu@physx@@U?$LocalConvex@VConvexHullV@Gu@physx@@@23@@Gu@physx@@YA?AW4GjkStatus@01@AEBU?$RelativeConvex@VBoxV@Gu@physx@@@01@AEBU?$LocalConvex@VConvexHullV@Gu@physx@@@01@AEBT__m128@@2_NPEIAE4AEAEAEAUGjkOutput@01@@Z 0000000180039b60 f i GuSweepSharedTests.obj
 0001:00038bd0       ??$gjkPenetration@U?$RelativeConvex@VBoxV@Gu@physx@@@Gu@physx@@U?$LocalConvex@VConvexHullV@Gu@physx@@@23@@Gu@physx@@YA?AW4GjkStatus@01@AEBU?$RelativeConvex@VBoxV@Gu@physx@@@01@AEBU?$LocalConvex@VConvexHullV@Gu@physx@@@01@AEBT__m128@@2_NPEIAE4PEIAT5@5AEAEAEAUGjkOutput@01@@Z 0000000180039bd0 f i GuSweepSharedTests.obj
 0001:0003a150       ??$gjkPenetration@U?$RelativeConvex@VConvexHullV@Gu@physx@@@Gu@physx@@U?$LocalConvex@VConvexHullV@Gu@physx@@@23@@Gu@physx@@YA?AW4GjkStatus@01@AEBU?$RelativeConvex@VConvexHullV@Gu@physx@@@01@AEBU?$LocalConvex@VConvexHullV@Gu@physx@@@01@AEBT__m128@@2_NPEIAE4AEAEAEAUGjkOutput@01@@Z 000000018003b150 f i GuSweepSharedTests.obj
 0001:0003a1c0       ??$gjkPenetration@U?$RelativeConvex@VConvexHullV@Gu@physx@@@Gu@physx@@U?$LocalConvex@VConvexHullV@Gu@physx@@@23@@Gu@physx@@YA?AW4GjkStatus@01@AEBU?$RelativeConvex@VConvexHullV@Gu@physx@@@01@AEBU?$LocalConvex@VConvexHullV@Gu@physx@@@01@AEBT__m128@@2_NPEIAE4PEIAT5@5AEAEAEAUGjkOutput@01@@Z 000000018003b1c0 f i GuSweepSharedTests.obj
 0001:0003b810       ??$gjkRaycast@U?$LocalConvex@VCapsuleV@Gu@physx@@@Gu@physx@@U?$LocalConvex@VConvexHullV@Gu@physx@@@23@@Gu@physx@@YA_NAEBU?$LocalConvex@VCapsuleV@Gu@physx@@@01@AEBU?$LocalConvex@VConvexHullV@Gu@physx@@@01@AEBT__m128@@222AEAT4@33M@Z 000000018003c810 f i GuSweepSharedTests.obj
 0001:0003c560       ??$gjkRaycast@U?$RelativeConvex@VBoxV@Gu@physx@@@Gu@physx@@U?$LocalConvex@VConvexHullV@Gu@physx@@@23@@Gu@physx@@YA_NAEBU?$RelativeConvex@VBoxV@Gu@physx@@@01@AEBU?$LocalConvex@VConvexHullV@Gu@physx@@@01@AEBT__m128@@222AEAT4@33M@Z 000000018003d560 f i GuSweepSharedTests.obj
 0001:0003d350       ??$gjkRaycast@U?$RelativeConvex@VConvexHullV@Gu@physx@@@Gu@physx@@U?$LocalConvex@VConvexHullV@Gu@physx@@@23@@Gu@physx@@YA_NAEBU?$RelativeConvex@VConvexHullV@Gu@physx@@@01@AEBU?$LocalConvex@VConvexHullV@Gu@physx@@@01@AEBT__m128@@222AEAT4@33M@Z 000000018003e350 f i GuSweepSharedTests.obj
 0001:0003e130       ??$gjkRaycastPenetration@U?$RelativeConvex@VConvexHullV@Gu@physx@@@Gu@physx@@U?$LocalConvex@VConvexHullV@Gu@physx@@@23@@Gu@physx@@YA_NAEBU?$RelativeConvex@VConvexHullV@Gu@physx@@@01@AEBU?$LocalConvex@VConvexHullV@Gu@physx@@@01@AEBT__m128@@222AEAT4@33M_N@Z 000000018003f130 f i GuSweepSharedTests.obj
 0001:0003ed00       ?sweepBox_ConvexGeom@@YA_NAEBVPxGeometry@physx@@AEBV?$PxTransformT@M@2@AEBVPxBoxGeometry@2@1AEBVBox@Gu@2@AEBV?$PxVec3T@M@2@MAEAUPxGeomSweepHit@2@V?$PxFlags@W4Enum@PxHitFlag@physx@@G@2@MPEAUPxQueryThreadContext@2@@Z 000000018003fd00 f   GuSweepSharedTests.obj
 0001:0003fb20       ?sweepBox_PlaneGeom@@YA_NAEBVPxGeometry@physx@@AEBV?$PxTransformT@M@2@AEBVPxBoxGeometry@2@1AEBVBox@Gu@2@AEBV?$PxVec3T@M@2@MAEAUPxGeomSweepHit@2@V?$PxFlags@W4Enum@PxHitFlag@physx@@G@2@MPEAUPxQueryThreadContext@2@@Z 0000000180040b20 f   GuSweepSharedTests.obj
 0001:0003ff10       ?sweepCapsuleTriangles@Gu@physx@@YA_NIPEBVPxTriangle@2@_NAEBVPxCapsuleGeometry@2@AEBV?$PxTransformT@M@2@AEBV?$PxVec3T@M@2@MAEAUPxGeomSweepHit@2@PEBIMV?$PxFlags@W4Enum@PxHitFlag@physx@@G@2@@Z 0000000180040f10 f   GuSweepSharedTests.obj
 0001:00040100       ?sweepCapsule_CapsuleGeom@@YA_NAEBVPxGeometry@physx@@AEBV?$PxTransformT@M@2@AEBVPxCapsuleGeometry@2@1AEBVCapsule@Gu@2@AEBV?$PxVec3T@M@2@MAEAUPxGeomSweepHit@2@V?$PxFlags@W4Enum@PxHitFlag@physx@@G@2@MPEAUPxQueryThreadContext@2@@Z 0000000180041100 f   GuSweepSharedTests.obj
 0001:000402e0       ?sweepCapsule_ConvexGeom@@YA_NAEBVPxGeometry@physx@@AEBV?$PxTransformT@M@2@AEBVPxCapsuleGeometry@2@1AEBVCapsule@Gu@2@AEBV?$PxVec3T@M@2@MAEAUPxGeomSweepHit@2@V?$PxFlags@W4Enum@PxHitFlag@physx@@G@2@MPEAUPxQueryThreadContext@2@@Z 00000001800412e0 f   GuSweepSharedTests.obj
 0001:00041010       ?sweepCapsule_PlaneGeom@@YA_NAEBVPxGeometry@physx@@AEBV?$PxTransformT@M@2@AEBVPxCapsuleGeometry@2@1AEBVCapsule@Gu@2@AEBV?$PxVec3T@M@2@MAEAUPxGeomSweepHit@2@V?$PxFlags@W4Enum@PxHitFlag@physx@@G@2@MPEAUPxQueryThreadContext@2@@Z 0000000180042010 f   GuSweepSharedTests.obj
 0001:000412f0       ?sweepCapsule_SphereGeom@@YA_NAEBVPxGeometry@physx@@AEBV?$PxTransformT@M@2@AEBVPxCapsuleGeometry@2@1AEBVCapsule@Gu@2@AEBV?$PxVec3T@M@2@MAEAUPxGeomSweepHit@2@V?$PxFlags@W4Enum@PxHitFlag@physx@@G@2@MPEAUPxQueryThreadContext@2@@Z 00000001800422f0 f   GuSweepSharedTests.obj
 0001:00041490       ?sweepConvex_BoxGeom@@YA_NAEBVPxGeometry@physx@@AEBV?$PxTransformT@M@2@AEBVPxConvexMeshGeometry@2@1AEBV?$PxVec3T@M@2@MAEAUPxGeomSweepHit@2@V?$PxFlags@W4Enum@PxHitFlag@physx@@G@2@MPEAUPxQueryThreadContext@2@@Z 0000000180042490 f   GuSweepSharedTests.obj
 0001:000416b0       ?sweepConvex_CapsuleGeom@@YA_NAEBVPxGeometry@physx@@AEBV?$PxTransformT@M@2@AEBVPxConvexMeshGeometry@2@1AEBV?$PxVec3T@M@2@MAEAUPxGeomSweepHit@2@V?$PxFlags@W4Enum@PxHitFlag@physx@@G@2@MPEAUPxQueryThreadContext@2@@Z 00000001800426b0 f   GuSweepSharedTests.obj
 0001:000418e0       ?sweepConvex_ConvexGeom@@YA_NAEBVPxGeometry@physx@@AEBV?$PxTransformT@M@2@AEBVPxConvexMeshGeometry@2@1AEBV?$PxVec3T@M@2@MAEAUPxGeomSweepHit@2@V?$PxFlags@W4Enum@PxHitFlag@physx@@G@2@MPEAUPxQueryThreadContext@2@@Z 00000001800428e0 f   GuSweepSharedTests.obj
 0001:000428c0       ?sweepConvex_PlaneGeom@@YA_NAEBVPxGeometry@physx@@AEBV?$PxTransformT@M@2@AEBVPxConvexMeshGeometry@2@1AEBV?$PxVec3T@M@2@MAEAUPxGeomSweepHit@2@V?$PxFlags@W4Enum@PxHitFlag@physx@@G@2@MPEAUPxQueryThreadContext@2@@Z 00000001800438c0 f   GuSweepSharedTests.obj
 0001:00042d00       ?sweepConvex_SphereGeom@@YA_NAEBVPxGeometry@physx@@AEBV?$PxTransformT@M@2@AEBVPxConvexMeshGeometry@2@1AEBV?$PxVec3T@M@2@MAEAUPxGeomSweepHit@2@V?$PxFlags@W4Enum@PxHitFlag@physx@@G@2@MPEAUPxQueryThreadContext@2@@Z 0000000180043d00 f   GuSweepSharedTests.obj
 0001:00043910       ?sweepCapsule_BoxGeom@@YA_NAEBVPxGeometry@physx@@AEBV?$PxTransformT@M@2@AEBVPxCapsuleGeometry@2@1AEBVCapsule@Gu@2@AEBV?$PxVec3T@M@2@MAEAUPxGeomSweepHit@2@V?$PxFlags@W4Enum@PxHitFlag@physx@@G@2@MPEAUPxQueryThreadContext@2@@Z 0000000180044910 f   GuSweepTests.obj
 0001:000441d0       ?sweepBox_SphereGeom@@YA_NAEBVPxGeometry@physx@@AEBV?$PxTransformT@M@2@AEBVPxBoxGeometry@2@1AEBVBox@Gu@2@AEBV?$PxVec3T@M@2@MAEAUPxGeomSweepHit@2@V?$PxFlags@W4Enum@PxHitFlag@physx@@G@2@MPEAUPxQueryThreadContext@2@@Z 00000001800451d0 f   GuSweepTests.obj
 0001:000448b0       ?sweepBox_CapsuleGeom@@YA_NAEBVPxGeometry@physx@@AEBV?$PxTransformT@M@2@AEBVPxBoxGeometry@2@1AEBVBox@Gu@2@AEBV?$PxVec3T@M@2@MAEAUPxGeomSweepHit@2@V?$PxFlags@W4Enum@PxHitFlag@physx@@G@2@MPEAUPxQueryThreadContext@2@@Z 00000001800458b0 f   GuSweepTests.obj
 0001:00045180       ?sweepBox_BoxGeom@@YA_NAEBVPxGeometry@physx@@AEBV?$PxTransformT@M@2@AEBVPxBoxGeometry@2@1AEBVBox@Gu@2@AEBV?$PxVec3T@M@2@MAEAUPxGeomSweepHit@2@V?$PxFlags@W4Enum@PxHitFlag@physx@@G@2@MPEAUPxQueryThreadContext@2@@Z 0000000180046180 f   GuSweepTests.obj
 0001:00045b80       ??$gjkPenetration@U?$LocalConvex@VCapsuleV@Gu@physx@@@Gu@physx@@U?$LocalConvex@VBoxV@Gu@physx@@@23@@Gu@physx@@YA?AW4GjkStatus@01@AEBU?$LocalConvex@VCapsuleV@Gu@physx@@@01@AEBU?$LocalConvex@VBoxV@Gu@physx@@@01@AEBT__m128@@2_NPEIAE4AEAEAEAUGjkOutput@01@@Z 0000000180046b80 f i GuSweepTests.obj
 0001:00045bf0       ??$gjkPenetration@U?$LocalConvex@VCapsuleV@Gu@physx@@@Gu@physx@@U?$LocalConvex@VBoxV@Gu@physx@@@23@@Gu@physx@@YA?AW4GjkStatus@01@AEBU?$LocalConvex@VCapsuleV@Gu@physx@@@01@AEBU?$LocalConvex@VBoxV@Gu@physx@@@01@AEBT__m128@@2_NPEIAE4PEIAT5@5AEAEAEAUGjkOutput@01@@Z 0000000180046bf0 f i GuSweepTests.obj
 0001:00047070       ??$gjkPenetration@U?$RelativeConvex@VBoxV@Gu@physx@@@Gu@physx@@U?$LocalConvex@VBoxV@Gu@physx@@@23@@Gu@physx@@YA?AW4GjkStatus@01@AEBU?$RelativeConvex@VBoxV@Gu@physx@@@01@AEBU?$LocalConvex@VBoxV@Gu@physx@@@01@AEBT__m128@@2_NPEIAE4AEAEAEAUGjkOutput@01@@Z 0000000180048070 f i GuSweepTests.obj
 0001:000470e0       ??$gjkPenetration@U?$RelativeConvex@VBoxV@Gu@physx@@@Gu@physx@@U?$LocalConvex@VBoxV@Gu@physx@@@23@@Gu@physx@@YA?AW4GjkStatus@01@AEBU?$RelativeConvex@VBoxV@Gu@physx@@@01@AEBU?$LocalConvex@VBoxV@Gu@physx@@@01@AEBT__m128@@2_NPEIAE4PEIAT5@5AEAEAEAUGjkOutput@01@@Z 00000001800480e0 f i GuSweepTests.obj
 0001:00048590       ??$gjkRaycast@U?$LocalConvex@VCapsuleV@Gu@physx@@@Gu@physx@@U?$LocalConvex@VBoxV@Gu@physx@@@23@@Gu@physx@@YA_NAEBU?$LocalConvex@VCapsuleV@Gu@physx@@@01@AEBU?$LocalConvex@VBoxV@Gu@physx@@@01@AEBT__m128@@222AEAT4@33M@Z 0000000180049590 f i GuSweepTests.obj
 0001:00049160       ??$gjkRaycast@U?$LocalConvex@VTriangleV@Gu@physx@@@Gu@physx@@U?$LocalConvex@VBoxV@Gu@physx@@@23@@Gu@physx@@YA_NAEBU?$LocalConvex@VTriangleV@Gu@physx@@@01@AEBU?$LocalConvex@VBoxV@Gu@physx@@@01@AEBT__m128@@222AEAT4@33M@Z 000000018004a160 f i GuSweepTests.obj
 0001:00049db0       ??$gjkRaycast@U?$RelativeConvex@VBoxV@Gu@physx@@@Gu@physx@@U?$LocalConvex@VBoxV@Gu@physx@@@23@@Gu@physx@@YA_NAEBU?$RelativeConvex@VBoxV@Gu@physx@@@01@AEBU?$LocalConvex@VBoxV@Gu@physx@@@01@AEBT__m128@@222AEAT4@33M@Z 000000018004adb0 f i GuSweepTests.obj
 0001:0004a9e0       ?getSweepFuncTable@Gu@physx@@YAAEBUGeomSweepFuncs@12@XZ 000000018004b9e0 f   GuSweepTests.obj
 0001:0004a9f0       ?getSweepMargin@?$LocalConvex@VTetrahedronV@Gu@physx@@@Gu@physx@@UEBA?AT__m128@@XZ 000000018004b9f0 f i GuCookingTetrahedronMesh.obj
 0001:0004a9f0       ?getSweepMargin@?$LocalConvex@VTriangleV@Gu@physx@@@Gu@physx@@UEBA?AT__m128@@XZ 000000018004b9f0 f i GuSweepTests.obj
 0001:0004a9f0       ?getSweepMargin@?$RelativeConvex@VTriangleV@Gu@physx@@@Gu@physx@@UEBA?AT__m128@@XZ 000000018004b9f0 f i GuCCDSweepPrimitives.obj
 0001:0004aa00       ?support@?$LocalConvex@VBoxV@Gu@physx@@@Gu@physx@@UEBA?AT__m128@@AEBT4@@Z 000000018004ba00 f i GuSweepTests.obj
 0001:0004aa30       ?support@?$LocalConvex@VBoxV@Gu@physx@@@Gu@physx@@UEBA?AT__m128@@AEBT4@AEAH@Z 000000018004ba30 f i GuSweepTests.obj
 0001:0004aa70       ?support@?$LocalConvex@VTriangleV@Gu@physx@@@Gu@physx@@UEBA?AT__m128@@AEBT4@@Z 000000018004ba70 f i GuSweepTests.obj
 0001:0004ab00       ?support@?$LocalConvex@VTriangleV@Gu@physx@@@Gu@physx@@UEBA?AT__m128@@AEBT4@AEAH@Z 000000018004bb00 f i GuSweepTests.obj
 0001:0004abe0       ?supportPoint@?$LocalConvex@VBoxV@Gu@physx@@@Gu@physx@@UEBA?AT__m128@@H@Z 000000018004bbe0 f i GuSweepTests.obj
 0001:0004ac20       ?supportPoint@?$LocalConvex@VTetrahedronV@Gu@physx@@@Gu@physx@@UEBA?AT__m128@@H@Z 000000018004bc20 f i GuCookingTetrahedronMesh.obj
 0001:0004ac20       ?supportPoint@?$LocalConvex@VTriangleV@Gu@physx@@@Gu@physx@@UEBA?AT__m128@@H@Z 000000018004bc20 f i GuSweepTests.obj
 0001:0004ac40       ?sweepBoxTriangles@Gu@physx@@YA_NIPEBVPxTriangle@2@_NAEBVPxBoxGeometry@2@AEBV?$PxTransformT@M@2@AEBV?$PxVec3T@M@2@MAEAUPxGeomSweepHit@2@PEBIMV?$PxFlags@W4Enum@PxHitFlag@physx@@G@2@@Z 000000018004bc40 f   GuSweepTests.obj
 0001:0004b6c0       ??$PxSmallSort@H$$CBU?$Comparer@V?$PxVec3T@M@physx@@@MeshAnalyzer@Gu@physx@@@physx@@YAXPEAHHHAEBU?$Comparer@V?$PxVec3T@M@physx@@@MeshAnalyzer@Gu@0@@Z 000000018004c6c0 f i GuSDF.obj
 0001:0004b8e0       ??$PxSort@HU?$Comparer@V?$PxVec3T@M@physx@@@MeshAnalyzer@Gu@physx@@V?$PxReflectionAllocator@H@4@@physx@@YAXPEAHIAEBU?$Comparer@V?$PxVec3T@M@physx@@@MeshAnalyzer@Gu@0@AEBV?$PxReflectionAllocator@H@0@I@Z 000000018004c8e0 f i GuSDF.obj
 0001:0004bd60       ??$PxSort@HU?$PxLess@H@physx@@V?$PxReflectionAllocator@H@2@@physx@@YAXPEAHIAEBU?$PxLess@H@0@AEBV?$PxReflectionAllocator@H@0@I@Z 000000018004cd60 f i GuSDF.obj
 0001:0004c1b0       ??$copy@V?$PxReflectionAllocator@I@physx@@@?$PxArray@IV?$PxReflectionAllocator@I@physx@@@physx@@IEAAXAEBV01@@Z 000000018004d1b0 f i GuSDF.obj
 0001:0004c220       ??$copy@V?$PxReflectionAllocator@M@physx@@@?$PxArray@MV?$PxReflectionAllocator@M@physx@@@physx@@IEAAXAEBV01@@Z 000000018004d220 f i GuSDF.obj
 0001:0004c280       ??$copy@V?$PxReflectionAllocator@V?$PxVec3T@M@physx@@@physx@@@?$PxArray@V?$PxVec3T@M@physx@@V?$PxReflectionAllocator@V?$PxVec3T@M@physx@@@2@@physx@@IEAAXAEBV01@@Z 000000018004d280 f i GuSDF.obj
 0001:0004c2e0       ??$mapDuplicatePoints@V?$PxVec3T@M@physx@@M@MeshAnalyzer@Gu@physx@@SAXPEBV?$PxVec3T@M@2@IAEAV?$PxArray@HV?$PxReflectionAllocator@H@physx@@@2@M@Z 000000018004d2e0 f i GuSDF.obj
 0001:0004c660       ??$splitRanges@V?$PxVec3T@M@physx@@M@MeshAnalyzer@Gu@physx@@CAXAEAV?$PxArray@URange@MeshAnalyzer@Gu@physx@@V?$PxReflectionAllocator@URange@MeshAnalyzer@Gu@physx@@@4@@2@AEBV?$PxArray@HV?$PxReflectionAllocator@H@physx@@@2@PEBV?$PxVec3T@M@2@HM@Z 000000018004d660 f i GuSDF.obj
 0001:0004c8f0       ??$traverseBVH@VClosestDistanceToTrimeshTraversalController@Gu@physx@@@Gu@physx@@YAXPEBUBVHNode@01@AEAVClosestDistanceToTrimeshTraversalController@01@H@Z 000000018004d8f0 f i GuSDF.obj
 0001:0004ccf0       ??$traverseBVH@VLineSegmentTrimeshIntersectionTraversalController@Gu@physx@@@Gu@physx@@YAXPEBUBVHNode@01@AEAVLineSegmentTrimeshIntersectionTraversalController@01@H@Z 000000018004dcf0 f i GuSDF.obj
 0001:0004d1f0       ??0CellToPoint@Gu@physx@@QEAA@I@Z 000000018004e1f0 f i GuSDF.obj
 0001:0004d2f0       ??0IsosurfaceThreadData@Gu@physx@@QEAA@AEBU012@@Z 000000018004e2f0 f i GuSDF.obj
 0001:0004d370       ??1CellToPoint@Gu@physx@@QEAA@XZ 000000018004e370 f i GuSDF.obj
 0001:0004d450       ??1IsosurfaceThreadData@Gu@physx@@QEAA@XZ 000000018004e450 f i GuSDF.obj
 0001:0004d500       ??1SDF@Gu@physx@@QEAA@XZ   000000018004e500 f   GuSDF.obj
 0001:0004d5a0       ??_E?$PxThreadT@V?$PxReflectionAllocator@VPxThreadImpl@physx@@@physx@@@physx@@UEAAPEAXI@Z 000000018004e5a0 f i GuSDF.obj
 0001:0004d5a0       ??_G?$PxThreadT@V?$PxReflectionAllocator@VPxThreadImpl@physx@@@physx@@@physx@@UEAAPEAXI@Z 000000018004e5a0 f i GuSDF.obj
 0001:0004d650       ??_EPxRunnable@physx@@UEAAPEAXI@Z 000000018004e650 f i GuSDF.obj
 0001:0004d650       ??_GPxRunnable@physx@@UEAAPEAXI@Z 000000018004e650 f i GuSDF.obj
 0001:0004d680       ?PxCreatePointOntoTriangleMeshProjector@Gu@physx@@YAPEAVPxPointOntoTriangleMeshProjector@12@PEBV?$PxVec3T@M@2@PEBII@Z 000000018004e680 f   GuSDF.obj
 0001:0004d780       ?SDFUsingWindingNumbers@Gu@physx@@YAXAEAV?$PxArray@UBVHNode@Gu@physx@@V?$PxReflectionAllocator@UBVHNode@Gu@physx@@@3@@2@AEAV?$PxHashMap@IU?$ClusterApproximationT@MV?$PxVec3T@M@physx@@@Gu@physx@@U?$PxHash@I@3@VPxAllocator@3@@2@PEBV?$PxVec3T@M@2@PEBIIIIIPEAMAEAUGridQueryPointSampler@12@PEAV52@I_N7@Z 000000018004e780 f   GuSDF.obj
 0001:0004dca0       ?SDFUsingWindingNumbers@Gu@physx@@YAXPEBV?$PxVec3T@M@2@PEBIIIIIPEAMV32@3PEAV32@_NIPEAVPxSDFBuilder@2@@Z 000000018004eca0 f   GuSDF.obj
 0001:0004e180       ?SDFUsingWindingNumbersSparse@Gu@physx@@YAXPEBV?$PxVec3T@M@2@PEBIIIIIAEBV32@2MIAEAV?$PxArray@MV?$PxReflectionAllocator@M@physx@@@2@AEAV?$PxArray@IV?$PxReflectionAllocator@I@physx@@@2@33AEAM5IPEAVPxSDFBuilder@2@@Z 000000018004f180 f   GuSDF.obj
 0001:0004ec10       ?allocate@?$PxArray@HV?$PxInlineAllocator@$0EAA@V?$PxReflectionAllocator@H@physx@@@physx@@@physx@@IEAAPEAHI@Z 000000018004fc10 f i GuSDF.obj
 0001:0004ecd0       ?allocate@?$PxArray@MV?$PxReflectionAllocator@M@physx@@@physx@@IEAAPEAMI@Z 000000018004fcd0 f i GuSDF.obj
 0001:0004ed60       ?allocate@?$PxArray@V?$PxVec3T@M@physx@@V?$PxReflectionAllocator@V?$PxVec3T@M@physx@@@2@@physx@@IEAAPEAV?$PxVec3T@M@2@I@Z 000000018004fd60 f i GuSDF.obj
 0001:0004ee00       ?allocateSdfs@SDF@Gu@physx@@QEAAPEAMAEBV?$PxVec3T@M@3@AEBMIIIIIIIMMI@Z 000000018004fe00 f   GuSDF.obj
 0001:0004f010       ?analyzeAndFixMesh@Gu@physx@@YAXPEBV?$PxVec3T@M@2@PEBIIAEAV?$PxArray@IV?$PxReflectionAllocator@I@physx@@@2@@Z 0000000180050010 f   GuSDF.obj
 0001:0004f870       ?buildTree@Gu@physx@@YAXPEBIIPEBV?$PxVec3T@M@2@AEAV?$PxArray@UBVHNode@Gu@physx@@V?$PxReflectionAllocator@UBVHNode@Gu@physx@@@3@@2@M@Z 0000000180050870 f   GuSDF.obj
 0001:0004faa0       ?computeIsosurfaceTrianglesThreadJob@Gu@physx@@YAPEAXPEAX@Z 0000000180050aa0 f   GuSDF.obj
 0001:0004fe70       ?computeIsosurfaceVerticesThreadJob@Gu@physx@@YAPEAXPEAX@Z 0000000180050e70 f   GuSDF.obj
 0001:00050360       ?computeSDFThreadJob@Gu@physx@@YAPEAXPEAX@Z 0000000180051360 f   GuSDF.obj
 0001:00050e20       ?convertSparseSDFTo3DTextureLayout@Gu@physx@@YAXIIIIPEAIPEBMIAEAV?$PxArray@MV?$PxReflectionAllocator@M@physx@@@2@AEAI33@Z 0000000180051e20 f   GuSDF.obj
 0001:000511d0       ?copy@?$PxArray@MV?$PxReflectionAllocator@M@physx@@@physx@@KAXPEAM0PEBM@Z 00000001800521d0 f i GuSDF.obj
 0001:00051230       ?copy@?$PxArray@V?$PxVec3T@M@physx@@V?$PxReflectionAllocator@V?$PxVec3T@M@physx@@@2@@physx@@KAXPEAV?$PxVec3T@M@2@0PEBV32@@Z 0000000180052230 f i GuSDF.obj
 0001:00051300       ?create@?$PxHashBase@V?$PxPair@$$CBUSortedTriangle@Gu@physx@@H@physx@@USortedTriangle@Gu@2@UTriangleHash@42@UGetKey@?$PxHashMapBase@USortedTriangle@Gu@physx@@HUTriangleHash@23@VPxAllocator@3@@2@VPxAllocator@2@$00@physx@@QEAAPEAV?$PxPair@$$CBUSortedTriangle@Gu@physx@@H@2@AEBUSortedTriangle@Gu@2@AEA_N@Z 0000000180052300 f i GuSDF.obj
 0001:00051430       ?create@?$PxHashBase@V?$PxPair@$$CB_KH@physx@@_KU?$PxHash@_K@2@UGetKey@?$PxHashMapBase@_KHU?$PxHash@_K@physx@@VPxAllocator@2@@2@VPxAllocator@2@$00@physx@@QEAAPEAV?$PxPair@$$CB_KH@2@AEB_KAEA_N@Z 0000000180052430 f i GuMeshAnalysis.obj
 0001:00051430       ?create@?$PxHashBase@V?$PxPair@$$CB_KI@physx@@_KU?$PxHash@_K@2@UGetKey@?$PxHashMapBase@_KIU?$PxHash@_K@physx@@VPxAllocator@2@@2@VPxAllocator@2@$00@physx@@QEAAPEAV?$PxPair@$$CB_KI@2@AEB_KAEA_N@Z 0000000180052430 f i GuSDF.obj
 0001:000515c0       ?createTriangles@Gu@physx@@YAXHHHMQEAMAEBUCellToPoint@12@AEBV?$PxArray@V?$PxVec3T@M@physx@@V?$PxReflectionAllocator@V?$PxVec3T@M@physx@@@2@@2@AEAV?$PxArray@IV?$PxReflectionAllocator@I@physx@@@2@@Z 00000001800525c0 f i GuSDF.obj
 0001:00051e30       ?decodeDense@SDF@Gu@physx@@QEBAMHHH@Z 0000000180052e30 f   GuSDF.obj
 0001:00051e80       ?decodeSparse2@Gu@physx@@YAMAEBVSDF@12@HHH@Z 0000000180052e80 f i GuSDF.obj
 0001:00052130       ?decodeSparse@SDF@Gu@physx@@QEBAMHHH@Z 0000000180053130 f   GuSDF.obj
 0001:00052140       ?exportExtraData@SDF@Gu@physx@@QEAAXAEAVPxSerializationContext@3@@Z 0000000180053140 f   GuSDF.obj
 0001:000521e0       ?extractIsosurfaceFromSDF@Gu@physx@@YAXAEBVSDF@12@AEAV?$PxArray@V?$PxVec3T@M@physx@@V?$PxReflectionAllocator@V?$PxVec3T@M@physx@@@2@@2@AEAV?$PxArray@IV?$PxReflectionAllocator@I@physx@@@2@I@Z 00000001800531e0 f   GuSDF.obj
 0001:00052ae0       ?extractIsosurfaceFromSDFSerial@Gu@physx@@YAXAEBVSDF@12@AEAV?$PxArray@V?$PxVec3T@M@physx@@V?$PxReflectionAllocator@V?$PxVec3T@M@physx@@@2@@2@AEAV?$PxArray@IV?$PxReflectionAllocator@I@physx@@@2@@Z 0000000180053ae0 f   GuSDF.obj
 0001:000537d0       ?find@CellToPoint@Gu@physx@@QEBAPEBV?$PxPair@$$CB_KI@3@HHH@Z 00000001800547d0 f i GuSDF.obj
 0001:000538e0       ?fixSdfForNonClosedGeometry@Gu@physx@@YAXIIIPEAMAEBV?$PxVec3T@M@2@@Z 00000001800548e0 f   GuSDF.obj
 0001:000549c0       ?generatePointInCell@Gu@physx@@YA_NAEBVSDF@12@HHHAEAV?$PxVec3T@M@2@QEAY111M@Z 00000001800559c0 f   GuSDF.obj
 0001:00054e10       ?growAndPushBack@?$PxArray@HV?$PxInlineAllocator@$0EAA@V?$PxReflectionAllocator@H@physx@@@physx@@@physx@@IEAAAEAHAEBH@Z 0000000180055e10 f i GuSDF.obj
 0001:00054f00       ?growAndPushBack@?$PxArray@MV?$PxReflectionAllocator@M@physx@@@physx@@IEAAAEAMAEBM@Z 0000000180055f00 f i GuSDF.obj
 0001:00054fe0       ?growAndPushBack@?$PxArray@PEAV?$PxThreadT@V?$PxReflectionAllocator@VPxThreadImpl@physx@@@physx@@@physx@@V?$PxReflectionAllocator@PEAV?$PxThreadT@V?$PxReflectionAllocator@VPxThreadImpl@physx@@@physx@@@physx@@@2@@physx@@IEAAAEAPEAV?$PxThreadT@V?$PxReflectionAllocator@VPxThreadImpl@physx@@@physx@@@2@AEBQEAV32@@Z 0000000180055fe0 f i GuSDF.obj
 0001:00055100       ?growAndPushBack@?$PxArray@UIsosurfaceThreadData@Gu@physx@@V?$PxReflectionAllocator@UIsosurfaceThreadData@Gu@physx@@@3@@physx@@IEAAAEAUIsosurfaceThreadData@Gu@2@AEBU342@@Z 0000000180056100 f i GuSDF.obj
 0001:000552d0       ?growAndPushBack@?$PxArray@UMutation@Gu@physx@@V?$PxReflectionAllocator@UMutation@Gu@physx@@@3@@physx@@IEAAAEAUMutation@Gu@2@AEBU342@@Z 00000001800562d0 f i GuSDF.obj
 0001:000553f0       ?growAndPushBack@?$PxArray@URange@Gu@physx@@V?$PxReflectionAllocator@URange@Gu@physx@@@3@@physx@@IEAAAEAURange@Gu@2@AEBU342@@Z 00000001800563f0 f i GuSDF.obj
 0001:00055520       ?growAndPushBack@?$PxArray@URange@MeshAnalyzer@Gu@physx@@V?$PxReflectionAllocator@URange@MeshAnalyzer@Gu@physx@@@4@@physx@@IEAAAEAURange@MeshAnalyzer@Gu@2@AEBU3452@@Z 0000000180056520 f i GuSDF.obj
 0001:00055640       ?growAndPushBack@?$PxArray@USDFCalculationData@Gu@physx@@V?$PxReflectionAllocator@USDFCalculationData@Gu@physx@@@3@@physx@@IEAAAEAUSDFCalculationData@Gu@2@AEBU342@@Z 0000000180056640 f i GuSDF.obj
 0001:000557c0       ?growAndPushBack@?$PxArray@V?$PxVec3T@M@physx@@V?$PxReflectionAllocator@V?$PxVec3T@M@physx@@@2@@physx@@IEAAAEAV?$PxVec3T@M@2@AEBV32@@Z 00000001800567c0 f i GuSDF.obj
 0001:00055890       ?importExtraData@SDF@Gu@physx@@QEAAXAEAVPxDeserializationContext@3@@Z 0000000180056890 f   GuSDF.obj
 0001:00055900       ?populateSubgridCache@Gu@physx@@YAXAEBVSDF@12@AEAV?$PxArray@MV?$PxReflectionAllocator@M@physx@@@2@HHH@Z 0000000180056900 f i GuSDF.obj
 0001:00055ca0       ?projectPoint@PointOntoTriangleMeshProjector@Gu@physx@@UEAA?AV?$PxVec3T@M@3@AEBV43@@Z 0000000180056ca0 f i GuSDF.obj
 0001:00055d10       ?projectPoint@PointOntoTriangleMeshProjector@Gu@physx@@UEAA?AV?$PxVec3T@M@3@AEBV43@AEAI@Z 0000000180056d10 f i GuSDF.obj
 0001:00055d90       ?recreate@?$PxArray@HV?$PxReflectionAllocator@H@physx@@@physx@@IEAAXI@Z 0000000180056d90 f i GuSDF.obj
 0001:00055e80       ?recreate@?$PxArray@MV?$PxReflectionAllocator@M@physx@@@physx@@IEAAXI@Z 0000000180056e80 f i GuSDF.obj
 0001:00055f60       ?recreate@?$PxArray@PEAUMap@Gu@physx@@V?$PxReflectionAllocator@PEAUMap@Gu@physx@@@3@@physx@@IEAAXI@Z 0000000180056f60 f i GuSDF.obj
 0001:00056050       ?recreate@?$PxArray@UBVHNode@Gu@physx@@V?$PxReflectionAllocator@UBVHNode@Gu@physx@@@3@@physx@@IEAAXI@Z 0000000180057050 f i GuSDF.obj
 0001:00056290       ?recreate@?$PxArray@V?$PxVec3T@M@physx@@V?$PxReflectionAllocator@V?$PxVec3T@M@physx@@@2@@physx@@IEAAXI@Z 0000000180057290 f i GuSDF.obj
 0001:00056320       ?release@PointOntoTriangleMeshProjector@Gu@physx@@UEAAXXZ 0000000180057320 f i GuSDF.obj
 0001:00056370       ?reserveInternal@?$PxHashBase@V?$PxPair@$$CBIU?$ClusterApproximationT@MV?$PxVec3T@M@physx@@@Gu@physx@@@physx@@IU?$PxHash@I@2@UGetKey@?$PxHashMapBase@IU?$ClusterApproximationT@MV?$PxVec3T@M@physx@@@Gu@physx@@U?$PxHash@I@3@VPxAllocator@3@@2@VPxAllocator@2@$00@physx@@AEAAXI@Z 0000000180057370 f i GuSDF.obj
 0001:00056570       ?reserveInternal@?$PxHashBase@V?$PxPair@$$CBUSortedTriangle@Gu@physx@@H@physx@@USortedTriangle@Gu@2@UTriangleHash@42@UGetKey@?$PxHashMapBase@USortedTriangle@Gu@physx@@HUTriangleHash@23@VPxAllocator@3@@2@VPxAllocator@2@$00@physx@@AEAAXI@Z 0000000180057570 f i GuSDF.obj
 0001:00056710       ?reserveInternal@?$PxHashBase@V?$PxPair@$$CB_KH@physx@@_KU?$PxHash@_K@2@UGetKey@?$PxHashMapBase@_KHU?$PxHash@_K@physx@@VPxAllocator@2@@2@VPxAllocator@2@$00@physx@@AEAAXI@Z 0000000180057710 f i GuSDF.obj
 0001:00056710       ?reserveInternal@?$PxHashBase@V?$PxPair@$$CB_KI@physx@@_KU?$PxHash@_K@2@UGetKey@?$PxHashMapBase@_KIU?$PxHash@_K@physx@@VPxAllocator@2@@2@VPxAllocator@2@$00@physx@@AEAAXI@Z 0000000180057710 f i GuSDF.obj
 0001:000568f0       ?resize@?$PxArray@IV?$PxReflectionAllocator@I@physx@@@physx@@QEAAXIAEBI@Z 00000001800578f0 f i GuSDF.obj
 0001:000569b0       ?resize@?$PxArray@MV?$PxReflectionAllocator@M@physx@@@physx@@QEAAXIAEBM@Z 00000001800579b0 f i GuSDF.obj
 0001:00056ac0       ?resize@?$PxArray@PEAUMap@Gu@physx@@V?$PxReflectionAllocator@PEAUMap@Gu@physx@@@3@@physx@@QEAAXIAEBQEAUMap@Gu@2@@Z 0000000180057ac0 f i GuSDF.obj
 0001:00056b80       ?resize@?$PxArray@UBVHNode@Gu@physx@@V?$PxReflectionAllocator@UBVHNode@Gu@physx@@@3@@physx@@QEAAXIAEBUBVHNode@Gu@2@@Z 0000000180057b80 f i GuSDF.obj
 0001:00056d00       ?sampleSDFDirect@DenseSDF@Gu@physx@@QEAAMAEBV?$PxVec3T@M@3@@Z 0000000180057d00 f i GuSDF.obj
 0001:00056ea0       ?signedVolume@Gu@physx@@YAMPEBV?$PxVec3T@M@2@PEBII1I@Z 0000000180057ea0 f   GuSDF.obj
 0001:000573e0       ?windingNumbers@Gu@physx@@YAXPEBV?$PxVec3T@M@2@PEBIIIIIPEAMV32@3PEAV32@@Z 00000001800583e0 f   GuSDF.obj
 0001:00057830       ?windingNumbersInsideCheck@Gu@physx@@YAXPEBV?$PxVec3T@M@2@PEBIIIIIPEA_NV32@3PEAV32@@Z 0000000180058830 f   GuSDF.obj
 0001:00058200       ??0MeshData@physx@@QEAA@AEBVPxTriangleMeshDesc@1@@Z 0000000180059200 f i GuCookingSDF.obj
 0001:000582e0       ?GetBounds@MeshData@physx@@QEBAXAEAV?$PxVec3T@M@2@0@Z 00000001800592e0 f i GuCookingSDF.obj
 0001:00058580       ?buildSDF@physx@@YA_NAEAVPxTriangleMeshDesc@1@AEAV?$PxArray@MV?$PxReflectionAllocator@M@physx@@@1@AEAV?$PxArray@EV?$PxReflectionAllocator@E@physx@@@1@AEAV?$PxArray@IV?$PxReflectionAllocator@I@physx@@@1@@Z 0000000180059580 f   GuCookingSDF.obj
 0001:000585c0       ?convert16To32Bits@physx@@YAXVPxSimpleTriangleMesh@1@AEAV?$PxArray@IV?$PxReflectionAllocator@I@physx@@@1@@Z 00000001800595c0 f   GuCookingSDF.obj
 0001:000595e0       ?quantizeSparseSDF@physx@@YAXW4Enum@PxSdfBitsPerSubgridPixel@1@AEBV?$PxArray@MV?$PxReflectionAllocator@M@physx@@@1@AEAV?$PxArray@EV?$PxReflectionAllocator@E@physx@@@1@MM@Z 000000018005a5e0 f   GuCookingSDF.obj
 0001:000596c0       ?recreate@?$PxArray@EV?$PxReflectionAllocator@E@physx@@@physx@@IEAAXI@Z 000000018005a6c0 f i GuCookingSDF.obj
 0001:000597b0       ?resize@?$PxArray@EV?$PxReflectionAllocator@E@physx@@@physx@@QEAAXIAEBE@Z 000000018005a7b0 f i GuCookingSDF.obj
 0001:00059870       ?resize@?$PxArray@V?$PxVec3T@M@physx@@V?$PxReflectionAllocator@V?$PxVec3T@M@physx@@@2@@physx@@QEAAXIAEBV?$PxVec3T@M@2@@Z 000000018005a870 f i GuCookingSDF.obj
 0001:00059960       ??$gjk@U?$RelativeConvex@UCustomConvexV@@@Gu@physx@@U?$LocalConvex@UCustomConvexV@@@23@@Gu@physx@@YA?AW4GjkStatus@01@AEBU?$RelativeConvex@UCustomConvexV@@@01@AEBU?$LocalConvex@UCustomConvexV@@@01@AEBT__m128@@2AEAT5@333@Z 000000018005a960 f i GuGjkQuery.obj
 0001:0005a6f0       ??$gjkPenetration@U?$RelativeConvex@UCustomConvexV@@@Gu@physx@@U?$LocalConvex@UCustomConvexV@@@23@@Gu@physx@@YA?AW4GjkStatus@01@AEBU?$RelativeConvex@UCustomConvexV@@@01@AEBU?$LocalConvex@UCustomConvexV@@@01@AEBT__m128@@2_NPEIAE4PEIAT5@5AEAEAEAUGjkOutput@01@@Z 000000018005b6f0 f i GuGjkQuery.obj
 0001:0005bc60       ??$gjkPenetration@U?$RelativeConvex@UCustomConvexV@@@Gu@physx@@U?$LocalConvex@UCustomConvexV@@@23@@Gu@physx@@YA?AW4GjkStatus@01@AEBU?$RelativeConvex@UCustomConvexV@@@01@AEBU?$LocalConvex@UCustomConvexV@@@01@AEBT__m128@@2_NPEIAT5@4AEAEAEAUGjkOutput@01@@Z 000000018005cc60 f i GuGjkQuery.obj
 0001:0005bcc0       ??$gjkRaycast@U?$RelativeConvex@UCustomConvexV@@@Gu@physx@@U?$LocalConvex@UCustomConvexV@@@23@@Gu@physx@@YA_NAEBU?$RelativeConvex@UCustomConvexV@@@01@AEBU?$LocalConvex@UCustomConvexV@@@01@AEBT__m128@@222AEAT4@33M@Z 000000018005ccc0 f i GuGjkQuery.obj
 0001:0005ca20       ??$gjkRaycast@U?$RelativeConvex@UCustomConvexV@@@Gu@physx@@U?$LocalConvex@UPointConvexV@@@23@@Gu@physx@@YA_NAEBU?$RelativeConvex@UCustomConvexV@@@01@AEBU?$LocalConvex@UPointConvexV@@@01@AEBT__m128@@222AEAT4@33M@Z 000000018005da20 f i GuGjkQuery.obj
 0001:0005d660       ?overlap@PxGjkQuery@physx@@SA_NAEBUSupport@12@0AEBV?$PxTransformT@M@2@1@Z 000000018005e660 f   GuGjkQuery.obj
 0001:0005d9f0       ?proximityInfo@PxGjkQuery@physx@@SA_NAEBUSupport@12@0AEBV?$PxTransformT@M@2@1MMAEAV?$PxVec3T@M@2@22AEAM@Z 000000018005e9f0 f   GuGjkQuery.obj
 0001:0005e790       ?raycast@PxGjkQuery@physx@@SA_NAEBUSupport@12@AEBV?$PxTransformT@M@2@AEBV?$PxVec3T@M@2@2MAEAMAEAV52@4@Z 000000018005f790 f   GuGjkQuery.obj
 0001:0005ec40       ?support@?$LocalConvex@UCustomConvexV@@@Gu@physx@@UEBA?AT__m128@@AEBT4@@Z 000000018005fc40 f i GuGjkQuery.obj
 0001:0005ecc0       ?support@?$LocalConvex@UCustomConvexV@@@Gu@physx@@UEBA?AT__m128@@AEBT4@AEAH@Z 000000018005fcc0 f i GuGjkQuery.obj
 0001:0005ed40       ?support@?$LocalConvex@UPointConvexV@@@Gu@physx@@UEBA?AT__m128@@AEBT4@@Z 000000018005fd40 f i GuGjkQuery.obj
 0001:0005ed40       ?supportPoint@?$LocalConvex@UPointConvexV@@@Gu@physx@@UEBA?AT__m128@@H@Z 000000018005fd40 f i GuGjkQuery.obj
 0001:0005ed50       ?support@?$LocalConvex@UPointConvexV@@@Gu@physx@@UEBA?AT__m128@@AEBT4@AEAH@Z 000000018005fd50 f i GuGjkQuery.obj
 0001:0005ed70       ?support@?$RelativeConvex@UCustomConvexV@@@Gu@physx@@UEBA?AT__m128@@AEBT4@@Z 000000018005fd70 f i GuGjkQuery.obj
 0001:0005ee40       ?support@?$RelativeConvex@UCustomConvexV@@@Gu@physx@@UEBA?AT__m128@@AEBT4@AEAH@Z 000000018005fe40 f i GuGjkQuery.obj
 0001:0005ef20       ?supportPoint@?$LocalConvex@UCustomConvexV@@@Gu@physx@@UEBA?AT__m128@@H@Z 000000018005ff20 f i GuGjkQuery.obj
 0001:0005ef90       ?supportPoint@?$RelativeConvex@UCustomConvexV@@@Gu@physx@@UEBA?AT__m128@@H@Z 000000018005ff90 f i GuGjkQuery.obj
 0001:0005f030       ?sweep@PxGjkQuery@physx@@SA_NAEBUSupport@12@0AEBV?$PxTransformT@M@2@1AEBV?$PxVec3T@M@2@MAEAMAEAV52@4@Z 0000000180060030 f   GuGjkQuery.obj
 0001:0005f7f0       ??$approximateCluster@MV?$PxVec3T@M@physx@@@Gu@physx@@YAXAEBV?$PxArray@HV?$PxReflectionAllocator@H@physx@@@1@IIPEBIPEBV?$PxVec3T@M@1@AEBV?$PxArray@MV?$PxReflectionAllocator@M@physx@@@1@AEBV?$PxArray@V?$PxVec3T@M@physx@@V?$PxReflectionAllocator@V?$PxVec3T@M@physx@@@2@@1@4AEAU?$ClusterApproximationT@MV?$PxVec3T@M@physx@@@01@@Z 00000001800607f0 f i GuWindingNumber.obj
 0001:0005fe30       ??$precomputeClusterInformation@MV?$PxVec3T@M@physx@@@Gu@physx@@YAXHPEBUBVHNode@01@PEBIIPEBV?$PxVec3T@M@1@AEAV?$PxHashMap@IU?$ClusterApproximationT@MV?$PxVec3T@M@physx@@@Gu@physx@@U?$PxHash@I@3@VPxAllocator@3@@1@V?$PxArray@MV?$PxReflectionAllocator@M@physx@@@1@AEBV?$PxArray@V?$PxVec3T@M@physx@@V?$PxReflectionAllocator@V?$PxVec3T@M@physx@@@2@@1@5@Z 0000000180060e30 f i GuWindingNumber.obj
 0001:00060210       ??$precomputeClusterInformation@MV?$PxVec3T@M@physx@@@Gu@physx@@YAXPEBUBVHNode@01@PEBIIPEBV?$PxVec3T@M@1@AEAV?$PxHashMap@IU?$ClusterApproximationT@MV?$PxVec3T@M@physx@@@Gu@physx@@U?$PxHash@I@3@VPxAllocator@3@@1@H@Z 0000000180061210 f i GuWindingNumber.obj
 0001:00060620       ??$traverseBVH@V?$WindingNumberTraversalController@MV?$PxVec3T@M@physx@@@Gu@physx@@@Gu@physx@@YAXPEBUBVHNode@01@AEAV?$WindingNumberTraversalController@MV?$PxVec3T@M@physx@@@01@H@Z 0000000180061620 f i GuWindingNumber.obj
 0001:00060b70       ?allocate@?$PxArray@HV?$PxReflectionAllocator@H@physx@@@physx@@IEAAPEAHI@Z 0000000180061b70 f i GuWindingNumber.obj
 0001:00060c00       ?computeWindingNumber@Gu@physx@@YAMAEBV?$PxVec3T@M@2@PEBIIPEBV32@@Z 0000000180061c00 f   GuWindingNumber.obj
 0001:00060f30       ?computeWindingNumber@Gu@physx@@YAMPEBUBVHNode@12@AEBV?$PxVec3T@M@2@AEBV?$PxHashMap@IU?$ClusterApproximationT@MV?$PxVec3T@M@physx@@@Gu@physx@@U?$PxHash@I@3@VPxAllocator@3@@2@PEBIPEBV42@@Z 0000000180061f30 f   GuWindingNumber.obj
 0001:00060fa0       ?computeWindingNumber@Gu@physx@@YAMPEBUBVHNode@12@AEBV?$PxVec3T@M@2@MAEBV?$PxHashMap@IU?$ClusterApproximationT@MV?$PxVec3T@M@physx@@@Gu@physx@@U?$PxHash@I@3@VPxAllocator@3@@2@PEBIPEBV42@@Z 0000000180061fa0 f   GuWindingNumber.obj
 0001:00061010       ?create@?$PxHashBase@V?$PxPair@$$CBIU?$ClusterApproximationT@MV?$PxVec3T@M@physx@@@Gu@physx@@@physx@@IU?$PxHash@I@2@UGetKey@?$PxHashMapBase@IU?$ClusterApproximationT@MV?$PxVec3T@M@physx@@@Gu@physx@@U?$PxHash@I@3@VPxAllocator@3@@2@VPxAllocator@2@$00@physx@@QEAAPEAV?$PxPair@$$CBIU?$ClusterApproximationT@MV?$PxVec3T@M@physx@@@Gu@physx@@@2@AEBIAEA_N@Z 0000000180062010 f i GuWindingNumber.obj
 0001:00061160       ?growAndPushBack@?$PxArray@HV?$PxReflectionAllocator@H@physx@@@physx@@IEAAAEAHAEBH@Z 0000000180062160 f i GuWindingNumber.obj
 0001:00061220       ?growAndPushBack@?$PxArray@USection@Gu@physx@@V?$PxReflectionAllocator@USection@Gu@physx@@@3@@physx@@IEAAAEAUSection@Gu@2@AEBU342@@Z 0000000180062220 f i GuWindingNumber.obj
 0001:00061340       ?precomputeClusterInformation@Gu@physx@@YAXPEBUBVHNode@12@PEBIIPEBV?$PxVec3T@M@2@AEAV?$PxHashMap@IU?$ClusterApproximationT@MV?$PxVec3T@M@physx@@@Gu@physx@@U?$PxHash@I@3@VPxAllocator@3@@2@H@Z 0000000180062340 f   GuWindingNumber.obj
 0001:000613e0       ?SweepAnyShapeHeightfield@Gu@physx@@YAMAEBUCCDShape@12@0AEBUPxTransformPadded@2@111MAEAV?$PxVec3T@M@2@2MAEAIM@Z 00000001800623e0 f   GuCCDSweepConvexMesh.obj
 0001:00062980       ?SweepAnyShapeMesh@Gu@physx@@YAMAEBUCCDShape@12@0AEBUPxTransformPadded@2@111MAEAV?$PxVec3T@M@2@2MAEAIM@Z 0000000180063980 f   GuCCDSweepConvexMesh.obj
 0001:00063f40       ?SweepEstimateAnyShapeHeightfield@Gu@physx@@YAMAEBUCCDShape@12@0MM@Z 0000000180064f40 f   GuCCDSweepConvexMesh.obj
 0001:00064bb0       ?SweepEstimateAnyShapeMesh@Gu@physx@@YAMAEBUCCDShape@12@0MM@Z 0000000180065bb0 f   GuCCDSweepConvexMesh.obj
 0001:00064e50       ?allocate@?$PxArray@IV?$PxInlineAllocator@$0BAA@V?$PxReflectionAllocator@I@physx@@@physx@@@physx@@IEAAPEAII@Z 0000000180065e50 f i GuCCDSweepConvexMesh.obj
 0001:00065930       ?growAndPushBack@?$PxArray@IV?$PxInlineAllocator@$0BAA@V?$PxReflectionAllocator@I@physx@@@physx@@@physx@@IEAAAEAIAEBI@Z 0000000180066930 f i GuCCDSweepConvexMesh.obj
 0001:00065f70       ?recreate@?$PxArray@IV?$PxInlineAllocator@$0BAA@V?$PxReflectionAllocator@I@physx@@@physx@@@physx@@IEAAXI@Z 0000000180066f70 f i GuCCDSweepConvexMesh.obj
 0001:000660b0       ?resize@?$PxArray@IV?$PxInlineAllocator@$0BAA@V?$PxReflectionAllocator@I@physx@@@physx@@@physx@@QEAAXIAEBI@Z 00000001800670b0 f i GuCCDSweepConvexMesh.obj
 0001:00066180       ?transformBoxOrthonormal@physx@@YA?AVBox@Gu@1@AEBV231@AEBV?$PxTransformT@M@1@@Z 0000000180067180 f i GuCCDSweepConvexMesh.obj
 0001:00066610       ?UnimplementedSweep@Gu@physx@@YAMAEBUCCDShape@12@0AEBUPxTransformPadded@2@111MAEAV?$PxVec3T@M@2@2MAEAIM@Z 0000000180067610 f   GuCCDSweepPrimitives.obj
 0001:0006a320       ?UnimplementedTriangleSweep@Gu@physx@@YAMAEBVPxGeometry@2@0AEBUPxTransformPadded@2@111MAEAV?$PxVec3T@M@2@2AEBVFastVertex2ShapeScaling@Cm@2@AEAVTriangleV@12@M@Z 000000018006b320 f   GuCCDSweepPrimitives.obj
 0001:0006a330       ??$SweepGeomTriangles@VCapsuleV@Gu@physx@@@Gu@physx@@YAMAEBVPxGeometry@1@0AEBUPxTransformPadded@1@111MAEAV?$PxVec3T@M@1@2AEBVFastVertex2ShapeScaling@Cm@1@AEAVTriangleV@01@M@Z 000000018006b330 f i GuCCDSweepPrimitives.obj
 0001:0006aa60       ??$SweepGeomTriangles@VBoxV@Gu@physx@@@Gu@physx@@YAMAEBVPxGeometry@1@0AEBUPxTransformPadded@1@111MAEAV?$PxVec3T@M@1@2AEBVFastVertex2ShapeScaling@Cm@1@AEAVTriangleV@01@M@Z 000000018006ba60 f i GuCCDSweepPrimitives.obj
 0001:0006b1b0       ??$SweepGeomTriangles@VConvexHullV@Gu@physx@@@Gu@physx@@YAMAEBVPxGeometry@1@0AEBUPxTransformPadded@1@111MAEAV?$PxVec3T@M@1@2AEBVFastVertex2ShapeScaling@Cm@1@AEAVTriangleV@01@M@Z 000000018006c1b0 f i GuCCDSweepPrimitives.obj
 0001:0006bc90       ?supportPoint@?$RelativeConvex@VCapsuleV@Gu@physx@@@Gu@physx@@UEBA?AT__m128@@H@Z 000000018006cc90 f i GuCCDSweepPrimitives.obj
 0001:0006bcf0       ?support@?$RelativeConvex@VCapsuleV@Gu@physx@@@Gu@physx@@UEBA?AT__m128@@AEBT4@@Z 000000018006ccf0 f i GuCCDSweepPrimitives.obj
 0001:0006bda0       ?support@?$RelativeConvex@VCapsuleV@Gu@physx@@@Gu@physx@@UEBA?AT__m128@@AEBT4@AEAH@Z 000000018006cda0 f i GuCCDSweepPrimitives.obj
 0001:0006be60       ?supportPoint@?$RelativeConvex@VTriangleV@Gu@physx@@@Gu@physx@@UEBA?AT__m128@@H@Z 000000018006ce60 f i GuCCDSweepPrimitives.obj
 0001:0006beb0       ?support@?$RelativeConvex@VTriangleV@Gu@physx@@@Gu@physx@@UEBA?AT__m128@@AEBT4@@Z 000000018006ceb0 f i GuCCDSweepPrimitives.obj
 0001:0006bfb0       ?support@?$RelativeConvex@VTriangleV@Gu@physx@@@Gu@physx@@UEBA?AT__m128@@AEBT4@AEAH@Z 000000018006cfb0 f i GuCCDSweepPrimitives.obj
 0001:0006c0f0       ??$gjkPenetration@U?$RelativeConvex@VCapsuleV@Gu@physx@@@Gu@physx@@U?$LocalConvex@VBoxV@Gu@physx@@@23@@Gu@physx@@YA?AW4GjkStatus@01@AEBU?$RelativeConvex@VCapsuleV@Gu@physx@@@01@AEBU?$LocalConvex@VBoxV@Gu@physx@@@01@AEBT__m128@@2_NPEIAE4AEAEAEAUGjkOutput@01@@Z 000000018006d0f0 f i GuCCDSweepPrimitives.obj
 0001:0006c160       ??$gjkPenetration@U?$RelativeConvex@VCapsuleV@Gu@physx@@@Gu@physx@@U?$LocalConvex@VBoxV@Gu@physx@@@23@@Gu@physx@@YA?AW4GjkStatus@01@AEBU?$RelativeConvex@VCapsuleV@Gu@physx@@@01@AEBU?$LocalConvex@VBoxV@Gu@physx@@@01@AEBT__m128@@2_NPEIAE4PEIAT5@5AEAEAEAUGjkOutput@01@@Z 000000018006d160 f i GuCCDSweepPrimitives.obj
 0001:0006d660       ??$gjkPenetration@U?$RelativeConvex@VCapsuleV@Gu@physx@@@Gu@physx@@U?$LocalConvex@VCapsuleV@Gu@physx@@@23@@Gu@physx@@YA?AW4GjkStatus@01@AEBU?$RelativeConvex@VCapsuleV@Gu@physx@@@01@AEBU?$LocalConvex@VCapsuleV@Gu@physx@@@01@AEBT__m128@@2_NPEIAE4AEAEAEAUGjkOutput@01@@Z 000000018006e660 f i GuCCDSweepPrimitives.obj
 0001:0006d6d0       ??$gjkPenetration@U?$RelativeConvex@VCapsuleV@Gu@physx@@@Gu@physx@@U?$LocalConvex@VCapsuleV@Gu@physx@@@23@@Gu@physx@@YA?AW4GjkStatus@01@AEBU?$RelativeConvex@VCapsuleV@Gu@physx@@@01@AEBU?$LocalConvex@VCapsuleV@Gu@physx@@@01@AEBT__m128@@2_NPEIAE4PEIAT5@5AEAEAEAUGjkOutput@01@@Z 000000018006e6d0 f i GuCCDSweepPrimitives.obj
 0001:0006ebc0       ??$gjkPenetration@U?$RelativeConvex@VCapsuleV@Gu@physx@@@Gu@physx@@U?$LocalConvex@VConvexHullV@Gu@physx@@@23@@Gu@physx@@YA?AW4GjkStatus@01@AEBU?$RelativeConvex@VCapsuleV@Gu@physx@@@01@AEBU?$LocalConvex@VConvexHullV@Gu@physx@@@01@AEBT__m128@@2_NPEIAE4AEAEAEAUGjkOutput@01@@Z 000000018006fbc0 f i GuCCDSweepPrimitives.obj
 0001:0006ec30       ??$gjkPenetration@U?$RelativeConvex@VCapsuleV@Gu@physx@@@Gu@physx@@U?$LocalConvex@VConvexHullV@Gu@physx@@@23@@Gu@physx@@YA?AW4GjkStatus@01@AEBU?$RelativeConvex@VCapsuleV@Gu@physx@@@01@AEBU?$LocalConvex@VConvexHullV@Gu@physx@@@01@AEBT__m128@@2_NPEIAE4PEIAT5@5AEAEAEAUGjkOutput@01@@Z 000000018006fc30 f i GuCCDSweepPrimitives.obj
 0001:000701e0       ??$gjkPenetration@U?$RelativeConvex@VTriangleV@Gu@physx@@@Gu@physx@@U?$LocalConvex@VBoxV@Gu@physx@@@23@@Gu@physx@@YA?AW4GjkStatus@01@AEBU?$RelativeConvex@VTriangleV@Gu@physx@@@01@AEBU?$LocalConvex@VBoxV@Gu@physx@@@01@AEBT__m128@@2_NPEIAE4AEAEAEAUGjkOutput@01@@Z 00000001800711e0 f i GuCCDSweepPrimitives.obj
 0001:00070250       ??$gjkPenetration@U?$RelativeConvex@VTriangleV@Gu@physx@@@Gu@physx@@U?$LocalConvex@VBoxV@Gu@physx@@@23@@Gu@physx@@YA?AW4GjkStatus@01@AEBU?$RelativeConvex@VTriangleV@Gu@physx@@@01@AEBU?$LocalConvex@VBoxV@Gu@physx@@@01@AEBT__m128@@2_NPEIAE4PEIAT5@5AEAEAEAUGjkOutput@01@@Z 0000000180071250 f i GuCCDSweepPrimitives.obj
 0001:00071770       ??$gjkPenetration@U?$RelativeConvex@VTriangleV@Gu@physx@@@Gu@physx@@U?$LocalConvex@VCapsuleV@Gu@physx@@@23@@Gu@physx@@YA?AW4GjkStatus@01@AEBU?$RelativeConvex@VTriangleV@Gu@physx@@@01@AEBU?$LocalConvex@VCapsuleV@Gu@physx@@@01@AEBT__m128@@2_NPEIAE4AEAEAEAUGjkOutput@01@@Z 0000000180072770 f i GuCCDSweepPrimitives.obj
 0001:000717e0       ??$gjkPenetration@U?$RelativeConvex@VTriangleV@Gu@physx@@@Gu@physx@@U?$LocalConvex@VCapsuleV@Gu@physx@@@23@@Gu@physx@@YA?AW4GjkStatus@01@AEBU?$RelativeConvex@VTriangleV@Gu@physx@@@01@AEBU?$LocalConvex@VCapsuleV@Gu@physx@@@01@AEBT__m128@@2_NPEIAE4PEIAT5@5AEAEAEAUGjkOutput@01@@Z 00000001800727e0 f i GuCCDSweepPrimitives.obj
 0001:00072d00       ??$gjkPenetration@U?$RelativeConvex@VTriangleV@Gu@physx@@@Gu@physx@@U?$LocalConvex@VConvexHullV@Gu@physx@@@23@@Gu@physx@@YA?AW4GjkStatus@01@AEBU?$RelativeConvex@VTriangleV@Gu@physx@@@01@AEBU?$LocalConvex@VConvexHullV@Gu@physx@@@01@AEBT__m128@@2_NPEIAE4AEAEAEAUGjkOutput@01@@Z 0000000180073d00 f i GuCCDSweepPrimitives.obj
 0001:00072d70       ??$gjkPenetration@U?$RelativeConvex@VTriangleV@Gu@physx@@@Gu@physx@@U?$LocalConvex@VConvexHullV@Gu@physx@@@23@@Gu@physx@@YA?AW4GjkStatus@01@AEBU?$RelativeConvex@VTriangleV@Gu@physx@@@01@AEBU?$LocalConvex@VConvexHullV@Gu@physx@@@01@AEBT__m128@@2_NPEIAE4PEIAT5@5AEAEAEAUGjkOutput@01@@Z 0000000180073d70 f i GuCCDSweepPrimitives.obj
 0001:00074330       ??$gjkRaycast@U?$RelativeConvex@VCapsuleV@Gu@physx@@@Gu@physx@@U?$LocalConvex@VBoxV@Gu@physx@@@23@@Gu@physx@@YA_NAEBU?$RelativeConvex@VCapsuleV@Gu@physx@@@01@AEBU?$LocalConvex@VBoxV@Gu@physx@@@01@AEBT__m128@@222AEAT4@33M@Z 0000000180075330 f i GuCCDSweepPrimitives.obj
 0001:00074fa0       ??$gjkRaycast@U?$RelativeConvex@VCapsuleV@Gu@physx@@@Gu@physx@@U?$LocalConvex@VCapsuleV@Gu@physx@@@23@@Gu@physx@@YA_NAEBU?$RelativeConvex@VCapsuleV@Gu@physx@@@01@AEBU?$LocalConvex@VCapsuleV@Gu@physx@@@01@AEBT__m128@@222AEAT4@33M@Z 0000000180075fa0 f i GuCCDSweepPrimitives.obj
 0001:00075c90       ??$gjkRaycast@U?$RelativeConvex@VCapsuleV@Gu@physx@@@Gu@physx@@U?$LocalConvex@VConvexHullV@Gu@physx@@@23@@Gu@physx@@YA_NAEBU?$RelativeConvex@VCapsuleV@Gu@physx@@@01@AEBU?$LocalConvex@VConvexHullV@Gu@physx@@@01@AEBT__m128@@222AEAT4@33M@Z 0000000180076c90 f i GuCCDSweepPrimitives.obj
 0001:00076a90       ??$gjkRaycast@U?$RelativeConvex@VTriangleV@Gu@physx@@@Gu@physx@@U?$LocalConvex@VBoxV@Gu@physx@@@23@@Gu@physx@@YA_NAEBU?$RelativeConvex@VTriangleV@Gu@physx@@@01@AEBU?$LocalConvex@VBoxV@Gu@physx@@@01@AEBT__m128@@222AEAT4@33M@Z 0000000180077a90 f i GuCCDSweepPrimitives.obj
 0001:000777a0       ??$gjkRaycast@U?$RelativeConvex@VTriangleV@Gu@physx@@@Gu@physx@@U?$LocalConvex@VCapsuleV@Gu@physx@@@23@@Gu@physx@@YA_NAEBU?$RelativeConvex@VTriangleV@Gu@physx@@@01@AEBU?$LocalConvex@VCapsuleV@Gu@physx@@@01@AEBT__m128@@222AEAT4@33M@Z 00000001800787a0 f i GuCCDSweepPrimitives.obj
 0001:00078520       ??$gjkRaycast@U?$RelativeConvex@VTriangleV@Gu@physx@@@Gu@physx@@U?$LocalConvex@VConvexHullV@Gu@physx@@@23@@Gu@physx@@YA_NAEBU?$RelativeConvex@VTriangleV@Gu@physx@@@01@AEBU?$LocalConvex@VConvexHullV@Gu@physx@@@01@AEBT__m128@@222AEAT4@33M@Z 0000000180079520 f i GuCCDSweepPrimitives.obj
 0001:000793e0       ?SweepShapeShape@Gu@physx@@YAMAEBUCCDShape@12@0AEBUPxTransformPadded@2@111MAEAV?$PxVec3T@M@2@2MAEAIM@Z 000000018007a3e0 f   GuCCDSweepPrimitives.obj
 0001:00079400       ?SweepShapeTriangle@Gu@physx@@YAMAEBVPxGeometry@2@0AEBUPxTransformPadded@2@111MAEAV?$PxVec3T@M@2@2AEBVFastVertex2ShapeScaling@Cm@2@AEAVTriangleV@12@M@Z 000000018007a400 f   GuCCDSweepPrimitives.obj
 0001:00079420       ?barycentricCoordinates@Gu@physx@@YAXAEBT__m128@@000AEAT3@1@Z 000000018007a420 f   GuBarycentricCoordinates.obj
 0001:00079560       ?barycentricCoordinates@Gu@physx@@YAXAEBT__m128@@00AEAT3@@Z 000000018007a560 f   GuBarycentricCoordinates.obj
 0001:000795d0       ??$?_UV?$PxReflectionAllocator@VAdjTriangle@Gu@physx@@@physx@@@PxUserAllocated@physx@@SAPEAX_KV?$PxReflectionAllocator@VAdjTriangle@Gu@physx@@@1@PEBDH@Z 000000018007a5d0 f i GuAdjacencies.obj
 0001:000796b0       ??0AdjacenciesBuilder@Gu@physx@@QEAA@XZ 000000018007a6b0 f   GuAdjacencies.obj
 0001:000796c0       ??1AdjacenciesBuilder@Gu@physx@@QEAA@XZ 000000018007a6c0 f   GuAdjacencies.obj
 0001:00079810       ?ComputeNbBoundaryEdges@Adjacencies@Gu@physx@@QEBAIXZ 000000018007a810 f   GuAdjacencies.obj
 0001:00079aa0       ?Init@AdjacenciesBuilder@Gu@physx@@QEAA_NAEBUADJACENCIESCREATE@23@@Z 000000018007aaa0 f   GuAdjacencies.obj
 0001:0007a000       ??0EdgeList@Gu@physx@@QEAA@XZ 000000018007b000 f   GuEdgeList.obj
 0001:0007a020       ??1EdgeList@Gu@physx@@QEAA@XZ 000000018007b020 f   GuEdgeList.obj
 0001:0007a0d0       ?computeActiveEdges@EdgeList@Gu@physx@@AEAA_NIPEBIPEBGPEBV?$PxVec3T@M@3@M@Z 000000018007b0d0 f   GuEdgeList.obj
 0001:0007b450       ?createEdgesToFaces@EdgeList@Gu@physx@@AEAA_NIPEBIPEBG@Z 000000018007c450 f   GuEdgeList.obj
 0001:0007b6b0       ?createFacesToEdges@EdgeList@Gu@physx@@AEAA_NIPEBIPEBG@Z 000000018007c6b0 f   GuEdgeList.obj
 0001:0007ba80       ?init@EdgeList@Gu@physx@@QEAA_NAEBUEDGELISTCREATE@23@@Z 000000018007ca80 f   GuEdgeList.obj
 0001:0007bbb0       ?addAxis@SeparatingAxes@Gu@physx@@QEAA_NAEBV?$PxVec3T@M@3@@Z 000000018007cbb0 f   GuSeparatingAxes.obj
 0001:0007bc70       ??$kmeans_cluster@V?$PxVec3T@M@physx@@M@@YAIPEBV?$PxVec3T@M@physx@@IIPEAV01@PEAIMM@Z 000000018007cc70 f i GuQuantizer.obj
 0001:0007c630       ??_EQuantizer@Gu@physx@@MEAAPEAXI@Z 000000018007d630 f i GuQuantizer.obj
 0001:0007c630       ??_GQuantizer@Gu@physx@@MEAAPEAXI@Z 000000018007d630 f i GuQuantizer.obj
 0001:0007c660       ??_EQuantizerImpl@@EEAAPEAXI@Z 000000018007d660 f i GuQuantizer.obj
 0001:0007c660       ??_GQuantizerImpl@@EEAAPEAXI@Z 000000018007d660 f i GuQuantizer.obj
 0001:0007c730       ?createQuantizer@Gu@physx@@YAPEAVQuantizer@12@XZ 000000018007d730 f   GuQuantizer.obj
 0001:0007c7e0       ?getDenormalizeCenter@QuantizerImpl@@UEBAAEBV?$PxVec3T@M@physx@@XZ 000000018007d7e0 f i GuQuantizer.obj
 0001:0007c7f0       ?getCurrentAABBTreeBounds@PruningPool@Gu@physx@@QEBAAEBVAABBTreeBounds@23@XZ 000000018007d7f0 f i GuIncrementalAABBPrunerCore.obj
 0001:0007c7f0       ?getDenormalizeScale@QuantizerImpl@@UEBAAEBV?$PxVec3T@M@physx@@XZ 000000018007d7f0 f i GuQuantizer.obj
 0001:0007c800       ?kmeansQuantize3D@QuantizerImpl@@UEAAPEBV?$PxVec3T@M@physx@@IPEBV23@I_NIAEAI@Z 000000018007d800 f i GuQuantizer.obj
 0001:0007ca70       ?normalizeInput@QuantizerImpl@@AEAAXIPEBV?$PxVec3T@M@physx@@I@Z 000000018007da70 f i GuQuantizer.obj
 0001:0007cec0       ?release@QuantizerImpl@@UEAAXXZ 000000018007dec0 f i GuQuantizer.obj
 0001:0007cee0       ??0MeshCleaner@Gu@physx@@QEAA@IPEBV?$PxVec3T@M@2@IPEBIMM@Z 000000018007dee0 f   GuMeshCleaner.obj
 0001:0007d8b0       ??1MeshCleaner@Gu@physx@@QEAA@XZ 000000018007e8b0 f   GuMeshCleaner.obj
 0001:0007d940       ??0ReducedVertexCloud@Gu@physx@@QEAA@PEBV?$PxVec3T@M@2@I@Z 000000018007e940 f   GuVertexReducer.obj
 0001:0007d960       ??1ReducedVertexCloud@Gu@physx@@QEAA@XZ 000000018007e960 f   GuVertexReducer.obj
 0001:0007d970       ?clean@ReducedVertexCloud@Gu@physx@@QEAAAEAV123@XZ 000000018007e970 f   GuVertexReducer.obj
 0001:0007d9e0       ?reduce@ReducedVertexCloud@Gu@physx@@QEAA_NPEAUREDUCEDCLOUD@23@@Z 000000018007e9e0 f   GuVertexReducer.obj
 0001:0007dc80       ?buildConsistentTriangleOrientationMap@MeshAnalyzer@Gu@physx@@SA_NPEBU?$IndexedTriangleT@H@23@IAEAV?$PxArray@_NV?$PxReflectionAllocator@_N@physx@@@3@AEAV?$PxHashMap@_KHU?$PxHash@_K@physx@@VPxAllocator@2@@3@AEAV?$PxArray@V?$PxArray@IV?$PxReflectionAllocator@I@physx@@@physx@@V?$PxReflectionAllocator@V?$PxArray@IV?$PxReflectionAllocator@I@physx@@@physx@@@2@@3@@Z 000000018007ec80 f   GuMeshAnalysis.obj
 0001:0007e030       ?buildTriangleAdjacency@MeshAnalyzer@Gu@physx@@SA_NPEBU?$IndexedTriangleT@H@23@IAEAV?$PxArray@HV?$PxReflectionAllocator@H@physx@@@3@AEAV?$PxHashMap@_KHU?$PxHash@_K@physx@@VPxAllocator@2@@3@@Z 000000018007f030 f   GuMeshAnalysis.obj
 0001:0007e330       ?checkConsistentTriangleOrientation@MeshAnalyzer@Gu@physx@@SA_NPEBU?$IndexedTriangleT@H@23@I@Z 000000018007f330 f   GuMeshAnalysis.obj
 0001:0007e480       ?checkMeshWatertightness@MeshAnalyzer@Gu@physx@@SA_NPEBU?$IndexedTriangleT@H@23@I_N@Z 000000018007f480 f   GuMeshAnalysis.obj
 0001:0007e660       ?destroy@?$PxArray@V?$PxArray@IV?$PxReflectionAllocator@I@physx@@@physx@@V?$PxReflectionAllocator@V?$PxArray@IV?$PxReflectionAllocator@I@physx@@@physx@@@2@@physx@@KAXPEAV?$PxArray@IV?$PxReflectionAllocator@I@physx@@@2@0@Z 000000018007f660 f i GuMeshAnalysis.obj
 0001:0007e6d0       ?erase@?$PxHashBase@V?$PxPair@$$CB_KH@physx@@_KU?$PxHash@_K@2@UGetKey@?$PxHashMapBase@_KHU?$PxHash@_K@physx@@VPxAllocator@2@@2@VPxAllocator@2@$00@physx@@QEAA_NAEB_K@Z 000000018007f6d0 f i GuMeshAnalysis.obj
 0001:0007e880       ?growAndPushBack@?$PxArray@V?$PxArray@IV?$PxReflectionAllocator@I@physx@@@physx@@V?$PxReflectionAllocator@V?$PxArray@IV?$PxReflectionAllocator@I@physx@@@physx@@@2@@physx@@IEAAAEAV?$PxArray@IV?$PxReflectionAllocator@I@physx@@@2@AEBV32@@Z 000000018007f880 f i GuMeshAnalysis.obj
 0001:0007e9d0       ?makeTriOrientationConsistent@MeshAnalyzer@Gu@physx@@SA_NPEAU?$IndexedTriangleT@H@23@I_N@Z 000000018007f9d0 f   GuMeshAnalysis.obj
 0001:0007eb50       ?recreate@?$PxArray@_NV?$PxReflectionAllocator@_N@physx@@@physx@@IEAAXI@Z 000000018007fb50 f i GuMeshAnalysis.obj
 0001:0007ec40       ?resize@?$PxArray@HV?$PxReflectionAllocator@H@physx@@@physx@@QEAAXIAEBH@Z 000000018007fc40 f i GuMeshAnalysis.obj
 0001:0007ed00       ?resize@?$PxArray@_NV?$PxReflectionAllocator@_N@physx@@@physx@@QEAAXIAEB_N@Z 000000018007fd00 f i GuMeshAnalysis.obj
 0001:0007edc0       ?contactBoxBox@Gu@physx@@YA_NAEBVPxGeometry@2@0AEBUPxTransformPadded@2@1AEBUNarrowPhaseParams@12@AEAUCache@12@AEAVPxContactBuffer@2@PEAVPxRenderOutput@2@@Z 000000018007fdc0 f   GuContactBoxBox.obj
 0001:00082c00       ?contactCapsuleBox@Gu@physx@@YA_NAEBVPxGeometry@2@0AEBUPxTransformPadded@2@1AEBUNarrowPhaseParams@12@AEAUCache@12@AEAVPxContactBuffer@2@PEAVPxRenderOutput@2@@Z 0000000180083c00 f   GuContactCapsuleBox.obj
 0001:00083410       ?contactCapsuleCapsule@Gu@physx@@YA_NAEBVPxGeometry@2@0AEBUPxTransformPadded@2@1AEBUNarrowPhaseParams@12@AEAUCache@12@AEAVPxContactBuffer@2@PEAVPxRenderOutput@2@@Z 0000000180084410 f   GuContactCapsuleCapsule.obj
 0001:00085e00       ?contactCapsuleConvex@Gu@physx@@YA_NAEBVPxGeometry@2@0AEBUPxTransformPadded@2@1AEBUNarrowPhaseParams@12@AEAUCache@12@AEAVPxContactBuffer@2@PEAVPxRenderOutput@2@@Z 0000000180086e00 f   GuContactCapsuleConvex.obj
 0001:00088330       ?contactCapsuleHeightfield@Gu@physx@@YA_NAEBVPxGeometry@2@0AEBUPxTransformPadded@2@1AEBUNarrowPhaseParams@12@AEAUCache@12@AEAVPxContactBuffer@2@PEAVPxRenderOutput@2@@Z 0000000180089330 f   GuContactCapsuleMesh.obj
 0001:00088b70       ?contactCapsuleMesh@Gu@physx@@YA_NAEBVPxGeometry@2@0AEBUPxTransformPadded@2@1AEBUNarrowPhaseParams@12@AEAUCache@12@AEAVPxContactBuffer@2@PEAVPxRenderOutput@2@@Z 0000000180089b70 f   GuContactCapsuleMesh.obj
 0001:00089cf0       ?transformQueryBounds@FastVertex2ShapeScaling@Cm@physx@@QEBAXAEAV?$PxVec3T@M@3@0AEAV?$PxMat33T@M@3@@Z 000000018008acf0 f i GuContactCapsuleMesh.obj
 0001:0008e250       ?contactBoxConvex@Gu@physx@@YA_NAEBVPxGeometry@2@0AEBUPxTransformPadded@2@1AEBUNarrowPhaseParams@12@AEAUCache@12@AEAVPxContactBuffer@2@PEAVPxRenderOutput@2@@Z 000000018008f250 f   GuContactConvexConvex.obj
 0001:0008e420       ?contactConvexConvex@Gu@physx@@YA_NAEBVPxGeometry@2@0AEBUPxTransformPadded@2@1AEBUNarrowPhaseParams@12@AEAUCache@12@AEAVPxContactBuffer@2@PEAVPxRenderOutput@2@@Z 000000018008f420 f   GuContactConvexConvex.obj
 0001:0008e8a0       ?transformPlaneToShapeSpace@FastVertex2ShapeScaling@Cm@physx@@QEBAXAEBV?$PxVec3T@M@3@MAEAV43@AEAM@Z 000000018008f8a0 f i GuContactConvexConvex.obj
 0001:0008ed50       ??_EConvexMeshContactGenerationCallback@@UEAAPEAXI@Z 000000018008fd50 f i GuContactConvexMesh.obj
 0001:0008ed50       ??_GConvexMeshContactGenerationCallback@@UEAAPEAXI@Z 000000018008fd50 f i GuContactConvexMesh.obj
 0001:0008edb0       ?addData@?$CacheMap@UCachedEdge@Gu@physx@@$0IA@@Gu@physx@@QEAA_NAEBUCachedEdge@23@@Z 000000018008fdb0 f i GuContactConvexMesh.obj
 0001:0008ee90       ?addData@?$CacheMap@UCachedVertex@Gu@physx@@$0IA@@Gu@physx@@QEAA_NAEBUCachedVertex@23@@Z 000000018008fe90 f i GuContactConvexMesh.obj
 0001:0008ef20       ?allocate@?$PxArray@IV?$PxInlineAllocator@$0BBAA@V?$PxReflectionAllocator@I@physx@@@physx@@@physx@@IEAAPEAII@Z 000000018008ff20 f i GuContactConvexMesh.obj
 0001:0008f320       ?contactBoxHeightfield@Gu@physx@@YA_NAEBVPxGeometry@2@0AEBUPxTransformPadded@2@1AEBUNarrowPhaseParams@12@AEAUCache@12@AEAVPxContactBuffer@2@PEAVPxRenderOutput@2@@Z 0000000180090320 f   GuContactConvexMesh.obj
 0001:0008f4a0       ?contactBoxMesh@Gu@physx@@YA_NAEBVPxGeometry@2@0AEBUPxTransformPadded@2@1AEBUNarrowPhaseParams@12@AEAUCache@12@AEAVPxContactBuffer@2@PEAVPxRenderOutput@2@@Z 00000001800904a0 f   GuContactConvexMesh.obj
 0001:0008f670       ?contactConvexHeightfield@Gu@physx@@YA_NAEBVPxGeometry@2@0AEBUPxTransformPadded@2@1AEBUNarrowPhaseParams@12@AEAUCache@12@AEAVPxContactBuffer@2@PEAVPxRenderOutput@2@@Z 0000000180090670 f   GuContactConvexMesh.obj
 0001:0008f7c0       ?contactConvexMesh@Gu@physx@@YA_NAEBVPxGeometry@2@0AEBUPxTransformPadded@2@1AEBUNarrowPhaseParams@12@AEAUCache@12@AEAVPxContactBuffer@2@PEAVPxRenderOutput@2@@Z 00000001800907c0 f   GuContactConvexMesh.obj
 0001:00092ee0       ?processHit@ConvexMeshContactGenerationCallback@@UEAA_NAEBUPxGeomRaycastHit@physx@@AEBV?$PxVec3T@M@3@11AEAMPEBI@Z 0000000180093ee0 f i GuContactConvexMesh.obj
 0001:000938a0       ?recreate@?$PxArray@IV?$PxInlineAllocator@$0BBAA@V?$PxReflectionAllocator@I@physx@@@physx@@@physx@@IEAAXI@Z 00000001800948a0 f i GuContactConvexMesh.obj
 0001:00094d40       ?contactPlaneBox@Gu@physx@@YA_NAEBVPxGeometry@2@0AEBUPxTransformPadded@2@1AEBUNarrowPhaseParams@12@AEAUCache@12@AEAVPxContactBuffer@2@PEAVPxRenderOutput@2@@Z 0000000180095d40 f   GuContactPlaneBox.obj
 0001:000959e0       ?contactPlaneCapsule@Gu@physx@@YA_NAEBVPxGeometry@2@0AEBUPxTransformPadded@2@1AEBUNarrowPhaseParams@12@AEAUCache@12@AEAVPxContactBuffer@2@PEAVPxRenderOutput@2@@Z 00000001800969e0 f   GuContactPlaneCapsule.obj
 0001:000960b0       ?contactPlaneConvex@Gu@physx@@YA_NAEBVPxGeometry@2@0AEBUPxTransformPadded@2@1AEBUNarrowPhaseParams@12@AEAUCache@12@AEAVPxContactBuffer@2@PEAVPxRenderOutput@2@@Z 00000001800970b0 f   GuContactPlaneConvex.obj
 0001:00097de0       ?contactPolygonPolygonExt@Gu@physx@@YA_NIPEBV?$PxVec3T@M@2@PEBEAEBV?$PxMat34T@M@2@AEBVPxPlane@2@AEBV?$PxMat33T@M@2@I01234AEBV32@22IIAEAVPxContactBuffer@2@_N5M@Z 0000000180098de0 f   GuContactPolygonPolygon.obj
 0001:00099550       ?findRotationMatrixFromZ@Gu@physx@@YA?AV?$PxMat33T@M@2@AEBV?$PxVec3T@M@2@@Z 000000018009a550 f   GuContactPolygonPolygon.obj
 0001:00099f70       ?contactSphereBox@Gu@physx@@YA_NAEBVPxGeometry@2@0AEBUPxTransformPadded@2@1AEBUNarrowPhaseParams@12@AEAUCache@12@AEAVPxContactBuffer@2@PEAVPxRenderOutput@2@@Z 000000018009af70 f   GuContactSphereBox.obj
 0001:0009a530       ?contactSphereCapsule@Gu@physx@@YA_NAEBVPxGeometry@2@0AEBUPxTransformPadded@2@1AEBUNarrowPhaseParams@12@AEAUCache@12@AEAVPxContactBuffer@2@PEAVPxRenderOutput@2@@Z 000000018009b530 f   GuContactSphereCapsule.obj
 0001:0009b310       ?contactSphereHeightfield@Gu@physx@@YA_NAEBVPxGeometry@2@0AEBUPxTransformPadded@2@1AEBUNarrowPhaseParams@12@AEAUCache@12@AEAVPxContactBuffer@2@PEAVPxRenderOutput@2@@Z 000000018009c310 f   GuContactSphereMesh.obj
 0001:0009bd00       ?contactSphereMesh@Gu@physx@@YA_NAEBVPxGeometry@2@0AEBUPxTransformPadded@2@1AEBUNarrowPhaseParams@12@AEAUCache@12@AEAVPxContactBuffer@2@PEAVPxRenderOutput@2@@Z 000000018009cd00 f   GuContactSphereMesh.obj
 0001:0009e020       ?contactSpherePlane@Gu@physx@@YA_NAEBVPxGeometry@2@0AEBUPxTransformPadded@2@1AEBUNarrowPhaseParams@12@AEAUCache@12@AEAVPxContactBuffer@2@PEAVPxRenderOutput@2@@Z 000000018009f020 f   GuContactSpherePlane.obj
 0001:0009e230       ?contactSphereSphere@Gu@physx@@YA_NAEBVPxGeometry@2@0AEBUPxTransformPadded@2@1AEBUNarrowPhaseParams@12@AEAUCache@12@AEAVPxContactBuffer@2@PEAVPxRenderOutput@2@@Z 000000018009f230 f   GuContactSphereSphere.obj
 0001:0009e3b0       ?contactCustomGeometryGeometry@Gu@physx@@YA_NAEBVPxGeometry@2@0AEBUPxTransformPadded@2@1AEBUNarrowPhaseParams@12@AEAUCache@12@AEAVPxContactBuffer@2@PEAVPxRenderOutput@2@@Z 000000018009f3b0 f   GuContactCustomGeometry.obj
 0001:0009e410       ?contactGeometryCustomGeometry@Gu@physx@@YA_NAEBVPxGeometry@2@0AEBUPxTransformPadded@2@1AEBUNarrowPhaseParams@12@AEAUCache@12@AEAVPxContactBuffer@2@PEAVPxRenderOutput@2@@Z 000000018009f410 f   GuContactCustomGeometry.obj
 0001:0009e4d0       ?selectNormal@Gu@physx@@YA_NEMM@Z 000000018009f4d0 f   GuFeatureCode.obj
 0001:0009e550       ??0BigConvexData@physx@@QEAA@XZ 000000018009f550 f   GuBigConvexData.obj
 0001:0009e570       ??1BigConvexData@physx@@QEAA@XZ 000000018009f570 f   GuBigConvexData.obj
 0001:0009e630       ?ComputeNearestOffset@BigConvexData@physx@@QEBAIAEBV?$PxVec3T@M@2@@Z 000000018009f630 f   GuBigConvexData.obj
 0001:0009e730       ?ComputeOffset@BigConvexData@physx@@QEBAIAEBV?$PxVec3T@M@2@@Z 000000018009f730 f   GuBigConvexData.obj
 0001:0009e830       ?CreateOffsets@BigConvexData@physx@@IEAAXXZ 000000018009f830 f   GuBigConvexData.obj
 0001:0009e880       ?Load@BigConvexData@physx@@QEAA_NAEAVPxInputStream@2@@Z 000000018009f880 f   GuBigConvexData.obj
 0001:0009e990       ?VLoad@BigConvexData@physx@@IEAA_NAEAVPxInputStream@2@@Z 000000018009f990 f   GuBigConvexData.obj
 0001:0009eb30       ?exportExtraData@BigConvexData@physx@@QEAAXAEAVPxSerializationContext@2@@Z 000000018009fb30 f   GuBigConvexData.obj
 0001:0009ebb0       ?importExtraData@BigConvexData@physx@@QEAAXAEAVPxDeserializationContext@2@@Z 000000018009fbb0 f   GuBigConvexData.obj
 0001:0009ec20       ?findUniqueConvexEdges@Gu@physx@@YAIIPEIAUConvexEdge@12@IPEIBUHullPolygonData@12@PEIBE@Z 000000018009fc20 f   GuConvexHelper.obj
 0001:0009ed60       ?getConvexData@Gu@physx@@YA_NAEBVPxConvexMeshGeometry@2@AEAVFastVertex2ShapeScaling@Cm@2@AEAVPxBounds3@2@AEAUPolygonalData@12@@Z 000000018009fd60 f   GuConvexHelper.obj
 0001:0009eff0       ?getScaledConvex@Gu@physx@@YAXAEAPEAV?$PxVec3T@M@2@AEAPEAEPEAV32@PEAE_NPEBV32@PEBEIAEBVFastVertex2ShapeScaling@Cm@2@@Z 000000018009fff0 f   GuConvexHelper.obj
 0001:0009f120       ??0ConvexMesh@Gu@physx@@QEAA@PEAVMeshFactory@12@@Z 00000001800a0120 f   GuConvexMesh.obj
 0001:0009f1b0       ??0ConvexMesh@Gu@physx@@QEAA@PEAVMeshFactory@12@AEAUConvexHullInitData@12@@Z 00000001800a01b0 f   GuConvexMesh.obj
 0001:0009f2e0       ??_EConvexMesh@Gu@physx@@UEAAPEAXI@Z 00000001800a02e0 f i GuConvexMesh.obj
 0001:0009f2e0       ??_GConvexMesh@Gu@physx@@UEAAPEAXI@Z 00000001800a02e0 f i GuConvexMesh.obj
 0001:0009f3f0       ??_EPxBVH@physx@@MEAAPEAXI@Z 00000001800a03f0 f i GuBVH.obj
 0001:0009f3f0       ??_EPxBase@physx@@MEAAPEAXI@Z 00000001800a03f0 f i GuConvexMesh.obj
 0001:0009f3f0       ??_GPxBVH@physx@@MEAAPEAXI@Z 00000001800a03f0 f i GuBVH.obj
 0001:0009f3f0       ??_GPxBase@physx@@MEAAPEAXI@Z 00000001800a03f0 f i GuConvexMesh.obj
 0001:0009f420       ?acquireReference@ConvexMesh@Gu@physx@@UEAAXXZ 00000001800a0420 f   GuConvexMesh.obj
 0001:0009f420       ?acquireReference@HeightField@Gu@physx@@UEAAXXZ 00000001800a0420 f   GuHeightField.obj
 0001:0009f420       ?acquireReference@SoftBodyAuxData@Gu@physx@@UEAAXXZ 00000001800a0420 f   GuTetrahedronMesh.obj
 0001:0009f420       ?acquireReference@SoftBodyMesh@Gu@physx@@UEAAXXZ 00000001800a0420 f   GuTetrahedronMesh.obj
 0001:0009f420       ?acquireReference@TetrahedronMesh@Gu@physx@@UEAAXXZ 00000001800a0420 f   GuTetrahedronMesh.obj
 0001:0009f420       ?acquireReference@TriangleMesh@Gu@physx@@UEAAXXZ 00000001800a0420 f   GuTriangleMesh.obj
 0001:0009f8f0       ?createObject@ConvexMesh@Gu@physx@@SAPEAV123@AEAPEAEAEAVPxDeserializationContext@3@@Z 00000001800a08f0 f   GuConvexMesh.obj
 0001:0009fa10       ?exportExtraData@ConvexMesh@Gu@physx@@UEAAXAEAVPxSerializationContext@3@@Z 00000001800a0a10 f   GuConvexMesh.obj
 0001:0009fb10       ?getConcreteTypeName@PxConvexMesh@physx@@UEBAPEBDXZ 00000001800a0b10 f i GuConvexMesh.obj
 0001:0009fb20       ?getIndexBuffer@ConvexMesh@Gu@physx@@UEBAPEBEXZ 00000001800a0b20 f i GuConvexMesh.obj
 0001:0009fb60       ?getLocalBounds@ConvexMesh@Gu@physx@@UEBA?AVPxBounds3@3@XZ 00000001800a0b60 f   GuConvexMesh.obj
 0001:0009fbf0       ?getMassInformation@ConvexMesh@Gu@physx@@UEBAXAEAMAEAV?$PxMat33T@M@3@AEAV?$PxVec3T@M@3@@Z 00000001800a0bf0 f   GuConvexMesh.obj
 0001:0009fc60       ?getNbPolygons@ConvexMesh@Gu@physx@@UEBAIXZ 00000001800a0c60 f i GuConvexMesh.obj
 0001:0009fc70       ?getNbVertices@ConvexMesh@Gu@physx@@UEBAIXZ 00000001800a0c70 f i GuConvexMesh.obj
 0001:0009fc80       ?getPolygonData@ConvexMesh@Gu@physx@@UEBA_NIAEAUPxHullPolygon@3@@Z 00000001800a0c80 f   GuConvexMesh.obj
 0001:0009fcd0       ?getReferenceCount@ConvexMesh@Gu@physx@@UEBAIXZ 00000001800a0cd0 f   GuConvexMesh.obj
 0001:0009fcd0       ?getReferenceCount@HeightField@Gu@physx@@UEBAIXZ 00000001800a0cd0 f   GuHeightField.obj
 0001:0009fcd0       ?getReferenceCount@SoftBodyAuxData@Gu@physx@@UEBAIXZ 00000001800a0cd0 f   GuTetrahedronMesh.obj
 0001:0009fcd0       ?getReferenceCount@SoftBodyMesh@Gu@physx@@UEBAIXZ 00000001800a0cd0 f   GuTetrahedronMesh.obj
 0001:0009fcd0       ?getReferenceCount@TetrahedronMesh@Gu@physx@@UEBAIXZ 00000001800a0cd0 f   GuTetrahedronMesh.obj
 0001:0009fcd0       ?getReferenceCount@TriangleMesh@Gu@physx@@UEBAIXZ 00000001800a0cd0 f   GuTriangleMesh.obj
 0001:0009fcd0       ?length@DNameStatusNode@@UEBAHXZ 00000001800a0cd0 f   libvcruntime:undname.obj
 0001:0009fcd0       ?raw_length@DNameStatusNode@@UEBAHXZ 00000001800a0cd0 f   libvcruntime:undname.obj
 0001:0009fce0       ?getSDF@ConvexMesh@Gu@physx@@UEBAPEBMXZ 00000001800a0ce0 f   GuConvexMesh.obj
 0001:0009fcf0       ?getVertices@ConvexMesh@Gu@physx@@UEBAPEBV?$PxVec3T@M@3@XZ 00000001800a0cf0 f i GuConvexMesh.obj
 0001:0009fd10       ?isGpuCompatible@ConvexMesh@Gu@physx@@UEBA_NXZ 00000001800a0d10 f   GuConvexMesh.obj
 0001:0009fd50       ?isKindOf@PxBase@physx@@MEBA_NPEBD@Z 00000001800a0d50 f i GuConvexMesh.obj
 0001:0009fd70       ?isKindOf@PxConvexMesh@physx@@MEBA_NPEBD@Z 00000001800a0d70 f i GuConvexMesh.obj
 0001:0009fe00       ?isReleasable@PxBase@physx@@UEBA_NXZ 00000001800a0e00 f i GuConvexMesh.obj
 0001:0009fe10       ?load@ConvexMesh@Gu@physx@@QEAA_NAEAVPxInputStream@3@@Z 00000001800a0e10 f   GuConvexMesh.obj
 0001:000a0370       ?onRefCountZero@ConvexMesh@Gu@physx@@UEAAXXZ 00000001800a1370 f   GuConvexMesh.obj
 0001:000a04a0       ?release@ConvexMesh@Gu@physx@@UEAAXXZ 00000001800a14a0 f   GuConvexMesh.obj
 0001:000a04a0       ?release@HeightField@Gu@physx@@UEAAXXZ 00000001800a14a0 f   GuHeightField.obj
 0001:000a04a0       ?release@SoftBodyAuxData@Gu@physx@@UEAAXXZ 00000001800a14a0 f   GuTetrahedronMesh.obj
 0001:000a04a0       ?release@SoftBodyMesh@Gu@physx@@UEAAXXZ 00000001800a14a0 f   GuTetrahedronMesh.obj
 0001:000a04a0       ?release@TetrahedronMesh@Gu@physx@@UEAAXXZ 00000001800a14a0 f   GuTetrahedronMesh.obj
 0001:000a04a0       ?release@TriangleMesh@Gu@physx@@UEAAXXZ 00000001800a14a0 f   GuTriangleMesh.obj
 0001:000a04d0       ??Dphysx@@YA?AV?$PxMat34T@M@0@AEBVPxMeshScale@0@AEBV10@@Z 00000001800a14d0 f i GuConvexUtilsInternal.obj
 0001:000a0a70       ?computeHullOBB@Gu@physx@@YAXAEAVBox@12@AEBVPxBounds3@2@MAEBV?$PxMat34T@M@2@2AEBVFastVertex2ShapeScaling@Cm@2@_N@Z 00000001800a1a70 f   GuConvexUtilsInternal.obj
 0001:000a0f20       ?computeOBBAroundConvex@Gu@physx@@YAXAEAVBox@12@AEBVPxConvexMeshGeometry@2@PEBVPxConvexMesh@2@AEBV?$PxTransformT@M@2@@Z 00000001800a1f20 f   GuConvexUtilsInternal.obj
 0001:000a1790       ?computeVertexSpaceOBB@Gu@physx@@YAXAEAVBox@12@AEBV312@AEBV?$PxTransformT@M@2@AEBVPxMeshScale@2@@Z 00000001800a2790 f   GuConvexUtilsInternal.obj
 0001:000a1ac0       ?transform@physx@@YA?AVBox@Gu@1@AEBV?$PxMat34T@M@1@AEBV231@@Z 00000001800a2ac0 f i GuConvexUtilsInternal.obj
 0001:000a1d10       ?localSearch@physx@@YAXAEAIAEBV?$PxVec3T@M@1@PEBV21@PEBUBigConvexRawData@Gu@1@@Z 00000001800a2d10 f   GuHillClimbing.obj
 0001:000a1e40       ??0PCMPolygonalBox@Gu@physx@@QEAA@AEBV?$PxVec3T@M@2@@Z 00000001800a2e40 f   GuPCMShapeConvex.obj
 0001:000a1e40       ??0PolygonalBox@Gu@physx@@QEAA@AEBV?$PxVec3T@M@2@@Z 00000001800a2e40 f   GuShapeConvex.obj
 0001:000a3300       ?getPolygonalData@PolygonalBox@Gu@physx@@QEBAXPEIAUPolygonalData@23@@Z 00000001800a4300 f   GuShapeConvex.obj
 0001:000a3370       ?getPolygonalData_Convex@Gu@physx@@YAXPEIAUPolygonalData@12@PEIBUConvexHullData@12@AEBVFastVertex2ShapeScaling@Cm@2@@Z 00000001800a4370 f   GuShapeConvex.obj
 0001:000a34d0       ?distancePointBoxSquared@Gu@physx@@YAMAEBV?$PxVec3T@M@2@00AEBV?$PxMat33T@M@2@PEAV32@@Z 00000001800a44d0 f   GuDistancePointBox.obj
 0001:000a3620       ?closestPtPointTriangle@Gu@physx@@YA?AV?$PxVec3T@M@2@AEBV32@000AEAM1@Z 00000001800a4620 f   GuDistancePointTriangle.obj
 0001:000a3b40       ?distancePointTriangleSquared2UnitBox@Gu@physx@@YA?AT__m128@@AEBT3@000AEAT3@11@Z 00000001800a4b40 f   GuDistancePointTriangle.obj
 0001:000a3c60       ?distancePointTriangleSquared@Gu@physx@@YA?AT__m128@@AEBT3@000AEAT3@11@Z 00000001800a4c60 f   GuDistancePointTriangle.obj
 0001:000a49b0       ?distanceSegmentBoxSquared@Gu@physx@@YAMAEBV?$PxVec3T@M@2@000AEBV?$PxMat33T@M@2@PEAMPEAV32@@Z 00000001800a59b0 f   GuDistanceSegmentBox.obj
 0001:000a5230       ?distanceSegmentSegmentSquared4@Gu@physx@@YA?AT__m128@@AEBT3@000000000AEAT3@1@Z 00000001800a6230 f   GuDistanceSegmentSegment.obj
 0001:000a5540       ?distanceSegmentSegmentSquared@Gu@physx@@YA?AT__m128@@AEBT3@000AEAT3@1@Z 00000001800a6540 f   GuDistanceSegmentSegment.obj
 0001:000a5700       ?distanceSegmentSegmentSquared@Gu@physx@@YAMAEBV?$PxVec3T@M@2@000PEAM1@Z 00000001800a6700 f   GuDistanceSegmentSegment.obj
 0001:000a5990       ?distanceSegmentSegmentSquared@Gu@physx@@YAMAEBV?$PxVec3T@M@2@0M00MPEAM1@Z 00000001800a6990 f   GuDistanceSegmentSegment.obj
 0001:000a60d0       ?distanceSegmentTriangleSquared@Gu@physx@@YA?AT__m128@@AEBT3@0000AEAT3@1@Z 00000001800a70d0 f   GuDistanceSegmentTriangle.obj
 0001:000a6810       ?distanceSegmentTriangleSquared@Gu@physx@@YAMAEBV?$PxVec3T@M@2@0000PEAM11@Z 00000001800a7810 f   GuDistanceSegmentTriangle.obj
 0001:000a7e80       ?distanceTriangleTriangleSquared@Gu@physx@@YAMAEAV?$PxVec3T@M@2@0QEBVPxVec3Padded@2@1@Z 00000001800a8e80 f   GuDistanceTriangleTriangle.obj
 0001:000a89a0       ?PointOutsideOfPlane4@Gu@physx@@YA?AV?$PxVec4T@M@2@AEBV?$PxVec3T@M@2@0000@Z 00000001800a99a0 f   GuDistancePointTetrahedron.obj
 0001:000a8e10       ?closestPtPointTetrahedron@Gu@physx@@YA?AV?$PxVec3T@M@2@AEBV32@0000AEBV?$PxVec4T@M@2@@Z 00000001800a9e10 f   GuDistancePointTetrahedron.obj
 0001:000a9f00       ?PenetrationDepth@EPA@Gu@physx@@QEAA?AW4GjkStatus@23@AEBUGjkConvex@23@0PEIBT__m128@@1E_NT6@AEAUGjkOutput@23@@Z 00000001800aaf00 f   GuEPA.obj
 0001:000aaa20       ?addFacet@EPA@Gu@physx@@QEAAPEAVFacet@23@IIIAEBT__m128@@@Z 00000001800aba20 f   GuEPA.obj
 0001:000aae50       ?epaPenetration@Gu@physx@@YA?AW4GjkStatus@12@AEBUGjkConvex@12@0PEIBE1E_NT__m128@@AEAUGjkOutput@12@@Z 00000001800abe50 f   GuEPA.obj
 0001:000aafc0       ?epaPenetration@Gu@physx@@YA?AW4GjkStatus@12@AEBUGjkConvex@12@0PEIBT__m128@@1E_NT5@AEAUGjkOutput@12@@Z 00000001800abfc0 f   GuEPA.obj
 0001:000ab070       ?silhouette@Facet@Gu@physx@@QEAAXAEBT__m128@@PEIBT4@1AEAVEdgeBuffer@23@AEAV?$InlineDeferredIDPool@$0EA@@Cm@3@@Z 00000001800ac070 f   GuEPA.obj
 0001:000ab240       ?closestPtPointTetrahedron@Gu@physx@@YA?AT__m128@@PEIAT3@00AEAI@Z 00000001800ac240 f   GuGJKSimplex.obj
 0001:000ab9b0       ?closestPtPointTetrahedron@Gu@physx@@YA?AT__m128@@PEIAT3@00PEIAH1AEAI@Z 00000001800ac9b0 f   GuGJKSimplex.obj
 0001:000ad430       ??$gjk@UGjkConvex@Gu@physx@@U123@@Gu@physx@@YA?AW4GjkStatus@01@AEBUGjkConvex@01@0AEBT__m128@@1AEAT4@222@Z 00000001800ae430 f i GuGJKTest.obj
 0001:000ae050       ??$gjkPenetration@UGjkConvex@Gu@physx@@U123@@Gu@physx@@YA?AW4GjkStatus@01@AEBUGjkConvex@01@0AEBT__m128@@1_NPEIAE3AEAEAEAUGjkOutput@01@@Z 00000001800af050 f i GuGJKTest.obj
 0001:000ae0c0       ??$gjkPenetration@UGjkConvex@Gu@physx@@U123@@Gu@physx@@YA?AW4GjkStatus@01@AEBUGjkConvex@01@0AEBT__m128@@1_NPEIAE3PEIAT4@4AEAEAEAUGjkOutput@01@@Z 00000001800af0c0 f i GuGJKTest.obj
 0001:000af520       ?testEpaPenetration@Gu@physx@@YA?AW4GjkStatus@12@AEBUGjkConvex@12@0PEBE1EAEAUGjkOutput@12@@Z 00000001800b0520 f   GuGJKTest.obj
 0001:000af570       ?testGjk@Gu@physx@@YA?AW4GjkStatus@12@AEBUGjkConvex@12@0AEBT__m128@@1AEAT5@222@Z 00000001800b0570 f   GuGJKTest.obj
 0001:000af580       ?testGjkPenetration@Gu@physx@@YA?AW4GjkStatus@12@AEBUGjkConvex@12@0AEBT__m128@@1PEAE2AEAEAEAUGjkOutput@12@@Z 00000001800b0580 f   GuGJKTest.obj
 0001:000af5d0       ??0HeightField@Gu@physx@@QEAA@PEAVMeshFactory@12@@Z 00000001800b05d0 f   GuHeightField.obj
 0001:000af620       ??0HeightField@Gu@physx@@QEAA@PEAVMeshFactory@12@AEAUHeightFieldData@12@@Z 00000001800b0620 f   GuHeightField.obj
 0001:000af6d0       ??1HeightField@Gu@physx@@UEAA@XZ 00000001800b06d0 f   GuHeightField.obj
 0001:000af750       ??_EHeightField@Gu@physx@@UEAAPEAXI@Z 00000001800b0750 f i GuHeightField.obj
 0001:000af750       ??_GHeightField@Gu@physx@@UEAAPEAXI@Z 00000001800b0750 f i GuHeightField.obj
 0001:000af800       ?computeCellCoordinates@HeightField@Gu@physx@@QEBAIMMAEAM0@Z 00000001800b0800 f   GuHeightField.obj
 0001:000af920       ?createObject@HeightField@Gu@physx@@SAPEAV123@AEAPEAEAEAVPxDeserializationContext@3@@Z 00000001800b0920 f   GuHeightField.obj
 0001:000af970       ?exportExtraData@HeightField@Gu@physx@@UEAAXAEAVPxSerializationContext@3@@Z 00000001800b0970 f   GuHeightField.obj
 0001:000af9c0       ?getConcreteTypeName@PxHeightField@physx@@UEBAPEBDXZ 00000001800b09c0 f i GuHeightField.obj
 0001:000af9d0       ?getConvexEdgeThreshold@HeightField@Gu@physx@@UEBAMXZ 00000001800b09d0 f i GuHeightField.obj
 0001:000af9e0       ?getFlags@HeightField@Gu@physx@@UEBA?AV?$PxFlags@W4Enum@PxHeightFieldFlag@physx@@G@3@XZ 00000001800b09e0 f i GuHeightField.obj
 0001:000af9f0       ?getFormat@HeightField@Gu@physx@@UEBA?AW4Enum@PxHeightFieldFormat@3@XZ 00000001800b09f0 f i GuHeightField.obj
 0001:000afa00       ?getHeight@HeightField@Gu@physx@@UEBAMMM@Z 00000001800b0a00 f i GuHeightField.obj
 0001:000afb20       ?getNbColumns@HeightField@Gu@physx@@UEBAIXZ 00000001800b0b20 f i GuHeightField.obj
 0001:000afb30       ?getNbBounds@BVH@Gu@physx@@UEBAIXZ 00000001800b0b30 f i GuBVH.obj
 0001:000afb30       ?getNbPrimitives@SourceMesh@Gu@physx@@UEBAIXZ 00000001800b0b30 f i GuBV4.obj
 0001:000afb30       ?getNbPrimitives@TetrahedronSourceMesh@Gu@physx@@UEBAIXZ 00000001800b0b30 f i GuBV4.obj
 0001:000afb30       ?getNbRows@HeightField@Gu@physx@@UEBAIXZ 00000001800b0b30 f i GuHeightField.obj
 0001:000afb40       ?getSample@HeightField@Gu@physx@@UEBAAEBUPxHeightFieldSample@3@II@Z 00000001800b0b40 f i GuHeightField.obj
 0001:000afb50       ?getSampleStride@HeightField@Gu@physx@@UEBAIXZ 00000001800b0b50 f i GuHeightField.obj
 0001:000afb60       ?getTimestamp@HeightField@Gu@physx@@UEBAIXZ 00000001800b0b60 f i GuHeightField.obj
 0001:000afb70       ?getTriangleMaterialIndex@HeightField@Gu@physx@@UEBAGI@Z 00000001800b0b70 f i GuHeightField.obj
 0001:000afba0       ?getTriangleNormal@HeightField@Gu@physx@@UEBA?AV?$PxVec3T@M@3@I@Z 00000001800b0ba0 f i GuHeightField.obj
 0001:000afbc0       ?getTriangleNormalInternal@HeightField@Gu@physx@@QEBA?AV?$PxVec3T@M@3@I@Z 00000001800b0bc0 f i GuHeightField.obj
 0001:000afef0       ?isCollisionVertexPreca@HeightField@Gu@physx@@QEBA_NIIIG@Z 00000001800b0ef0 f   GuHeightField.obj
 0001:000aff90       ?isConvexVertex@HeightField@Gu@physx@@QEBA_NIII@Z 00000001800b0f90 f i GuHeightField.obj
 0001:000b0060       ?isKindOf@PxHeightField@physx@@MEBA_NPEBD@Z 00000001800b1060 f i GuHeightField.obj
 0001:000b00f0       ?isSolidVertex@HeightField@Gu@physx@@QEBA_NIIIGAEA_N@Z 00000001800b10f0 f   GuHeightField.obj
 0001:000b0380       ?load@HeightField@Gu@physx@@QEAA_NAEAVPxInputStream@3@@Z 00000001800b1380 f   GuHeightField.obj
 0001:000b06e0       ?loadFromDesc@HeightField@Gu@physx@@QEAA_NAEBVPxHeightFieldDesc@3@@Z 00000001800b16e0 f   GuHeightField.obj
 0001:000b08e0       ?modifySamples@HeightField@Gu@physx@@UEAA_NHHAEBVPxHeightFieldDesc@3@_N@Z 00000001800b18e0 f   GuHeightField.obj
 0001:000b0c50       ?onRefCountZero@HeightField@Gu@physx@@UEAAXXZ 00000001800b1c50 f   GuHeightField.obj
 0001:000b0d20       ?parseTrianglesForCollisionVertices@HeightField@Gu@physx@@QEAAXG@Z 00000001800b1d20 f   GuHeightField.obj
 0001:000b1230       ?releaseMemory@HeightField@Gu@physx@@QEAAXXZ 00000001800b2230 f   GuHeightField.obj
 0001:000b1280       ?resizeAndClear@?$PxBitMapBase@VPxAllocator@physx@@@physx@@QEAAXI@Z 00000001800b2280 f i GuHeightField.obj
 0001:000b1330       ?save@HeightField@Gu@physx@@QEAA_NAEAVPxOutputStream@3@_N@Z 00000001800b2330 f   GuHeightField.obj
 0001:000b1570       ?saveCells@HeightField@Gu@physx@@UEBAIPEAXI@Z 00000001800b2570 f   GuHeightField.obj
 0001:000b15b0       ?computeLocalBounds@HeightFieldUtil@Gu@physx@@QEBAXAEAVPxBounds3@3@@Z 00000001800b25b0 f   GuHeightFieldUtil.obj
 0001:000b1a80       ?getTriangle@HeightFieldUtil@Gu@physx@@QEBAIAEBV?$PxTransformT@M@3@AEAVPxTriangle@3@PEAI2I_N3@Z 00000001800b2a80 f   GuHeightFieldUtil.obj
 0001:000b2580       ?getTriangleAdjacencyIndices@HeightField@Gu@physx@@QEBAXIIIIAEAI00@Z 00000001800b3580 f i GuHeightFieldUtil.obj
 0001:000b2730       ?getTriangleVertexIndices@HeightField@Gu@physx@@QEBAXIAEAI00@Z 00000001800b3730 f i GuHeightFieldUtil.obj
 0001:000b27f0       ?overlapAABBTriangles@HeightFieldUtil@Gu@physx@@QEBAXAEBVPxBounds3@3@AEAVOverlapReport@23@I@Z 00000001800b37f0 f   GuHeightFieldUtil.obj
 0001:000b2c50       ??$gjk@U?$RelativeConvex@VTriangleV@Gu@physx@@@Gu@physx@@U?$LocalConvex@VConvexHullV@Gu@physx@@@23@@Gu@physx@@YA?AW4GjkStatus@01@AEBU?$RelativeConvex@VTriangleV@Gu@physx@@@01@AEBU?$LocalConvex@VConvexHullV@Gu@physx@@@01@AEBT__m128@@2AEAT5@333@Z 00000001800b3c50 f i GuOverlapTestsHF.obj
 0001:000b3b90       ?GeomOverlapCallback_BoxHeightfield@@YA_NAEBVPxGeometry@physx@@AEBV?$PxTransformT@M@2@01PEAUTriggerCache@Gu@2@PEAUPxQueryThreadContext@2@@Z 00000001800b4b90 f   GuOverlapTestsHF.obj
 0001:000b40f0       ?GeomOverlapCallback_CapsuleHeightfield@@YA_NAEBVPxGeometry@physx@@AEBV?$PxTransformT@M@2@01PEAUTriggerCache@Gu@2@PEAUPxQueryThreadContext@2@@Z 00000001800b50f0 f   GuOverlapTestsHF.obj
 0001:000b46f0       ?GeomOverlapCallback_ConvexHeightfield@@YA_NAEBVPxGeometry@physx@@AEBV?$PxTransformT@M@2@01PEAUTriggerCache@Gu@2@PEAUPxQueryThreadContext@2@@Z 00000001800b56f0 f   GuOverlapTestsHF.obj
 0001:000b5130       ?GeomOverlapCallback_SphereHeightfield@@YA_NAEBVPxGeometry@physx@@AEBV?$PxTransformT@M@2@01PEAUTriggerCache@Gu@2@PEAUPxQueryThreadContext@2@@Z 00000001800b6130 f   GuOverlapTestsHF.obj
 0001:000b5cf0       ??$gjkRaycast@U?$LocalConvex@VTriangleV@Gu@physx@@@Gu@physx@@U?$LocalConvex@VConvexHullV@Gu@physx@@@23@@Gu@physx@@YA_NAEBU?$LocalConvex@VTriangleV@Gu@physx@@@01@AEBU?$LocalConvex@VConvexHullV@Gu@physx@@@01@AEBT__m128@@222AEAT4@33M@Z 00000001800b6cf0 f i GuSweepsHF.obj
 0001:000b6af0       ??$traceSegment@VBoxTraceSegmentReport@@$0A@$00@HeightFieldTraceUtil@Gu@physx@@QEBAXAEBV?$PxVec3T@M@2@0MPEAVBoxTraceSegmentReport@@AEBVPxBounds3@2@_NPEBV32@@Z 00000001800b7af0 f i GuSweepsHF.obj
 0001:000b6af0       ??$traceSegment@VCapsuleTraceSegmentReport@@$0A@$00@HeightFieldTraceUtil@Gu@physx@@QEBAXAEBV?$PxVec3T@M@2@0MPEAVCapsuleTraceSegmentReport@@AEBVPxBounds3@2@_NPEBV32@@Z 00000001800b7af0 f i GuSweepsHF.obj
 0001:000b6af0       ??$traceSegment@VConvexTraceSegmentReport@@$0A@$00@HeightFieldTraceUtil@Gu@physx@@QEBAXAEBV?$PxVec3T@M@2@0MPEAVConvexTraceSegmentReport@@AEBVPxBounds3@2@_NPEBV32@@Z 00000001800b7af0 f i GuSweepsHF.obj
 0001:000b72c0       ??0ConvexTraceSegmentReport@@QEAA@AEBVHeightFieldUtil@Gu@physx@@AEBUConvexHullData@23@AEBVPxMeshScale@3@AEBV?$PxTransformT@M@3@3AEBV?$PxVec3T@M@3@MV?$PxFlags@W4Enum@PxHitFlag@physx@@G@3@M@Z 00000001800b82c0 f i GuSweepsHF.obj
 0001:000b7c40       ??_EBoxTraceSegmentReport@@UEAAPEAXI@Z 00000001800b8c40 f i GuSweepsHF.obj
 0001:000b7c40       ??_GBoxTraceSegmentReport@@UEAAPEAXI@Z 00000001800b8c40 f i GuSweepsHF.obj
 0001:000b7c70       ??_ECapsuleTraceSegmentReport@@UEAAPEAXI@Z 00000001800b8c70 f i GuSweepsHF.obj
 0001:000b7c70       ??_GCapsuleTraceSegmentReport@@UEAAPEAXI@Z 00000001800b8c70 f i GuSweepsHF.obj
 0001:000b7ca0       ??_EConvexTraceSegmentReport@@UEAAPEAXI@Z 00000001800b8ca0 f i GuSweepsHF.obj
 0001:000b7ca0       ??_GConvexTraceSegmentReport@@UEAAPEAXI@Z 00000001800b8ca0 f i GuSweepsHF.obj
 0001:000b7cd0       ??_EHeightFieldTraceSegmentReport@@UEAAPEAXI@Z 00000001800b8cd0 f i GuSweepsHF.obj
 0001:000b7cd0       ??_GHeightFieldTraceSegmentReport@@UEAAPEAXI@Z 00000001800b8cd0 f i GuSweepsHF.obj
 0001:000b7d00       ?finalizeHit@ConvexTraceSegmentReport@@QEAA_NAEAUPxGeomSweepHit@physx@@AEBVPxHeightFieldGeometry@3@AEBV?$PxTransformT@M@3@AEBVPxConvexMeshGeometry@3@2AEBV?$PxVec3T@M@3@M@Z 00000001800b8d00 f i GuSweepsHF.obj
 0001:000b7f30       ?onEvent@BoxTraceSegmentReport@@UEAA_NIPEBI@Z 00000001800b8f30 f i GuSweepsHF.obj
 0001:000b8380       ?onEvent@CapsuleTraceSegmentReport@@UEAA_NIPEBI@Z 00000001800b9380 f i GuSweepsHF.obj
 0001:000b85b0       ?onEvent@ConvexTraceSegmentReport@@UEAA_NIPEBI@Z 00000001800b95b0 f i GuSweepsHF.obj
 0001:000b8b70       ?prepare@?$OverlapTraceSegment@VBoxTraceSegmentReport@@@HeightFieldTraceUtil@Gu@physx@@QEAAXAEBV?$PxVec3T@M@4@00AEAM1@Z 00000001800b9b70 f i GuSweepsHF.obj
 0001:000b8b70       ?prepare@?$OverlapTraceSegment@VCapsuleTraceSegmentReport@@@HeightFieldTraceUtil@Gu@physx@@QEAAXAEBV?$PxVec3T@M@4@00AEAM1@Z 00000001800b9b70 f i GuSweepsHF.obj
 0001:000b8b70       ?prepare@?$OverlapTraceSegment@VConvexTraceSegmentReport@@@HeightFieldTraceUtil@Gu@physx@@QEAAXAEBV?$PxVec3T@M@4@00AEAM1@Z 00000001800b9b70 f i GuSweepsHF.obj
 0001:000b8e30       ?sweepBox_HeightFieldGeom@@YA_NAEBVPxGeometry@physx@@AEBV?$PxTransformT@M@2@AEBVPxBoxGeometry@2@1AEBVBox@Gu@2@AEBV?$PxVec3T@M@2@MAEAUPxGeomSweepHit@2@V?$PxFlags@W4Enum@PxHitFlag@physx@@G@2@MPEAUPxQueryThreadContext@2@@Z 00000001800b9e30 f   GuSweepsHF.obj
 0001:000b9c80       ?sweepCapsule_HeightFieldGeom@@YA_NAEBVPxGeometry@physx@@AEBV?$PxTransformT@M@2@AEBVPxCapsuleGeometry@2@1AEBVCapsule@Gu@2@AEBV?$PxVec3T@M@2@MAEAUPxGeomSweepHit@2@V?$PxFlags@W4Enum@PxHitFlag@physx@@G@2@MPEAUPxQueryThreadContext@2@@Z 00000001800bac80 f   GuSweepsHF.obj
 0001:000ba5d0       ?sweepConvex_HeightFieldGeom@@YA_NAEBVPxGeometry@physx@@AEBV?$PxTransformT@M@2@AEBVPxConvexMeshGeometry@2@1AEBV?$PxVec3T@M@2@MAEAUPxGeomSweepHit@2@V?$PxFlags@W4Enum@PxHitFlag@physx@@G@2@MPEAUPxQueryThreadContext@2@@Z 00000001800bb5d0 f   GuSweepsHF.obj
 0001:000bafa0       ?testVertexIndex@?$OverlapTraceSegment@VBoxTraceSegmentReport@@@HeightFieldTraceUtil@Gu@physx@@QEAA_NI@Z 00000001800bbfa0 f i GuSweepsHF.obj
 0001:000bafa0       ?testVertexIndex@?$OverlapTraceSegment@VCapsuleTraceSegmentReport@@@HeightFieldTraceUtil@Gu@physx@@QEAA_NI@Z 00000001800bbfa0 f i GuSweepsHF.obj
 0001:000bafa0       ?testVertexIndex@?$OverlapTraceSegment@VConvexTraceSegmentReport@@@HeightFieldTraceUtil@Gu@physx@@QEAA_NI@Z 00000001800bbfa0 f i GuSweepsHF.obj
 0001:000bb100       ?transformFast@PxBounds3@physx@@SA?AV12@AEBV?$PxTransformT@M@2@AEBV12@@Z 00000001800bc100 f i GuSweepsHF.obj
 0001:000bb4e0       ?visitCells@?$OverlapTraceSegment@VBoxTraceSegmentReport@@@HeightFieldTraceUtil@Gu@physx@@QEAA_NAEBUOverlapRectangle@1234@@Z 00000001800bc4e0 f i GuSweepsHF.obj
 0001:000bb4e0       ?visitCells@?$OverlapTraceSegment@VCapsuleTraceSegmentReport@@@HeightFieldTraceUtil@Gu@physx@@QEAA_NAEBUOverlapRectangle@1234@@Z 00000001800bc4e0 f i GuSweepsHF.obj
 0001:000bb4e0       ?visitCells@?$OverlapTraceSegment@VConvexTraceSegmentReport@@@HeightFieldTraceUtil@Gu@physx@@QEAA_NAEBUOverlapRectangle@1234@@Z 00000001800bc4e0 f i GuSweepsHF.obj
 0001:000bb6d0       ?intersectOBBOBB@Gu@physx@@YA_NAEBV?$PxVec3T@M@2@0AEBV?$PxMat33T@M@2@001_N@Z 00000001800bc6d0 f   GuIntersectionBoxBox.obj
 0001:000bbd20       ?intersectCapsuleTriangle@Gu@physx@@YA_NAEBV?$PxVec3T@M@2@000AEBVCapsule@12@AEBUCapsuleTriangleOverlapData@12@@Z 00000001800bcd20 f   GuIntersectionCapsuleTriangle.obj
 0001:000bc910       ?intersectEdgeEdge@Gu@physx@@YA_NAEBV?$PxVec3T@M@2@0000AEAMAEAV32@@Z 00000001800bd910 f   GuIntersectionEdgeEdge.obj
 0001:000bcc30       ?intersectRayAABB2@Gu@physx@@YA_NAEBT__m128@@0000AEAT3@1@Z 00000001800bdc30 f   GuIntersectionRayBox.obj
 0001:000bccf0       ?intersectRayAABB2@Gu@physx@@YA_NAEBV?$PxVec3T@M@2@000MAEAM1@Z 00000001800bdcf0 f   GuIntersectionRayBox.obj
 0001:000bcea0       ?intersectRayAABB@Gu@physx@@YAHAEBV?$PxVec3T@M@2@000AEAM1@Z 00000001800bdea0 f   GuIntersectionRayBox.obj
 0001:000bcfb0       ?rayAABBIntersect2@Gu@physx@@YAIAEBV?$PxVec3T@M@2@000AEAV32@AEAM@Z 00000001800bdfb0 f   GuIntersectionRayBox.obj
 0001:000bd1b0       ?intersectRayCapsuleInternal@Gu@physx@@YAIAEBV?$PxVec3T@M@2@000MQEAM@Z 00000001800be1b0 f   GuIntersectionRayCapsule.obj
 0001:000bd670       ?intersectRaySphere@Gu@physx@@YA_NAEBV?$PxVec3T@M@2@0M0MAEAMPEAV32@@Z 00000001800be670 f   GuIntersectionRaySphere.obj
 0001:000bd760       ?intersectRaySphereBasic@Gu@physx@@YA_NAEBV?$PxVec3T@M@2@0M0MAEAMPEAV32@@Z 00000001800be760 f   GuIntersectionRaySphere.obj
 0001:000bd8c0       ?intersectSphereBox@Gu@physx@@YA_NAEBVSphere@12@AEBVBox@12@@Z 00000001800be8c0 f   GuIntersectionSphereBox.obj
 0001:000bdaf0       ?intersectTetrahedronBox@Gu@physx@@YA_NAEBV?$PxVec3T@M@2@000AEBVPxBounds3@2@@Z 00000001800beaf0 f   GuIntersectionTetrahedronBox.obj
 0001:000bdec0       ?intersectTriangleBox@Gu@physx@@YAHAEBVBoxPadded@12@AEBV?$PxVec3T@M@2@11@Z 00000001800beec0 f   GuIntersectionTriangleBox.obj
 0001:000be490       ?intersectTriangleBoxBV4@@YAHAEBV?$PxVec3T@M@physx@@00AEBV?$PxMat33T@M@2@00@Z 00000001800bf490 f   GuIntersectionTriangleBox.obj
 0001:000be8d0       ?intersectTriangleBox_ReferenceCode@Gu@physx@@YAHAEBV?$PxVec3T@M@2@0000@Z 00000001800bf8d0 f   GuIntersectionTriangleBox.obj
 0001:000bf0a0       ?intersectTriangleBox_Unsafe@Gu@physx@@YAHAEBV?$PxVec3T@M@2@0000@Z 00000001800c00a0 f   GuIntersectionTriangleBox.obj
 0001:000bf460       ?trianglesIntersect@Gu@physx@@YA_NAEBV?$PxVec3T@M@2@00000_N@Z 00000001800c0460 f   GuIntersectionTriangleTriangle.obj
 0001:000c0870       ??0BV4Tree@Gu@physx@@QEAA@W4PxEMPTY@2@@Z 00000001800c1870 f   GuBV4.obj
 0001:000c0880       ??0BV4Tree@Gu@physx@@QEAA@XZ 00000001800c1880 f   GuBV4.obj
 0001:000c08b0       ??0SourceMesh@Gu@physx@@QEAA@XZ 00000001800c18b0 f   GuBV4.obj
 0001:000c08e0       ??0TetrahedronSourceMesh@Gu@physx@@QEAA@XZ 00000001800c18e0 f   GuBV4.obj
 0001:000c0910       ??1BV4Tree@Gu@physx@@QEAA@XZ 00000001800c1910 f   GuBV4.obj
 0001:000c0970       ??1SourceMesh@Gu@physx@@UEAA@XZ 00000001800c1970 f   GuBV4.obj
 0001:000c0970       ??1TetrahedronSourceMesh@Gu@physx@@UEAA@XZ 00000001800c1970 f   GuBV4.obj
 0001:000c09c0       ??4BV4Tree@Gu@physx@@QEAAXAEAV012@@Z 00000001800c19c0 f   GuBV4.obj
 0001:000c0a50       ??4SourceMesh@Gu@physx@@QEAAXAEAV012@@Z 00000001800c1a50 f   GuBV4.obj
 0001:000c0aa0       ??_ESourceMesh@Gu@physx@@UEAAPEAXI@Z 00000001800c1aa0 f i GuBV4.obj
 0001:000c0aa0       ??_ETetrahedronSourceMesh@Gu@physx@@UEAAPEAXI@Z 00000001800c1aa0 f i GuBV4.obj
 0001:000c0aa0       ??_GSourceMesh@Gu@physx@@UEAAPEAXI@Z 00000001800c1aa0 f i GuBV4.obj
 0001:000c0aa0       ??_GTetrahedronSourceMesh@Gu@physx@@UEAAPEAXI@Z 00000001800c1aa0 f i GuBV4.obj
 0001:000c0b40       ??_ESourceMeshBase@Gu@physx@@UEAAPEAXI@Z 00000001800c1b40 f i GuBV4.obj
 0001:000c0b40       ??_GSourceMeshBase@Gu@physx@@UEAAPEAXI@Z 00000001800c1b40 f i GuBV4.obj
 0001:000c0be0       ?exportExtraData@BV4Tree@Gu@physx@@QEAAXAEAVPxSerializationContext@3@@Z 00000001800c1be0 f   GuBV4.obj
 0001:000c0c40       ?getPrimitiveBox@SourceMesh@Gu@physx@@UEAAXIAEAT__m128@@0@Z 00000001800c1c40 f   GuBV4.obj
 0001:000c0ce0       ?getPrimitiveBox@TetrahedronSourceMesh@Gu@physx@@UEAAXIAEAT__m128@@0@Z 00000001800c1ce0 f   GuBV4.obj
 0001:000c0da0       ?importExtraData@BV4Tree@Gu@physx@@QEAAXAEAVPxDeserializationContext@3@@Z 00000001800c1da0 f   GuBV4.obj
 0001:000c0df0       ?init@BV32Tree@Gu@physx@@QEAA_NPEAVSourceMeshBase@23@AEBVPxBounds3@3@@Z 00000001800c1df0 f   GuBV32.obj
 0001:000c0df0       ?init@BV4Tree@Gu@physx@@QEAA_NPEAVSourceMeshBase@23@AEBVPxBounds3@3@@Z 00000001800c1df0 f   GuBV4.obj
 0001:000c0e90       ?load@BV4Tree@Gu@physx@@QEAA_NAEAVPxInputStream@3@_N@Z 00000001800c1e90 f   GuBV4.obj
 0001:000c10d0       ?refit@BV4Tree@Gu@physx@@QEAA_NAEAVPxBounds3@3@M@Z 00000001800c20d0 f   GuBV4.obj
 0001:000c1740       ?refit@SourceMesh@Gu@physx@@UEAAXIAEAVPxBounds3@3@@Z 00000001800c2740 f   GuBV4.obj
 0001:000c18e0       ?refit@TetrahedronSourceMesh@Gu@physx@@UEAAXIAEAVPxBounds3@3@@Z 00000001800c28e0 f   GuBV4.obj
 0001:000c1b00       ?remapTopology@SourceMesh@Gu@physx@@UEAAXPEBI@Z 00000001800c2b00 f   GuBV4.obj
 0001:000c1d90       ?remapTopology@TetrahedronSourceMesh@Gu@physx@@UEAAXPEBI@Z 00000001800c2d90 f   GuBV4.obj
 0001:000c2010       ??0BV4_AABBTree@Gu@physx@@QEAA@XZ 00000001800c3010 f   GuBV4Build.obj
 0001:000c2020       ??0BVData@@QEAA@XZ         00000001800c3020 f   GuBV4Build.obj
 0001:000c2050       ??0BuildStats@Gu@physx@@QEAA@XZ 00000001800c3050 f i GuBV4Build.obj
 0001:000c2060       ??1BV4_AABBTree@Gu@physx@@QEAA@XZ 00000001800c3060 f   GuBV4Build.obj
 0001:000c2070       ??4BuildStats@Gu@physx@@QEAAAEAU012@$$QEAU012@@Z 00000001800c3070 f i GuBV4Build.obj
 0001:000c2080       ??4BuildStats@Gu@physx@@QEAAAEAU012@AEBU012@@Z 00000001800c3080 f i GuBV4Build.obj
 0001:000c2090       ?BuildBV4Ex@Gu@physx@@YA_NAEAVBV4Tree@12@AEAVSourceMeshBase@12@MI_NW4BV4_BuildStrategy@12@@Z 00000001800c3090 f   GuBV4Build.obj
 0001:000c2f60       ?allocateNode@BV4BuildParams@@QEAAPEAUBV4Node@@XZ 00000001800c3f60 f   GuBV4Build.obj
 0001:000c33d0       ?buildFromMesh@BV4_AABBTree@Gu@physx@@QEAA_NAEAVSourceMeshBase@23@IW4BV4_BuildStrategy@23@@Z 00000001800c43d0 f   GuBV4Build.obj
 0001:000c4300       ?increaseCount@BuildStats@Gu@physx@@QEAAXI@Z 00000001800c5300 f i GuBV4Build.obj
 0001:000c4d60       ?release@BV4_AABBTree@Gu@physx@@QEAAXXZ 00000001800c5d60 f   GuBV4Build.obj
 0001:000c4e10       ?releaseNodes@BV4BuildParams@@QEAAXXZ 00000001800c5e10 f   GuBV4Build.obj
 0001:000c4e80       ?reset@BuildStats@Gu@physx@@QEAAXXZ 00000001800c5e80 f i GuBV4Build.obj
 0001:000c4e90       ?setCount@BuildStats@Gu@physx@@QEAAXI@Z 00000001800c5e90 f i GuBV4Build.obj
 0001:000c54f0       ?walk@BV4_AABBTree@Gu@physx@@QEBAIP6A_NPEBVAABBTreeNode@23@IPEAX@Z1@Z 00000001800c64f0 f   GuBV4Build.obj
 0001:000c55b0       ?walkDistance@BV4_AABBTree@Gu@physx@@QEBAIP6A_NPEBVAABBTreeNode@23@IPEAX@ZP6A_N01@Z1@Z 00000001800c65b0 f   GuBV4Build.obj
 0001:000c95d0       ?GenericSweep_AABB_CB@@YAXAEBVBox@Gu@physx@@AEBV?$PxVec3T@M@3@MAEBVBV4Tree@23@P6A_NPEAX111IAEAM@Z3I@Z 00000001800ca5d0 f   GuBV4_AABBSweep.obj
 0001:000c9730       ?Sweep_AABB_BV4@@YAHAEBVBox@Gu@physx@@AEBV?$PxVec3T@M@3@MAEBVBV4Tree@23@PEIAVSweepHit@23@I@Z 00000001800ca730 f   GuBV4_AABBSweep.obj
 0001:000d2470       ?BV4_OverlapBoxAll@@YAIAEBVBox@Gu@physx@@AEBVBV4Tree@23@PEIBV?$PxMat44T@M@3@PEAIIAEA_N@Z 00000001800d3470 f   GuBV4_BoxOverlap.obj
 0001:000d2c80       ?BV4_OverlapBoxAny@@YAHAEBVBox@Gu@physx@@AEBVBV4Tree@23@PEIBV?$PxMat44T@M@3@@Z 00000001800d3c80 f   GuBV4_BoxOverlap.obj
 0001:000d3480       ?BV4_OverlapBoxCB@@YAXAEBVBox@Gu@physx@@AEBVBV4Tree@23@P6A_NPEAXAEBV?$PxVec3T@M@3@333IPEBI@Z2@Z 00000001800d4480 f   GuBV4_BoxOverlap.obj
 0001:000d3b40       ?BV4_OverlapBoxCB@@YAXAEBVBox@Gu@physx@@AEBVBV4Tree@23@P6A_NPEAXAEBV?$PxVec3T@M@3@33IPEBI@Z2@Z 00000001800d4b40 f   GuBV4_BoxOverlap.obj
 0001:000d3ff0       ?BV4_OverlapCapsuleAll@@YAIAEBVCapsule@Gu@physx@@AEBVBV4Tree@23@PEIBV?$PxMat44T@M@3@PEAIIAEA_N@Z 00000001800d4ff0 f   GuBV4_BoxOverlap.obj
 0001:000d4710       ?BV4_OverlapCapsuleAny@@YAHAEBVCapsule@Gu@physx@@AEBVBV4Tree@23@PEIBV?$PxMat44T@M@3@@Z 00000001800d5710 f   GuBV4_BoxOverlap.obj
 0001:000d75c0       ?BV4_CapsuleSweepSingle@@YAHAEBVCapsule@Gu@physx@@AEBV?$PxVec3T@M@3@MAEBVBV4Tree@23@PEIAVSweepHit@23@I@Z 00000001800d85c0 f   GuBV4_CapsuleSweep.obj
 0001:000db690       ?BV4_CapsuleSweepSingleAA@@YAHAEBVCapsule@Gu@physx@@AEBV?$PxVec3T@M@3@MAEBVBV4Tree@23@PEIAVSweepHit@23@I@Z 00000001800dc690 f   GuBV4_CapsuleSweepAA.obj
 0001:000ebcc0       ?BV4_OverlapMeshVsMesh@@YA_NAEAV?$PxReportCallback@UPxGeomIndexPair@physx@@@physx@@AEBVBV4Tree@Gu@2@1PEBV?$PxMat44T@M@2@2AEBV?$PxTransformT@M@2@3AEBVPxMeshScale@2@4V?$PxFlags@W4Enum@PxMeshMeshQueryFlag@physx@@I@2@M@Z 00000001800eccc0 f   GuBV4_MeshMeshOverlap.obj
 0001:000ebf00       ?BV4_OverlapMeshVsMesh@@YA_NAEAV?$PxReportCallback@UPxGeomIndexPair@physx@@@physx@@AEBVBV4Tree@Gu@2@1PEBV?$PxMat44T@M@2@2V?$PxFlags@W4Enum@PxMeshMeshQueryFlag@physx@@I@2@M@Z 00000001800ecf00 f   GuBV4_MeshMeshOverlap.obj
 0001:000f56d0       ??D?$PxMat33T@M@physx@@QEBA?BV?$PxVec3T@M@1@AEBV21@@Z 00000001800f66d0 f i GuBV4_OBBSweep.obj
 0001:000f5760       ?BV4_BoxSweepSingle@@YAHAEBVBox@Gu@physx@@AEBV?$PxVec3T@M@3@MAEBVBV4Tree@23@PEIBV?$PxMat44T@M@3@PEIAVSweepHit@23@I@Z 00000001800f6760 f   GuBV4_OBBSweep.obj
 0001:000f5e90       ?BV4_GenericSweepCB@@YAXAEBVBox@Gu@physx@@AEBV?$PxVec3T@M@3@MAEBVBV4Tree@23@P6A_NPEAX111IAEAM@Z3_N@Z 00000001800f6e90 f   GuBV4_OBBSweep.obj
 0001:000f60c0       ?Sweep_OBB_BV4@@YAHAEBVBox@Gu@physx@@AEBV?$PxVec3T@M@3@MAEBVBV4Tree@23@PEIAVSweepHit@23@I@Z 00000001800f70c0 f   GuBV4_OBBSweep.obj
 0001:000f8c00       ?BV4_RaycastCB@@YAXAEBV?$PxVec3T@M@physx@@0AEBVBV4Tree@Gu@2@PEIBV?$PxMat44T@M@2@MMIP6A?AW4HitCode@42@PEAX000IMMM@Z3@Z 00000001800f9c00 f   GuBV4_Raycast.obj
 0001:000f9040       ?BV4_RaycastSingle@@YAHAEBV?$PxVec3T@M@physx@@0AEBVBV4Tree@Gu@2@PEIBV?$PxMat44T@M@2@PEIAUPxGeomRaycastHit@2@MMIV?$PxFlags@W4Enum@PxHitFlag@physx@@G@2@@Z 00000001800fa040 f   GuBV4_Raycast.obj
 0001:000fb570       ?BV4_OverlapSphereAll@@YAIAEBVSphere@Gu@physx@@AEBVBV4Tree@23@PEIBV?$PxMat44T@M@3@PEAIIAEA_N@Z 00000001800fc570 f   GuBV4_SphereOverlap.obj
 0001:000fb890       ?BV4_OverlapSphereAny@@YAHAEBVSphere@Gu@physx@@AEBVBV4Tree@23@PEIBV?$PxMat44T@M@3@@Z 00000001800fc890 f   GuBV4_SphereOverlap.obj
 0001:000fbb70       ?BV4_PointDistance@@YAXAEBV?$PxVec3T@M@physx@@AEBVBV4Tree@Gu@2@MAEAIAEAMAEAV12@@Z 00000001800fcb70 f   GuBV4_SphereOverlap.obj
 0001:00102540       ?BV4_GenericSweepCB_Old@@YAXAEBV?$PxVec3T@M@physx@@00MAEBVBV4Tree@Gu@2@PEIBV?$PxMat44T@M@2@P6A_NPEAX000IAEAM@Z3@Z 0000000180103540 f   GuBV4_SphereSweep.obj
 0001:00102950       ?BV4_SphereSweepSingle@@YAHAEBVSphere@Gu@physx@@AEBV?$PxVec3T@M@3@MAEBVBV4Tree@23@PEIBV?$PxMat44T@M@3@PEIAVSweepHit@23@I@Z 0000000180103950 f   GuBV4_SphereSweep.obj
 0001:00103c60       ?computeSweepData@physx@@YAMAEBVPxTriangleMeshGeometry@1@AEAV?$PxVec3T@M@1@11M@Z 0000000180104c60 f i GuMidphaseBV4.obj
 0001:001050a0       ?intersectBoxVsMesh_BV4@Gu@physx@@YA_NAEBVBox@12@AEBVTriangleMesh@12@AEBV?$PxTransformT@M@2@AEBVPxMeshScale@2@PEAULimitedResults@12@@Z 00000001801060a0 f   GuMidphaseBV4.obj
 0001:00105b80       ?intersectCapsuleVsMesh_BV4@Gu@physx@@YA_NAEBVCapsule@12@AEBVTriangleMesh@12@AEBV?$PxTransformT@M@2@AEBVPxMeshScale@2@PEAULimitedResults@12@@Z 0000000180106b80 f   GuMidphaseBV4.obj
 0001:00106390       ?intersectMeshVsMesh_BV4@Gu@physx@@YA_NAEAV?$PxReportCallback@UPxGeomIndexPair@physx@@@2@AEBVTriangleMesh@12@AEBV?$PxTransformT@M@2@AEBVPxMeshScale@2@123V?$PxFlags@W4Enum@PxMeshMeshQueryFlag@physx@@I@2@M@Z 0000000180107390 f   GuMidphaseBV4.obj
 0001:00106cb0       ?intersectOBB_BV4@Gu@physx@@YAXPEBVTetrahedronMesh@12@AEBVBox@12@AEAU?$TetMeshHitCallback@UPxGeomRaycastHit@physx@@@12@@Z 0000000180107cb0 f   GuMidphaseBV4.obj
 0001:00106cd0       ?intersectOBB_BV4@Gu@physx@@YAXPEBVTriangleMesh@12@AEBVBox@12@AEAU?$MeshHitCallback@UPxGeomRaycastHit@physx@@@12@_N3@Z 0000000180107cd0 f   GuMidphaseBV4.obj
 0001:00106cf0       ?intersectSphereVsMesh_BV4@Gu@physx@@YA_NAEBVSphere@12@AEBVTriangleMesh@12@AEBV?$PxTransformT@M@2@AEBVPxMeshScale@2@PEAULimitedResults@12@@Z 0000000180107cf0 f   GuMidphaseBV4.obj
 0001:001073f0       ?pointMeshDistance_BV4@Gu@physx@@YAXPEBVTriangleMesh@12@AEBVPxTriangleMeshGeometry@2@AEBV?$PxTransformT@M@2@AEBV?$PxVec3T@M@2@MAEAIAEAMAEAV62@@Z 00000001801083f0 f   GuMidphaseBV4.obj
 0001:00107aa0       ?raycast_triangleMesh_BV4@Gu@physx@@YAIPEBVTriangleMesh@12@AEBVPxTriangleMeshGeometry@2@AEBV?$PxTransformT@M@2@AEBV?$PxVec3T@M@2@3MV?$PxFlags@W4Enum@PxHitFlag@physx@@G@2@IPEIAUPxGeomRaycastHit@2@I@Z 0000000180108aa0 f   GuMidphaseBV4.obj
 0001:001088b0       ?sweepBox_MeshGeom_BV4@Gu@physx@@YA_NPEBVTriangleMesh@12@AEBVPxTriangleMeshGeometry@2@AEBV?$PxTransformT@M@2@AEBVBox@12@AEBV?$PxVec3T@M@2@MAEAUPxGeomSweepHit@2@V?$PxFlags@W4Enum@PxHitFlag@physx@@G@2@M@Z 00000001801098b0 f   GuMidphaseBV4.obj
 0001:00109fb0       ?sweepCapsule_MeshGeom_BV4@Gu@physx@@YA_NPEBVTriangleMesh@12@AEBVPxTriangleMeshGeometry@2@AEBV?$PxTransformT@M@2@AEBVCapsule@12@AEBV?$PxVec3T@M@2@MAEAUPxGeomSweepHit@2@V?$PxFlags@W4Enum@PxHitFlag@physx@@G@2@M@Z 000000018010afb0 f   GuMidphaseBV4.obj
 0001:0010aad0       ?sweepConvex_MeshGeom_BV4@Gu@physx@@YAXPEBVTriangleMesh@12@AEBVBox@12@AEBV?$PxVec3T@M@2@MAEAUSweepConvexMeshHitCallback@12@_N@Z 000000018010bad0 f   GuMidphaseBV4.obj
 0001:0010ab10       ?transform@PxMeshScale@physx@@QEBA?AV?$PxVec3T@M@2@AEBV32@@Z 000000018010bb10 f i GuMidphaseBV4.obj
 0001:0010ad50       ?findOverlapHeightField@PxMeshQuery@physx@@SAIAEBVPxGeometry@2@AEBV?$PxTransformT@M@2@AEBVPxHeightFieldGeometry@2@1PEAIIIAEA_NV?$PxFlags@W4Enum@PxGeometryQueryFlag@physx@@I@2@@Z 000000018010bd50 f   GuMeshQuery.obj
 0001:0010b4c0       ?findOverlapTriangleMesh@PxMeshQuery@physx@@SAIAEBVPxGeometry@2@AEBV?$PxTransformT@M@2@AEBVPxTriangleMeshGeometry@2@1PEAIIIAEA_NV?$PxFlags@W4Enum@PxGeometryQueryFlag@physx@@I@2@@Z 000000018010c4c0 f   GuMeshQuery.obj
 0001:0010b7e0       ?findOverlapTriangleMesh@PxMeshQuery@physx@@SA_NAEAV?$PxReportCallback@UPxGeomIndexPair@physx@@@2@AEBVPxTriangleMeshGeometry@2@AEBV?$PxTransformT@M@2@12V?$PxFlags@W4Enum@PxGeometryQueryFlag@physx@@I@2@V?$PxFlags@W4Enum@PxMeshMeshQueryFlag@physx@@I@2@M@Z 000000018010c7e0 f   GuMeshQuery.obj
 0001:0010b910       ?getTriangle@PxMeshQuery@physx@@SAXAEBVPxHeightFieldGeometry@2@AEBV?$PxTransformT@M@2@IAEAVPxTriangle@2@PEAI3@Z 000000018010c910 f   GuMeshQuery.obj
 0001:0010b990       ?getTriangle@PxMeshQuery@physx@@SAXAEBVPxTriangleMeshGeometry@2@AEBV?$PxTransformT@M@2@IAEAVPxTriangle@2@PEAI3@Z 000000018010c990 f   GuMeshQuery.obj
 0001:0010be90       ?sweep@PxMeshQuery@physx@@SA_NAEBV?$PxVec3T@M@2@MAEBVPxGeometry@2@AEBV?$PxTransformT@M@2@IPEBVPxTriangle@2@AEAUPxGeomSweepHit@2@V?$PxFlags@W4Enum@PxHitFlag@physx@@G@2@PEBIM_NV?$PxFlags@W4Enum@PxGeometryQueryFlag@physx@@I@2@@Z 000000018010ce90 f   GuMeshQuery.obj
 0001:0010c110       ??$collide@$00$00@MeshRayCollider@@SAXAEBV?$PxVec3T@M@physx@@0M_NPEBVRTreeTriangleMesh@Gu@2@AEAU?$MeshHitCallback@UPxGeomRaycastHit@physx@@@42@PEBV12@@Z 000000018010d110 f i GuMidphaseRTree.obj
 0001:0010c480       ??$collide@$00$0A@@MeshRayCollider@@SAXAEBV?$PxVec3T@M@physx@@0M_NPEBVRTreeTriangleMesh@Gu@2@AEAU?$MeshHitCallback@UPxGeomRaycastHit@physx@@@42@PEBV12@@Z 000000018010d480 f i GuMidphaseRTree.obj
 0001:0010c6c0       ??$collide@$0A@$00@MeshRayCollider@@SAXAEBV?$PxVec3T@M@physx@@0M_NPEBVRTreeTriangleMesh@Gu@2@AEAU?$MeshHitCallback@UPxGeomRaycastHit@physx@@@42@PEBV12@@Z 000000018010d6c0 f i GuMidphaseRTree.obj
 0001:0010ea00       ??0?$RayRTreeCallback@$00$0A@@@QEAA@MAEAU?$MeshHitCallback@UPxGeomRaycastHit@physx@@@Gu@physx@@HPEBXPEBV?$PxVec3T@M@3@AEBV43@3M_N2@Z 000000018010fa00 f i GuMidphaseRTree.obj
 0001:0010eb20       ??1?$RayRTreeCallback@$00$00@@UEAA@XZ 000000018010fb20 f i GuMidphaseRTree.obj
 0001:0010ebb0       ??1?$RayRTreeCallback@$00$0A@@@UEAA@XZ 000000018010fbb0 f i GuMidphaseRTree.obj
 0001:0010ebb0       ??1?$RayRTreeCallback@$0A@$0A@@@UEAA@XZ 000000018010fbb0 f i GuMidphaseRTree.obj
 0001:0010ec40       ??1?$RayRTreeCallback@$0A@$00@@UEAA@XZ 000000018010fc40 f i GuMidphaseRTree.obj
 0001:0010ecc8       ??_E?$RayRTreeCallback@$00$00@@W7EAAPEAXI@Z 000000018010fcc8 f i GuMidphaseRTree.obj
 0001:0010ecd4       ??_E?$RayRTreeCallback@$00$0A@@@W7EAAPEAXI@Z 000000018010fcd4 f i GuMidphaseRTree.obj
 0001:0010ecd4       ??_E?$RayRTreeCallback@$0A@$0A@@@W7EAAPEAXI@Z 000000018010fcd4 f i GuMidphaseRTree.obj
 0001:0010ece0       ??_E?$RayRTreeCallback@$0A@$00@@W7EAAPEAXI@Z 000000018010fce0 f i GuMidphaseRTree.obj
 0001:0010ed50       ??_E?$RayRTreeCallback@$00$00@@UEAAPEAXI@Z 000000018010fd50 f i GuMidphaseRTree.obj
 0001:0010ed50       ??_G?$RayRTreeCallback@$00$00@@UEAAPEAXI@Z 000000018010fd50 f i GuMidphaseRTree.obj
 0001:0010ed90       ??_E?$RayRTreeCallback@$00$0A@@@UEAAPEAXI@Z 000000018010fd90 f i GuMidphaseRTree.obj
 0001:0010ed90       ??_E?$RayRTreeCallback@$0A@$0A@@@UEAAPEAXI@Z 000000018010fd90 f i GuMidphaseRTree.obj
 0001:0010ed90       ??_G?$RayRTreeCallback@$00$0A@@@UEAAPEAXI@Z 000000018010fd90 f i GuMidphaseRTree.obj
 0001:0010ed90       ??_G?$RayRTreeCallback@$0A@$0A@@@UEAAPEAXI@Z 000000018010fd90 f i GuMidphaseRTree.obj
 0001:0010edd0       ??_E?$RayRTreeCallback@$0A@$00@@UEAAPEAXI@Z 000000018010fdd0 f i GuMidphaseRTree.obj
 0001:0010edd0       ??_G?$RayRTreeCallback@$0A@$00@@UEAAPEAXI@Z 000000018010fdd0 f i GuMidphaseRTree.obj
 0001:0010ee10       ??_ECallback@RTree@Gu@physx@@UEAAPEAXI@Z 000000018010fe10 f i GuMidphaseRTree.obj
 0001:0010ee10       ??_GCallback@RTree@Gu@physx@@UEAAPEAXI@Z 000000018010fe10 f i GuMidphaseRTree.obj
 0001:0010ee40       ??_ERayMeshColliderCallback@@UEAAPEAXI@Z 000000018010fe40 f i GuMidphaseRTree.obj
 0001:0010ee40       ??_ESweepCapsuleMeshHitCallback@Gu@physx@@UEAAPEAXI@Z 000000018010fe40 f i GuSweepsMesh.obj
 0001:0010ee40       ??_GRayMeshColliderCallback@@UEAAPEAXI@Z 000000018010fe40 f i GuMidphaseRTree.obj
 0001:0010ee40       ??_GSweepCapsuleMeshHitCallback@Gu@physx@@UEAAPEAXI@Z 000000018010fe40 f i GuSweepsMesh.obj
 0001:0010ee70       ?collideOBB@MeshRayCollider@@SAXAEBVBox@Gu@physx@@_NPEBVRTreeTriangleMesh@34@AEAU?$MeshHitCallback@UPxGeomRaycastHit@physx@@@34@1@Z 000000018010fe70 f   GuMidphaseRTree.obj
 0001:0010f340       ?intersectBoxVsMesh_RTREE@Gu@physx@@YA_NAEBVBox@12@AEBVTriangleMesh@12@AEBV?$PxTransformT@M@2@AEBVPxMeshScale@2@PEAULimitedResults@12@@Z 0000000180110340 f   GuMidphaseRTree.obj
 0001:0010f3b0       ?intersectCapsuleVsMesh_RTREE@Gu@physx@@YA_NAEBVCapsule@12@AEBVTriangleMesh@12@AEBV?$PxTransformT@M@2@AEBVPxMeshScale@2@PEAULimitedResults@12@@Z 00000001801103b0 f   GuMidphaseRTree.obj
 0001:0010f430       ?intersectOBB_RTREE@Gu@physx@@YAXPEBVTriangleMesh@12@AEBVBox@12@AEAU?$MeshHitCallback@UPxGeomRaycastHit@physx@@@12@_N3@Z 0000000180110430 f   GuMidphaseRTree.obj
 0001:0010f460       ?intersectSphereVsMesh_RTREE@Gu@physx@@YA_NAEBVSphere@12@AEBVTriangleMesh@12@AEBV?$PxTransformT@M@2@AEBVPxMeshScale@2@PEAULimitedResults@12@@Z 0000000180110460 f   GuMidphaseRTree.obj
 0001:0010f490       ?pointMeshDistance_RTREE@Gu@physx@@YAXPEBVTriangleMesh@12@AEBVPxTriangleMeshGeometry@2@AEBV?$PxTransformT@M@2@AEBV?$PxVec3T@M@2@MAEAIAEAMAEAV62@@Z 0000000180110490 f   GuMidphaseRTree.obj
 0001:00110280       ?processHit@RayMeshColliderCallback@@UEAA_NAEBUPxGeomRaycastHit@physx@@AEBV?$PxVec3T@M@3@11AEAMPEBI@Z 0000000180111280 f i GuMidphaseRTree.obj
 0001:00110a20       ?processResults@?$RayRTreeCallback@$00$00@@UEAA_NIPEAI@Z 0000000180111a20 f i GuMidphaseRTree.obj
 0001:00110d90       ?processResults@?$RayRTreeCallback@$00$00@@UEAA_NIPEAIAEAM@Z 0000000180111d90 f i GuMidphaseRTree.obj
 0001:00111110       ?processResults@?$RayRTreeCallback@$00$0A@@@UEAA_NIPEAI@Z 0000000180112110 f i GuMidphaseRTree.obj
 0001:00111110       ?processResults@?$RayRTreeCallback@$0A@$0A@@@UEAA_NIPEAI@Z 0000000180112110 f i GuMidphaseRTree.obj
 0001:00111370       ?processResults@?$RayRTreeCallback@$00$0A@@@UEAA_NIPEAIAEAM@Z 0000000180112370 f i GuMidphaseRTree.obj
 0001:00111370       ?processResults@?$RayRTreeCallback@$0A@$0A@@@UEAA_NIPEAIAEAM@Z 0000000180112370 f i GuMidphaseRTree.obj
 0001:00111600       ?processResults@?$RayRTreeCallback@$0A@$00@@UEAA_NIPEAI@Z 0000000180112600 f i GuMidphaseRTree.obj
 0001:00111c40       ?processResults@?$RayRTreeCallback@$0A@$00@@UEAA_NIPEAIAEAM@Z 0000000180112c40 f i GuMidphaseRTree.obj
 0001:00112290       ?raycast_triangleMesh_RTREE@Gu@physx@@YAIPEBVTriangleMesh@12@AEBVPxTriangleMeshGeometry@2@AEBV?$PxTransformT@M@2@AEBV?$PxVec3T@M@2@3MV?$PxFlags@W4Enum@PxHitFlag@physx@@G@2@IPEIAUPxGeomRaycastHit@2@I@Z 0000000180113290 f   GuMidphaseRTree.obj
 0001:00112a10       ?sweepBox_MeshGeom_RTREE@Gu@physx@@YA_NPEBVTriangleMesh@12@AEBVPxTriangleMeshGeometry@2@AEBV?$PxTransformT@M@2@AEBVBox@12@AEBV?$PxVec3T@M@2@MAEAUPxGeomSweepHit@2@V?$PxFlags@W4Enum@PxHitFlag@physx@@G@2@M@Z 0000000180113a10 f   GuMidphaseRTree.obj
 0001:00113f30       ?sweepCapsule_MeshGeom_RTREE@Gu@physx@@YA_NPEBVTriangleMesh@12@AEBVPxTriangleMeshGeometry@2@AEBV?$PxTransformT@M@2@AEBVCapsule@12@AEBV?$PxVec3T@M@2@MAEAUPxGeomSweepHit@2@V?$PxFlags@W4Enum@PxHitFlag@physx@@G@2@M@Z 0000000180114f30 f   GuMidphaseRTree.obj
 0001:001146e0       ?sweepConvex_MeshGeom_RTREE@Gu@physx@@YAXPEBVTriangleMesh@12@AEBVBox@12@AEBV?$PxVec3T@M@2@MAEAUSweepConvexMeshHitCallback@12@_N@Z 00000001801156e0 f   GuMidphaseRTree.obj
 0001:00115090       ??_E?$PxReportCallback@UPxGeomIndexPair@physx@@@physx@@UEAAPEAXI@Z 0000000180116090 f i GuOverlapTestsMesh.obj
 0001:00115090       ??_G?$PxReportCallback@UPxGeomIndexPair@physx@@@physx@@UEAAPEAXI@Z 0000000180116090 f i GuOverlapTestsMesh.obj
 0001:00115120       ?GeomOverlapCallback_BoxMesh@@YA_NAEBVPxGeometry@physx@@AEBV?$PxTransformT@M@2@01PEAUTriggerCache@Gu@2@PEAUPxQueryThreadContext@2@@Z 0000000180116120 f   GuOverlapTestsMesh.obj
 0001:00115230       ?GeomOverlapCallback_CapsuleMesh@@YA_NAEBVPxGeometry@physx@@AEBV?$PxTransformT@M@2@01PEAUTriggerCache@Gu@2@PEAUPxQueryThreadContext@2@@Z 0000000180116230 f   GuOverlapTestsMesh.obj
 0001:00115340       ?GeomOverlapCallback_ConvexMesh@@YA_NAEBVPxGeometry@physx@@AEBV?$PxTransformT@M@2@01PEAUTriggerCache@Gu@2@PEAUPxQueryThreadContext@2@@Z 0000000180116340 f   GuOverlapTestsMesh.obj
 0001:00115840       ?GeomOverlapCallback_MeshMesh@@YA_NAEBVPxGeometry@physx@@AEBV?$PxTransformT@M@2@01PEAUTriggerCache@Gu@2@PEAUPxQueryThreadContext@2@@Z 0000000180116840 f   GuOverlapTestsMesh.obj
 0001:00115910       ?GeomOverlapCallback_SphereMesh@@YA_NAEBVPxGeometry@physx@@AEBV?$PxTransformT@M@2@01PEAUTriggerCache@Gu@2@PEAUPxQueryThreadContext@2@@Z 0000000180116910 f   GuOverlapTestsMesh.obj
 0001:00115d00       ??0RTree@Gu@physx@@QEAA@W4PxEMPTY@2@@Z 0000000180116d00 f   GuRTree.obj
 0001:00115d10       ?exportExtraData@RTree@Gu@physx@@QEAAXAEAVPxSerializationContext@3@@Z 0000000180116d10 f   GuRTree.obj
 0001:00115d50       ?importExtraData@RTree@Gu@physx@@QEAAXAEAVPxDeserializationContext@3@@Z 0000000180116d50 f   GuRTree.obj
 0001:00115d80       ?load@RTree@Gu@physx@@QEAA_NAEAVPxInputStream@3@I_N@Z 0000000180116d80 f   GuRTree.obj
 0001:00116080       ?refitAllStaticTree@RTree@Gu@physx@@QEAAXAEAUCallbackRefit@123@PEAVPxBounds3@3@@Z 0000000180117080 f   GuRTree.obj
 0001:001165e0       ?validate@RTree@Gu@physx@@QEAAXPEAUCallbackRefit@123@@Z 00000001801175e0 f   GuRTree.obj
 0001:00116820       ?validateRecursive@RTree@Gu@physx@@IEAAXIURTreeNodeQ@23@PEAURTreePage@23@PEAUCallbackRefit@123@@Z 0000000180117820 f   GuRTree.obj
 0001:001169e0       ??$traverseRay@$00@RTree@Gu@physx@@QEBAXAEBV?$PxVec3T@M@2@0IPEAIPEAUCallbackRaycast@012@PEBV32@M@Z 00000001801179e0 f i GuRTreeQueries.obj
 0001:00116d80       ??$traverseRay@$0A@@RTree@Gu@physx@@QEBAXAEBV?$PxVec3T@M@2@0IPEAIPEAUCallbackRaycast@012@PEBV32@M@Z 0000000180117d80 f i GuRTreeQueries.obj
 0001:001170d0       ?traverseAABB@RTree@Gu@physx@@QEBAXAEBV?$PxVec3T@M@3@0IPEAIPEAUCallback@123@@Z 00000001801180d0 f   GuRTreeQueries.obj
 0001:00117290       ?traverseOBB@RTree@Gu@physx@@QEBAXAEBVBox@23@IPEAIPEAUCallback@123@@Z 0000000180118290 f   GuRTreeQueries.obj
 0001:00117b70       ??0SweepBoxMeshHitCallback@Gu@physx@@QEAA@W4Enum@CallbackMode@12@AEBVPxMat34Padded@2@M_NAEBVBox@12@AEBV?$PxVec3T@M@2@44AEBV?$PxFlags@W4Enum@PxHitFlag@physx@@G@2@M2M@Z 0000000180118b70 f   GuSweepsMesh.obj
 0001:00117c80       ??0SweepCapsuleMeshHitCallback@Gu@physx@@QEAA@AEAUPxGeomSweepHit@2@AEBV?$PxMat34T@M@2@M_NAEBVCapsule@12@AEBV?$PxVec3T@M@2@AEBV?$PxFlags@W4Enum@PxHitFlag@physx@@G@2@2M@Z 0000000180118c80 f   GuSweepsMesh.obj
 0001:00117d50       ??0SweepConvexMeshHitCallback@Gu@physx@@QEAA@AEBUConvexHullData@12@AEBVPxMeshScale@2@AEBVFastVertex2ShapeScaling@Cm@2@AEBV?$PxTransformT@M@2@3AEBV?$PxVec3T@M@2@MV?$PxFlags@W4Enum@PxHitFlag@physx@@G@2@_NM6M@Z 0000000180118d50 f   GuSweepsMesh.obj
 0001:001186b0       ??_ESweepBoxMeshHitCallback@Gu@physx@@UEAAPEAXI@Z 00000001801196b0 f i GuSweepsMesh.obj
 0001:001186b0       ??_GSweepBoxMeshHitCallback@Gu@physx@@UEAAPEAXI@Z 00000001801196b0 f i GuSweepsMesh.obj
 0001:001186e0       ??_ESweepConvexMeshHitCallback@Gu@physx@@UEAAPEAXI@Z 00000001801196e0 f i GuSweepsMesh.obj
 0001:001186e0       ??_GSweepConvexMeshHitCallback@Gu@physx@@UEAAPEAXI@Z 00000001801196e0 f i GuSweepsMesh.obj
 0001:00118710       ??_ESweepShapeMeshHitCallback@Gu@physx@@UEAAPEAXI@Z 0000000180119710 f i GuSweepsMesh.obj
 0001:00118710       ??_GSweepShapeMeshHitCallback@Gu@physx@@UEAAPEAXI@Z 0000000180119710 f i GuSweepsMesh.obj
 0001:00118740       ?finalizeHit@SweepBoxMeshHitCallback@Gu@physx@@QEBA_NAEAUPxGeomSweepHit@3@AEBVPxTriangleMeshGeometry@3@AEBV?$PxTransformT@M@3@2AEBV?$PxVec3T@M@3@_N4@Z 0000000180119740 f   GuSweepsMesh.obj
 0001:00118e00       ?finalizeHit@SweepCapsuleMeshHitCallback@Gu@physx@@QEBA_NAEAUPxGeomSweepHit@3@AEBVCapsule@23@AEBVPxTriangleMeshGeometry@3@AEBV?$PxTransformT@M@3@_N@Z 0000000180119e00 f   GuSweepsMesh.obj
 0001:00118fb0       ?finalizeHit@SweepConvexMeshHitCallback@Gu@physx@@QEAA_NAEAUPxGeomSweepHit@3@AEBVPxTriangleMeshGeometry@3@AEBV?$PxTransformT@M@3@AEBVPxConvexMeshGeometry@3@2AEBV?$PxVec3T@M@3@M_N555@Z 0000000180119fb0 f   GuSweepsMesh.obj
 0001:00119480       ?processHit@SweepBoxMeshHitCallback@Gu@physx@@UEAA_NAEBUPxGeomRaycastHit@3@AEBV?$PxVec3T@M@3@11AEAMPEBI@Z 000000018011a480 f   GuSweepsMesh.obj
 0001:00119c70       ?processHit@SweepCapsuleMeshHitCallback@Gu@physx@@UEAA_NAEBUPxGeomRaycastHit@3@AEBV?$PxVec3T@M@3@11AEAMPEBI@Z 000000018011ac70 f   GuSweepsMesh.obj
 0001:0011a1d0       ?processHit@SweepConvexMeshHitCallback@Gu@physx@@UEAA_NAEBUPxGeomRaycastHit@3@AEBV?$PxVec3T@M@3@11AEAMPEBI@Z 000000018011b1d0 f   GuSweepsMesh.obj
 0001:0011a910       ?sweepBox_MeshGeom@@YA_NAEBVPxGeometry@physx@@AEBV?$PxTransformT@M@2@AEBVPxBoxGeometry@2@1AEBVBox@Gu@2@AEBV?$PxVec3T@M@2@MAEAUPxGeomSweepHit@2@V?$PxFlags@W4Enum@PxHitFlag@physx@@G@2@MPEAUPxQueryThreadContext@2@@Z 000000018011b910 f   GuSweepsMesh.obj
 0001:0011a9a0       ?sweepCapsule_MeshGeom@@YA_NAEBVPxGeometry@physx@@AEBV?$PxTransformT@M@2@AEBVPxCapsuleGeometry@2@1AEBVCapsule@Gu@2@AEBV?$PxVec3T@M@2@MAEAUPxGeomSweepHit@2@V?$PxFlags@W4Enum@PxHitFlag@physx@@G@2@MPEAUPxQueryThreadContext@2@@Z 000000018011b9a0 f   GuSweepsMesh.obj
 0001:0011aa30       ?sweepConvex_MeshGeom@@YA_NAEBVPxGeometry@physx@@AEBV?$PxTransformT@M@2@AEBVPxConvexMeshGeometry@2@1AEBV?$PxVec3T@M@2@MAEAUPxGeomSweepHit@2@V?$PxFlags@W4Enum@PxHitFlag@physx@@G@2@MPEAUPxQueryThreadContext@2@@Z 000000018011ba30 f   GuSweepsMesh.obj
 0001:0011b570       ??0TriangleMesh@Gu@physx@@QEAA@AEBUPxTriangleMeshInternalData@2@@Z 000000018011c570 f   GuTriangleMesh.obj
 0001:0011b650       ??0TriangleMesh@Gu@physx@@QEAA@PEAVMeshFactory@12@AEAVTriangleMeshData@12@@Z 000000018011c650 f   GuTriangleMesh.obj
 0001:0011b9d0       ??1TriangleMesh@Gu@physx@@UEAA@XZ 000000018011c9d0 f   GuTriangleMesh.obj
 0001:0011bc40       ??_ETriangleMesh@Gu@physx@@UEAAPEAXI@Z 000000018011cc40 f i GuTriangleMesh.obj
 0001:0011bc40       ??_GTriangleMesh@Gu@physx@@UEAAPEAXI@Z 000000018011cc40 f i GuTriangleMesh.obj
 0001:0011bcb0       ?exportExtraData@TriangleMesh@Gu@physx@@UEAAXAEAVPxSerializationContext@3@@Z 000000018011ccb0 f   GuTriangleMesh.obj
 0001:0011bf10       ?getLocalBounds@TriangleMesh@Gu@physx@@UEBA?AVPxBounds3@3@XZ 000000018011cf10 f i GuTriangleMesh.obj
 0001:0011bfa0       ?getMassInformation@TriangleMesh@Gu@physx@@UEBAXAEAMAEAV?$PxMat33T@M@3@AEAV?$PxVec3T@M@3@@Z 000000018011cfa0 f i GuTriangleMesh.obj
 0001:0011c020       ?getNbTriangles@TriangleMesh@Gu@physx@@UEBAIXZ 000000018011d020 f i GuTriangleMesh.obj
 0001:0011c030       ?getPreferSDFProjection@TriangleMesh@Gu@physx@@UEBA_NXZ 000000018011d030 f i GuTriangleMesh.obj
 0001:0011c040       ?getSDF@TriangleMesh@Gu@physx@@UEBAPEBMXZ 000000018011d040 f i GuTriangleMesh.obj
 0001:0011c050       ?getSDFDimensions@TriangleMesh@Gu@physx@@UEBAXAEAI00@Z 000000018011d050 f i GuTriangleMesh.obj
 0001:0011c080       ?getTriangleMaterialIndex@TriangleMesh@Gu@physx@@UEBAGI@Z 000000018011d080 f i GuTriangleMesh.obj
 0001:0011c0a0       ?getTriangleMeshFlags@TriangleMesh@Gu@physx@@UEBA?AV?$PxFlags@W4Enum@PxTriangleMeshFlag@physx@@E@3@XZ 000000018011d0a0 f i GuTriangleMesh.obj
 0001:0011c0b0       ?getTrianglesRemap@TriangleMesh@Gu@physx@@UEBAPEBIXZ 000000018011d0b0 f i GuTriangleMesh.obj
 0001:0011c0c0       ?getVerticesForModification@TriangleMesh@Gu@physx@@UEAAPEAV?$PxVec3T@M@3@XZ 000000018011d0c0 f   GuTriangleMesh.obj
 0001:0011c100       ?importExtraData@TriangleMesh@Gu@physx@@QEAAXAEAVPxDeserializationContext@3@@Z 000000018011d100 f   GuTriangleMesh.obj
 0001:0011c310       ?isKindOf@PxTriangleMesh@physx@@MEBA_NPEBD@Z 000000018011d310 f i GuTriangleMesh.obj
 0001:0011c3a0       ?onRefCountZero@TriangleMesh@Gu@physx@@UEAAXXZ 000000018011d3a0 f   GuTriangleMesh.obj
 0001:0011c470       ?refitBVH@TriangleMesh@Gu@physx@@UEAA?AVPxBounds3@3@XZ 000000018011d470 f   GuTriangleMesh.obj
 0001:0011c540       ?requestEdgeList@TriangleMesh@Gu@physx@@QEBAPEBVEdgeList@23@XZ 000000018011d540 f   GuTriangleMesh.obj
 0001:0011c630       ?setAllEdgesActive@TriangleMesh@Gu@physx@@QEAAXXZ 000000018011d630 f   GuTriangleMesh.obj
 0001:0011c720       ?setPreferSDFProjection@TriangleMesh@Gu@physx@@UEAAX_N@Z 000000018011d720 f i GuTriangleMesh.obj
 0001:0011c750       ??0BV4TriangleMesh@Gu@physx@@QEAA@AEBUPxTriangleMeshInternalData@2@@Z 000000018011d750 f   GuTriangleMeshBV4.obj
 0001:0011c8b0       ??0BV4TriangleMesh@Gu@physx@@QEAA@PEAVMeshFactory@12@AEAVTriangleMeshData@12@@Z 000000018011d8b0 f   GuTriangleMeshBV4.obj
 0001:0011c940       ??_EBV4TriangleMesh@Gu@physx@@UEAAPEAXI@Z 000000018011d940 f i GuTriangleMeshBV4.obj
 0001:0011c940       ??_GBV4TriangleMesh@Gu@physx@@UEAAPEAXI@Z 000000018011d940 f i GuTriangleMeshBV4.obj
 0001:0011c9d0       ?createObject@BV4TriangleMesh@Gu@physx@@SAPEAVTriangleMesh@23@AEAPEAEAEAVPxDeserializationContext@3@@Z 000000018011d9d0 f   GuTriangleMeshBV4.obj
 0001:0011caa0       ?exportExtraData@BV4TriangleMesh@Gu@physx@@UEAAXAEAVPxSerializationContext@3@@Z 000000018011daa0 f   GuTriangleMeshBV4.obj
 0001:0011cae0       ?getConcreteTypeName@BV4TriangleMesh@Gu@physx@@UEBAPEBDXZ 000000018011dae0 f i GuTriangleMeshBV4.obj
 0001:0011caf0       ?getInternalData@BV4TriangleMesh@Gu@physx@@UEBA_NAEAUPxTriangleMeshInternalData@3@_N@Z 000000018011daf0 f   GuTriangleMeshBV4.obj
 0001:0011cbe0       ?getMidphaseID@BV4TriangleMesh@Gu@physx@@UEBA?AW4Enum@PxMeshMidPhase@3@XZ 000000018011dbe0 f i GuTriangleMeshBV4.obj
 0001:0011cbe0       ?getMidphaseID@BV4TriangleMeshBuilder@physx@@UEBA?AW4Enum@PxMeshMidPhase@2@XZ 000000018011dbe0 f i GuCookingTriangleMesh.obj
 0001:0011cbe0       ?length@charNode@@UEBAHXZ  000000018011dbe0 f i libvcruntime:undname.obj
 0001:0011cbe0       ?raw_length@charNode@@UEBAHXZ 000000018011dbe0 f i libvcruntime:undname.obj
 0001:0011cbe0       DllMain                    000000018011dbe0 f i LIBCMT:dll_dllmain_stub.obj
 0001:0011cbe0       _get_startup_argv_mode     000000018011dbe0 f i LIBCMT:argv_mode.obj
 0001:0011cbf0       ?getVerticesForModification@BV4TriangleMesh@Gu@physx@@UEAAPEAV?$PxVec3T@M@3@XZ 000000018011dbf0 f   GuTriangleMeshBV4.obj
 0001:0011cbf0       ?getVerticesForModification@RTreeTriangleMesh@Gu@physx@@UEAAPEAV?$PxVec3T@M@3@XZ 000000018011dbf0 f   GuTriangleMeshRTree.obj
 0001:0011cc00       ?refitBVH@BV4TriangleMesh@Gu@physx@@UEAA?AVPxBounds3@3@XZ 000000018011dc00 f   GuTriangleMeshBV4.obj
 0001:0011cd70       PxGetTriangleMeshInternalData 000000018011dd70 f   GuTriangleMeshBV4.obj
 0001:0011cd90       ??0RTreeTriangleMesh@Gu@physx@@QEAA@PEAVMeshFactory@12@AEAVTriangleMeshData@12@@Z 000000018011dd90 f   GuTriangleMeshRTree.obj
 0001:0011cf00       ??_E?$RefitCallback@G@physx@@UEAAPEAXI@Z 000000018011df00 f i GuTriangleMeshRTree.obj
 0001:0011cf00       ??_E?$RefitCallback@I@physx@@UEAAPEAXI@Z 000000018011df00 f i GuTriangleMeshRTree.obj
 0001:0011cf00       ??_G?$RefitCallback@G@physx@@UEAAPEAXI@Z 000000018011df00 f i GuTriangleMeshRTree.obj
 0001:0011cf00       ??_G?$RefitCallback@I@physx@@UEAAPEAXI@Z 000000018011df00 f i GuTriangleMeshRTree.obj
 0001:0011cf30       ??_ERTreeTriangleMesh@Gu@physx@@UEAAPEAXI@Z 000000018011df30 f i GuTriangleMeshRTree.obj
 0001:0011cf30       ??_GRTreeTriangleMesh@Gu@physx@@UEAAPEAXI@Z 000000018011df30 f i GuTriangleMeshRTree.obj
 0001:0011cfe0       ?createObject@RTreeTriangleMesh@Gu@physx@@SAPEAVTriangleMesh@23@AEAPEAEAEAVPxDeserializationContext@3@@Z 000000018011dfe0 f   GuTriangleMeshRTree.obj
 0001:0011d060       ?exportExtraData@RTreeTriangleMesh@Gu@physx@@UEAAXAEAVPxSerializationContext@3@@Z 000000018011e060 f   GuTriangleMeshRTree.obj
 0001:0011d0a0       ?getConcreteTypeName@RTreeTriangleMesh@Gu@physx@@UEBAPEBDXZ 000000018011e0a0 f i GuTriangleMeshRTree.obj
 0001:0011d0b0       ?recomputeBounds@?$RefitCallback@G@physx@@UEAAXIAEAT__m128@@0@Z 000000018011e0b0 f i GuTriangleMeshRTree.obj
 0001:0011d3e0       ?recomputeBounds@?$RefitCallback@I@physx@@UEAAXIAEAT__m128@@0@Z 000000018011e3e0 f i GuTriangleMeshRTree.obj
 0001:0011d700       ?refitBVH@RTreeTriangleMesh@Gu@physx@@UEAA?AVPxBounds3@3@XZ 000000018011e700 f   GuTriangleMeshRTree.obj
 0001:0011d820       ??0BV32Tree@Gu@physx@@QEAA@W4PxEMPTY@2@@Z 000000018011e820 f   GuBV32.obj
 0001:0011d840       ??0BV32Tree@Gu@physx@@QEAA@XZ 000000018011e840 f   GuBV32.obj
 0001:0011d870       ??1BV32Tree@Gu@physx@@QEAA@XZ 000000018011e870 f   GuBV32.obj
 0001:0011d880       ?createSOAformatNode@BV32Tree@Gu@physx@@QEAAXAEAUBV32DataPacked@23@AEBUBV32Data@23@IAEAI2@Z 000000018011e880 f   GuBV32.obj
 0001:0011dce0       ?exportExtraData@BV32Tree@Gu@physx@@QEAAXAEAVPxSerializationContext@3@@Z 000000018011ece0 f   GuBV32.obj
 0001:0011dd20       ?importExtraData@BV32Tree@Gu@physx@@QEAAXAEAVPxDeserializationContext@3@@Z 000000018011ed20 f   GuBV32.obj
 0001:0011dd50       ?load@BV32Tree@Gu@physx@@QEAA_NAEAVPxInputStream@3@_N@Z 000000018011ed50 f   GuBV32.obj
 0001:0011e090       ?release@BV32Tree@Gu@physx@@QEAAXXZ 000000018011f090 f   GuBV32.obj
 0001:0011e150       ??0BV32Node@@QEAA@XZ       000000018011f150 f i GuBV32Build.obj
 0001:0011e5d0       ?BuildBV32Ex@Gu@physx@@YA_NAEAVBV32Tree@12@AEAVSourceMeshBase@12@MI@Z 000000018011f5d0 f   GuBV32Build.obj
 0001:0011f5f0       ??0BVTetrahedronMesh@Gu@physx@@QEAA@AEAVTetrahedronMeshData@12@AEAVSoftBodyCollisionData@12@PEAVMeshFactory@12@@Z 00000001801205f0 f   GuTetrahedronMesh.obj
 0001:0011f850       ??0SoftBodyMesh@Gu@physx@@QEAA@PEAVMeshFactory@12@AEAVSoftBodyMeshData@12@@Z 0000000180120850 f   GuTetrahedronMesh.obj
 0001:0011fbf0       ??0TetrahedronMesh@Gu@physx@@QEAA@PEAVMeshFactory@12@AEAVTetrahedronMeshData@12@@Z 0000000180120bf0 f   GuTetrahedronMesh.obj
 0001:0011fce0       ??1SoftBodyAuxData@Gu@physx@@UEAA@XZ 0000000180120ce0 f   GuTetrahedronMesh.obj
 0001:0011ff60       ??1TetrahedronMesh@Gu@physx@@UEAA@XZ 0000000180120f60 f   GuTetrahedronMesh.obj
 0001:00120000       ??_EBVTetrahedronMesh@Gu@physx@@UEAAPEAXI@Z 0000000180121000 f i GuTetrahedronMesh.obj
 0001:00120000       ??_GBVTetrahedronMesh@Gu@physx@@UEAAPEAXI@Z 0000000180121000 f i GuTetrahedronMesh.obj
 0001:00120180       ??_ESoftBodyAuxData@Gu@physx@@UEAAPEAXI@Z 0000000180121180 f i GuTetrahedronMesh.obj
 0001:00120180       ??_GSoftBodyAuxData@Gu@physx@@UEAAPEAXI@Z 0000000180121180 f i GuTetrahedronMesh.obj
 0001:001201f0       ??_ESoftBodyMesh@Gu@physx@@UEAAPEAXI@Z 00000001801211f0 f i GuTetrahedronMesh.obj
 0001:001201f0       ??_GSoftBodyMesh@Gu@physx@@UEAAPEAXI@Z 00000001801211f0 f i GuTetrahedronMesh.obj
 0001:001202c0       ??_ETetrahedronMesh@Gu@physx@@UEAAPEAXI@Z 00000001801212c0 f i GuTetrahedronMesh.obj
 0001:001202c0       ??_GTetrahedronMesh@Gu@physx@@UEAAPEAXI@Z 00000001801212c0 f i GuTetrahedronMesh.obj
 0001:00120330       ?exportExtraData@SoftBodyMesh@Gu@physx@@UEAAXAEAVPxSerializationContext@3@@Z 0000000180121330 f   GuTetrahedronMesh.obj
 0001:00120420       ?getConcreteTypeName@SoftBodyAuxData@Gu@physx@@UEBAPEBDXZ 0000000180121420 f i GuTetrahedronMesh.obj
 0001:00120430       ?getConcreteTypeName@SoftBodyMesh@Gu@physx@@UEBAPEBDXZ 0000000180121430 f i GuTetrahedronMesh.obj
 0001:00120440       ?getConcreteTypeName@TetrahedronMesh@Gu@physx@@UEBAPEBDXZ 0000000180121440 f i GuTetrahedronMesh.obj
 0001:00120450       ?getLocalBounds@TetrahedronMesh@Gu@physx@@UEBA?AVPxBounds3@3@XZ 0000000180121450 f i GuTetrahedronMesh.obj
 0001:001204e0       ?getNbTetrahedrons@TetrahedronMesh@Gu@physx@@UEBAIXZ 00000001801214e0 f i GuTetrahedronMesh.obj
 0001:001204f0       ?getBounds@BVH@Gu@physx@@UEBAPEBVPxBounds3@3@XZ 00000001801214f0 f i GuBVH.obj
 0001:001204f0       ?getTetrahedraRemap@BVTetrahedronMesh@Gu@physx@@UEBAPEBIXZ 00000001801214f0 f i GuTetrahedronMesh.obj
 0001:00120500       ?getTetrahedronMeshFlags@TetrahedronMesh@Gu@physx@@UEBA?AV?$PxFlags@W4Enum@PxTetrahedronMeshFlag@physx@@E@3@XZ 0000000180121500 f i GuTetrahedronMesh.obj
 0001:00120510       ?getTetrahedrons@TetrahedronMesh@Gu@physx@@UEBAPEBXXZ 0000000180121510 f i GuTetrahedronMesh.obj
 0001:00120520       ?isKindOf@PxSoftBodyAuxData@physx@@MEBA_NPEBD@Z 0000000180121520 f i GuTetrahedronMesh.obj
 0001:001205b0       ?isKindOf@PxSoftBodyMesh@physx@@MEBA_NPEBD@Z 00000001801215b0 f i GuTetrahedronMesh.obj
 0001:00120640       ?isKindOf@PxTetrahedronMesh@physx@@MEBA_NPEBD@Z 0000000180121640 f i GuTetrahedronMesh.obj
 0001:001206d0       ?onRefCountZero@SoftBodyAuxData@Gu@physx@@UEAAXXZ 00000001801216d0 f i GuTetrahedronMesh.obj
 0001:001206d0       ?release@SimulationTetrahedronMeshData@Gu@physx@@UEAAXXZ 00000001801216d0 f i GuCookingTetrahedronMesh.obj
 0001:001206f0       ?onRefCountZero@SoftBodyMesh@Gu@physx@@UEAAXXZ 00000001801216f0 f   GuTetrahedronMesh.obj
 0001:00120790       ?onRefCountZero@TetrahedronMesh@Gu@physx@@UEAAXXZ 0000000180121790 f   GuTetrahedronMesh.obj
 0001:00120830       ?addAxisToSimMeshBarycentric@Gu@physx@@YA?AV?$PxVec4T@M@2@AEBVPxTetrahedronMesh@2@IAEBV32@AEBV?$PxVec3T@M@2@@Z 0000000180121830 f   GuTetrahedronMeshUtils.obj
 0001:00120af0       ?closestPtPointTetrahedron@Gu@physx@@YA?AV?$PxVec3T@M@2@AEBV32@0000@Z 0000000180121af0 f i GuTetrahedronMeshUtils.obj
 0001:00121c30       ?computeBarycentric@physx@@YAXAEBV?$PxVec3T@M@1@0000AEAV?$PxVec4T@M@1@@Z 0000000180122c30 f i GuTetrahedronMeshUtils.obj
 0001:00121ee0       ?convertSoftbodyCollisionToSimMeshTets@Gu@physx@@YAXAEBVPxTetrahedronMesh@2@AEBVSoftBodyAuxData@12@AEBVBVTetrahedronMesh@12@IAEBV?$PxVec4T@M@2@AEAIAEAV62@@Z 0000000180122ee0 f   GuTetrahedronMeshUtils.obj
 0001:00124ab0       ?pcmContactBoxBox@Gu@physx@@YA_NAEBVPxGeometry@2@0AEBUPxTransformPadded@2@1AEBUNarrowPhaseParams@12@AEAUCache@12@AEAVPxContactBuffer@2@PEAVPxRenderOutput@2@@Z 0000000180125ab0 f   GuPCMContactBoxBox.obj
 0001:00125950       ??$gjkPenetration@U?$RelativeConvex@VBoxV@Gu@physx@@@Gu@physx@@U?$LocalConvex@VConvexHullNoScaleV@Gu@physx@@@23@@Gu@physx@@YA?AW4GjkStatus@01@AEBU?$RelativeConvex@VBoxV@Gu@physx@@@01@AEBU?$LocalConvex@VConvexHullNoScaleV@Gu@physx@@@01@AEBT__m128@@2_NPEIAE4AEAEAEAUGjkOutput@01@@Z 0000000180126950 f i GuPCMContactBoxConvex.obj
 0001:001259c0       ??$gjkPenetration@U?$RelativeConvex@VBoxV@Gu@physx@@@Gu@physx@@U?$LocalConvex@VConvexHullNoScaleV@Gu@physx@@@23@@Gu@physx@@YA?AW4GjkStatus@01@AEBU?$RelativeConvex@VBoxV@Gu@physx@@@01@AEBU?$LocalConvex@VConvexHullNoScaleV@Gu@physx@@@01@AEBT__m128@@2_NPEIAE4PEIAT5@5AEAEAEAUGjkOutput@01@@Z 00000001801269c0 f i GuPCMContactBoxConvex.obj
 0001:001275a0       ?pcmContactBoxConvex@Gu@physx@@YA_NAEBVPxGeometry@2@0AEBUPxTransformPadded@2@1AEBUNarrowPhaseParams@12@AEAUCache@12@AEAVPxContactBuffer@2@PEAVPxRenderOutput@2@@Z 00000001801285a0 f   GuPCMContactBoxConvex.obj
 0001:001283a0       ?support@?$LocalConvex@VConvexHullNoScaleV@Gu@physx@@@Gu@physx@@UEBA?AT__m128@@AEBT4@@Z 00000001801293a0 f i GuPCMContactBoxConvex.obj
 0001:001283f0       ?support@?$LocalConvex@VConvexHullNoScaleV@Gu@physx@@@Gu@physx@@UEBA?AT__m128@@AEBT4@AEAH@Z 00000001801293f0 f i GuPCMContactBoxConvex.obj
 0001:00128450       ?supportPoint@?$LocalConvex@VConvexHullNoScaleV@Gu@physx@@@Gu@physx@@UEBA?AT__m128@@H@Z 0000000180129450 f i GuPCMContactBoxConvex.obj
 0001:00128480       ?pcmContactCapsuleBox@Gu@physx@@YA_NAEBVPxGeometry@2@0AEBUPxTransformPadded@2@1AEBUNarrowPhaseParams@12@AEAUCache@12@AEAVPxContactBuffer@2@PEAVPxRenderOutput@2@@Z 0000000180129480 f   GuPCMContactCapsuleBox.obj
 0001:001293f0       ?pcmContactCapsuleCapsule@Gu@physx@@YA_NAEBVPxGeometry@2@0AEBUPxTransformPadded@2@1AEBUNarrowPhaseParams@12@AEAUCache@12@AEAVPxContactBuffer@2@PEAVPxRenderOutput@2@@Z 000000018012a3f0 f   GuPCMContactCapsuleCapsule.obj
 0001:00129b90       ??$gjkPenetration@U?$LocalConvex@VCapsuleV@Gu@physx@@@Gu@physx@@U?$LocalConvex@VConvexHullNoScaleV@Gu@physx@@@23@@Gu@physx@@YA?AW4GjkStatus@01@AEBU?$LocalConvex@VCapsuleV@Gu@physx@@@01@AEBU?$LocalConvex@VConvexHullNoScaleV@Gu@physx@@@01@AEBT__m128@@2_NPEIAE4AEAEAEAUGjkOutput@01@@Z 000000018012ab90 f i GuPCMContactCapsuleConvex.obj
 0001:00129c00       ??$gjkPenetration@U?$LocalConvex@VCapsuleV@Gu@physx@@@Gu@physx@@U?$LocalConvex@VConvexHullNoScaleV@Gu@physx@@@23@@Gu@physx@@YA?AW4GjkStatus@01@AEBU?$LocalConvex@VCapsuleV@Gu@physx@@@01@AEBU?$LocalConvex@VConvexHullNoScaleV@Gu@physx@@@01@AEBT__m128@@2_NPEIAE4PEIAT5@5AEAEAEAUGjkOutput@01@@Z 000000018012ac00 f i GuPCMContactCapsuleConvex.obj
 0001:0012b2c0       ?pcmContactCapsuleConvex@Gu@physx@@YA_NAEBVPxGeometry@2@0AEBUPxTransformPadded@2@1AEBUNarrowPhaseParams@12@AEAUCache@12@AEAVPxContactBuffer@2@PEAVPxRenderOutput@2@@Z 000000018012c2c0 f   GuPCMContactCapsuleConvex.obj
 0001:0012c4b0       ??_EPCMCapsuleVsHeightfieldContactGenerationCallback@@UEAAPEAXI@Z 000000018012d4b0 f i GuPCMContactCapsuleHeightField.obj
 0001:0012c4b0       ??_GPCMCapsuleVsHeightfieldContactGenerationCallback@@UEAAPEAXI@Z 000000018012d4b0 f i GuPCMContactCapsuleHeightField.obj
 0001:0012c4e0       ?pcmContactCapsuleHeightField@Gu@physx@@YA_NAEBVPxGeometry@2@0AEBUPxTransformPadded@2@1AEBUNarrowPhaseParams@12@AEAUCache@12@AEAVPxContactBuffer@2@PEAVPxRenderOutput@2@@Z 000000018012d4e0 f   GuPCMContactCapsuleHeightField.obj
 0001:0012d400       ?reportTouchedTris@?$PCMHeightfieldContactGenerationCallback@UPCMCapsuleVsHeightfieldContactGenerationCallback@@@Gu@physx@@UEAA_NIPEBI@Z 000000018012e400 f i GuPCMContactCapsuleHeightField.obj
 0001:0012da70       ?generateContacts@PCMCapsuleVsMeshContactGeneration@Gu@physx@@SAXAEBT__m128@@0000I000PEAVMeshPersistentContact@23@AEAI@Z 000000018012ea70 f   GuPCMContactCapsuleMesh.obj
 0001:0012de90       ?generateEE@PCMCapsuleVsMeshContactGeneration@Gu@physx@@QEAAXAEBT__m128@@000I00PEAVMeshPersistentContact@23@AEAI@Z 000000018012ee90 f   GuPCMContactCapsuleMesh.obj
 0001:0012e100       ?generateEEMTD@PCMCapsuleVsMeshContactGeneration@Gu@physx@@SAXAEBT__m128@@000I00PEAVMeshPersistentContact@23@AEAI@Z 000000018012f100 f   GuPCMContactCapsuleMesh.obj
 0001:0012e330       ?pcmContactCapsuleMesh@Gu@physx@@YA_NAEBVPxGeometry@2@0AEBUPxTransformPadded@2@1AEBUNarrowPhaseParams@12@AEAUCache@12@AEAVPxContactBuffer@2@PEAVPxRenderOutput@2@@Z 000000018012f330 f   GuPCMContactCapsuleMesh.obj
 0001:0012fba0       ?pcmDistanceSegmentTriangleSquaredExported@@YA?AT__m128@@AEBT1@0000AEAT1@11@Z 0000000180130ba0 f   GuPCMContactCapsuleMesh.obj
 0001:00130000       ?processTriangle@PCMCapsuleVsMeshContactGeneration@Gu@physx@@QEAA_NPEBV?$PxVec3T@M@3@IEPEBI@Z 0000000180131000 f   GuPCMContactCapsuleMesh.obj
 0001:00130c00       ?processTriangle@PCMCapsuleVsMeshContactGeneration@Gu@physx@@SA_NAEBVTriangleV@23@IAEBVCapsuleV@23@AEBT__m128@@EPEAVMeshPersistentContact@23@AEAI@Z 0000000180131c00 f   GuPCMContactCapsuleMesh.obj
 0001:00130f30       ?addContactsToPatch@PCMConvexVsMeshContactGeneration@Gu@physx@@QEAAXAEBT__m128@@I@Z 0000000180131f30 f   GuPCMContactConvexCommon.obj
 0001:00131870       ?doSupport@?$SupportLocalImpl@VTriangleV@Gu@physx@@@Gu@physx@@UEBA?AT__m128@@AEBT4@@Z 0000000180132870 f i GuPCMContactConvexCommon.obj
 0001:00131900       ?doSupport@?$SupportLocalImpl@VTriangleV@Gu@physx@@@Gu@physx@@UEBAXAEBT__m128@@AEAT4@1@Z 0000000180132900 f i GuPCMContactConvexCommon.obj
 0001:00131970       ?generateLastContacts@PCMConvexVsMeshContactGeneration@Gu@physx@@QEAAXXZ 0000000180132970 f   GuPCMContactConvexCommon.obj
 0001:00131ed0       ?populateVerts@?$SupportLocalImpl@VTriangleV@Gu@physx@@@Gu@physx@@UEBAXPEBEIPEBV?$PxVec3T@M@3@PEAT__m128@@@Z 0000000180132ed0 f i GuPCMContactConvexCommon.obj
 0001:00132010       ?processTriangle@PCMConvexVsMeshContactGeneration@Gu@physx@@QEAA_NPEBV?$PxVec3T@M@3@IEPEBI@Z 0000000180133010 f   GuPCMContactConvexCommon.obj
 0001:00132560       ?processTriangle@PCMConvexVsMeshContactGeneration@Gu@physx@@SA_NAEBUPolygonalData@23@PEBVSupportLocal@23@PEBV?$PxVec3T@M@3@IEAEBT__m128@@_NAEBVPxTransformV@aos@3@AEBVPxMatTransformV@93@PEAVMeshPersistentContact@23@AEAI@Z 0000000180133560 f   GuPCMContactConvexCommon.obj
 0001:001327e0       ??$gjkPenetration@U?$RelativeConvex@VConvexHullNoScaleV@Gu@physx@@@Gu@physx@@U?$LocalConvex@VConvexHullNoScaleV@Gu@physx@@@23@@Gu@physx@@YA?AW4GjkStatus@01@AEBU?$RelativeConvex@VConvexHullNoScaleV@Gu@physx@@@01@AEBU?$LocalConvex@VConvexHullNoScaleV@Gu@physx@@@01@AEBT__m128@@2_NPEIAE4AEAEAEAUGjkOutput@01@@Z 00000001801337e0 f i GuPCMContactConvexConvex.obj
 0001:00132850       ??$gjkPenetration@U?$RelativeConvex@VConvexHullNoScaleV@Gu@physx@@@Gu@physx@@U?$LocalConvex@VConvexHullNoScaleV@Gu@physx@@@23@@Gu@physx@@YA?AW4GjkStatus@01@AEBU?$RelativeConvex@VConvexHullNoScaleV@Gu@physx@@@01@AEBU?$LocalConvex@VConvexHullNoScaleV@Gu@physx@@@01@AEBT__m128@@2_NPEIAE4PEIAT5@5AEAEAEAUGjkOutput@01@@Z 0000000180133850 f i GuPCMContactConvexConvex.obj
 0001:00133d60       ??$gjkPenetration@U?$RelativeConvex@VConvexHullNoScaleV@Gu@physx@@@Gu@physx@@U?$LocalConvex@VConvexHullV@Gu@physx@@@23@@Gu@physx@@YA?AW4GjkStatus@01@AEBU?$RelativeConvex@VConvexHullNoScaleV@Gu@physx@@@01@AEBU?$LocalConvex@VConvexHullV@Gu@physx@@@01@AEBT__m128@@2_NPEIAE4AEAEAEAUGjkOutput@01@@Z 0000000180134d60 f i GuPCMContactConvexConvex.obj
 0001:00133dd0       ??$gjkPenetration@U?$RelativeConvex@VConvexHullNoScaleV@Gu@physx@@@Gu@physx@@U?$LocalConvex@VConvexHullV@Gu@physx@@@23@@Gu@physx@@YA?AW4GjkStatus@01@AEBU?$RelativeConvex@VConvexHullNoScaleV@Gu@physx@@@01@AEBU?$LocalConvex@VConvexHullV@Gu@physx@@@01@AEBT__m128@@2_NPEIAE4PEIAT5@5AEAEAEAUGjkOutput@01@@Z 0000000180134dd0 f i GuPCMContactConvexConvex.obj
 0001:00135370       ??$gjkPenetration@U?$RelativeConvex@VConvexHullV@Gu@physx@@@Gu@physx@@U?$LocalConvex@VConvexHullNoScaleV@Gu@physx@@@23@@Gu@physx@@YA?AW4GjkStatus@01@AEBU?$RelativeConvex@VConvexHullV@Gu@physx@@@01@AEBU?$LocalConvex@VConvexHullNoScaleV@Gu@physx@@@01@AEBT__m128@@2_NPEIAE4AEAEAEAUGjkOutput@01@@Z 0000000180136370 f i GuPCMContactConvexConvex.obj
 0001:001353e0       ??$gjkPenetration@U?$RelativeConvex@VConvexHullV@Gu@physx@@@Gu@physx@@U?$LocalConvex@VConvexHullNoScaleV@Gu@physx@@@23@@Gu@physx@@YA?AW4GjkStatus@01@AEBU?$RelativeConvex@VConvexHullV@Gu@physx@@@01@AEBU?$LocalConvex@VConvexHullNoScaleV@Gu@physx@@@01@AEBT__m128@@2_NPEIAE4PEIAT5@5AEAEAEAUGjkOutput@01@@Z 00000001801363e0 f i GuPCMContactConvexConvex.obj
 0001:00137400       ?pcmContactConvexConvex@Gu@physx@@YA_NAEBVPxGeometry@2@0AEBUPxTransformPadded@2@1AEBUNarrowPhaseParams@12@AEAUCache@12@AEAVPxContactBuffer@2@PEAVPxRenderOutput@2@@Z 0000000180138400 f   GuPCMContactConvexConvex.obj
 0001:00138500       ?support@?$RelativeConvex@VConvexHullNoScaleV@Gu@physx@@@Gu@physx@@UEBA?AT__m128@@AEBT4@@Z 0000000180139500 f i GuPCMContactConvexConvex.obj
 0001:001385b0       ?support@?$RelativeConvex@VConvexHullNoScaleV@Gu@physx@@@Gu@physx@@UEBA?AT__m128@@AEBT4@AEAH@Z 00000001801395b0 f i GuPCMContactConvexConvex.obj
 0001:00138670       ?supportPoint@?$RelativeConvex@VConvexHullNoScaleV@Gu@physx@@@Gu@physx@@UEBA?AT__m128@@H@Z 0000000180139670 f i GuPCMContactConvexConvex.obj
 0001:00138700       ?PCMContactConvexHeightfield@Gu@physx@@YA_NAEBUPolygonalData@12@PEBVSupportLocal@12@AEBT__m128@@AEBVPxBounds3@2@AEBVPxHeightFieldGeometry@2@AEBV?$PxTransformT@M@2@5MAEAVPxContactBuffer@2@AEBVFastVertex2ShapeScaling@Cm@2@_NAEAVMultiplePersistentContactManifold@12@PEAVPxRenderOutput@2@@Z 0000000180139700 f   GuPCMContactConvexHeightField.obj
 0001:001395a0       ?pcmContactBoxHeightField@Gu@physx@@YA_NAEBVPxGeometry@2@0AEBUPxTransformPadded@2@1AEBUNarrowPhaseParams@12@AEAUCache@12@AEAVPxContactBuffer@2@PEAVPxRenderOutput@2@@Z 000000018013a5a0 f   GuPCMContactConvexHeightField.obj
 0001:00139840       ?pcmContactConvexHeightField@Gu@physx@@YA_NAEBVPxGeometry@2@0AEBUPxTransformPadded@2@1AEBUNarrowPhaseParams@12@AEAUCache@12@AEAVPxContactBuffer@2@PEAVPxRenderOutput@2@@Z 000000018013a840 f   GuPCMContactConvexHeightField.obj
 0001:0013a570       ?PCMContactConvexMesh@Gu@physx@@YA_NAEBUPolygonalData@12@PEBVSupportLocal@12@AEBT__m128@@AEBVPxBounds3@2@AEBVPxTriangleMeshGeometry@2@AEBV?$PxTransformT@M@2@5MAEAVPxContactBuffer@2@AEBVFastVertex2ShapeScaling@Cm@2@7_N8AEAVMultiplePersistentContactManifold@12@PEAVPxRenderOutput@2@@Z 000000018013b570 f   GuPCMContactConvexMesh.obj
 0001:0013b070       ?pcmContactBoxMesh@Gu@physx@@YA_NAEBVPxGeometry@2@0AEBUPxTransformPadded@2@1AEBUNarrowPhaseParams@12@AEAUCache@12@AEAVPxContactBuffer@2@PEAVPxRenderOutput@2@@Z 000000018013c070 f   GuPCMContactConvexMesh.obj
 0001:0013b3b0       ?pcmContactConvexMesh@Gu@physx@@YA_NAEBVPxGeometry@2@0AEBUPxTransformPadded@2@1AEBUNarrowPhaseParams@12@AEAUCache@12@AEAVPxContactBuffer@2@PEAVPxRenderOutput@2@@Z 000000018013c3b0 f   GuPCMContactConvexMesh.obj
 0001:0013c040       ?addGJKEPAContacts@Gu@physx@@YA_NPEBUGjkConvex@12@0AEBVPxMatTransformV@aos@2@W4GjkStatus@12@PEAVPersistentContact@12@T__m128@@4AEAUGjkOutput@12@AEAVPersistentContactManifold@12@@Z 000000018013d040 f   GuPCMContactGenBoxConvex.obj
 0001:0013c520       ?computeMTD@Gu@physx@@YA_NAEBUPolygonalData@12@0PEBVSupportLocal@12@1AEAT__m128@@2@Z 000000018013d520 f   GuPCMContactGenBoxConvex.obj
 0001:0013cb50       ?generateFullContactManifold@Gu@physx@@YA_NAEBUPolygonalData@12@0PEBVSupportLocal@12@1PEAVPersistentContact@12@AEAIAEBT__m128@@444MM_NPEAVPxRenderOutput@2@M@Z 000000018013db50 f   GuPCMContactGenBoxConvex.obj
 0001:0013eac0       ?computeMTD@Gu@physx@@YA_NAEBVCapsuleV@12@AEBUPolygonalData@12@PEBVSupportLocal@12@AEAT__m128@@3@Z 000000018013fac0 f   GuPCMContactGenSphereCapsule.obj
 0001:0013ebb0       ?generateCapsuleBoxFullContactManifold@Gu@physx@@YA_NAEBVCapsuleV@12@AEBUPolygonalData@12@PEBVSupportLocal@12@AEBVPxMatTransformV@aos@2@PEAVPersistentContact@12@AEAIAEBT__m128@@AEAT9@6M_NMPEAVPxRenderOutput@2@@Z 000000018013fbb0 f   GuPCMContactGenSphereCapsule.obj
 0001:0013ed50       ?generateFullContactManifold@Gu@physx@@YA_NAEBVCapsuleV@12@AEBUPolygonalData@12@PEBVSupportLocal@12@AEBVPxMatTransformV@aos@2@PEAVPersistentContact@12@AEAIAEBT__m128@@AEAT9@6M_NM@Z 000000018013fd50 f   GuPCMContactGenSphereCapsule.obj
 0001:0013ef40       ?generateSphereFullContactManifold@Gu@physx@@YA_NAEBVCapsuleV@12@AEBUPolygonalData@12@PEBVSupportLocal@12@PEAVPersistentContact@12@AEAIAEBT__m128@@AEAT7@_N@Z 000000018013ff40 f   GuPCMContactGenSphereCapsule.obj
 0001:00140410       ?pcmContactPlaneBox@Gu@physx@@YA_NAEBVPxGeometry@2@0AEBUPxTransformPadded@2@1AEBUNarrowPhaseParams@12@AEAUCache@12@AEAVPxContactBuffer@2@PEAVPxRenderOutput@2@@Z 0000000180141410 f   GuPCMContactPlaneBox.obj
 0001:00140fd0       ?pcmContactPlaneCapsule@Gu@physx@@YA_NAEBVPxGeometry@2@0AEBUPxTransformPadded@2@1AEBUNarrowPhaseParams@12@AEAUCache@12@AEAVPxContactBuffer@2@PEAVPxRenderOutput@2@@Z 0000000180141fd0 f   GuPCMContactPlaneCapsule.obj
 0001:00141750       ?pcmContactPlaneConvex@Gu@physx@@YA_NAEBVPxGeometry@2@0AEBUPxTransformPadded@2@1AEBUNarrowPhaseParams@12@AEAUCache@12@AEAVPxContactBuffer@2@PEAVPxRenderOutput@2@@Z 0000000180142750 f   GuPCMContactPlaneConvex.obj
 0001:001423d0       ?pcmContactSphereBox@Gu@physx@@YA_NAEBVPxGeometry@2@0AEBUPxTransformPadded@2@1AEBUNarrowPhaseParams@12@AEAUCache@12@AEAVPxContactBuffer@2@PEAVPxRenderOutput@2@@Z 00000001801433d0 f   GuPCMContactSphereBox.obj
 0001:00142830       ?pcmContactSphereCapsule@Gu@physx@@YA_NAEBVPxGeometry@2@0AEBUPxTransformPadded@2@1AEBUNarrowPhaseParams@12@AEAUCache@12@AEAVPxContactBuffer@2@PEAVPxRenderOutput@2@@Z 0000000180143830 f   GuPCMContactSphereCapsule.obj
 0001:00142ca0       ?pcmContactSphereConvex@Gu@physx@@YA_NAEBVPxGeometry@2@0AEBUPxTransformPadded@2@1AEBUNarrowPhaseParams@12@AEAUCache@12@AEAVPxContactBuffer@2@PEAVPxRenderOutput@2@@Z 0000000180143ca0 f   GuPCMContactSphereConvex.obj
 0001:00143970       ??1?$PxArray@USortedTriangle@Gu@physx@@V?$PxInlineAllocator@$0IAA@V?$PxReflectionAllocator@USortedTriangle@Gu@physx@@@physx@@@3@@physx@@QEAA@XZ 0000000180144970 f i GuPCMContactSphereHeightField.obj
 0001:00143a30       ?pcmContactSphereHeightField@Gu@physx@@YA_NAEBVPxGeometry@2@0AEBUPxTransformPadded@2@1AEBUNarrowPhaseParams@12@AEAUCache@12@AEAVPxContactBuffer@2@PEAVPxRenderOutput@2@@Z 0000000180144a30 f   GuPCMContactSphereHeightField.obj
 0001:00144aa0       ??$PxSort@USortedTriangle@Gu@physx@@U?$PxLess@USortedTriangle@Gu@physx@@@3@V?$PxReflectionAllocator@USortedTriangle@Gu@physx@@@3@@physx@@YAXPEAUSortedTriangle@Gu@0@IAEBU?$PxLess@USortedTriangle@Gu@physx@@@0@AEBV?$PxReflectionAllocator@USortedTriangle@Gu@physx@@@0@I@Z 0000000180145aa0 f i GuPCMContactSphereMesh.obj
 0001:00144fc0       ??$processTriangleCache@$0BA@VPCMSphereVsMeshContactGeneration@Gu@physx@@@PCMMeshContactGeneration@Gu@physx@@QEAA_NAEAU?$TriangleCache@$0BA@@12@@Z 0000000180145fc0 f i GuPCMContactSphereMesh.obj
 0001:00145490       ?addToPatch@PCMSphereVsMeshContactGeneration@Gu@physx@@QEAAXAEBT__m128@@0T4@I@Z 0000000180146490 f   GuPCMContactSphereMesh.obj
 0001:00145b50       ?allocate@?$PxArray@IV?$PxInlineAllocator@$0PAA@V?$PxReflectionAllocator@I@physx@@@physx@@@physx@@IEAAPEAII@Z 0000000180146b50 f i GuPCMContactSphereMesh.obj
 0001:00145c10       ?allocate@?$PxArray@USortedTriangle@Gu@physx@@V?$PxInlineAllocator@$0IAA@V?$PxReflectionAllocator@USortedTriangle@Gu@physx@@@physx@@@3@@physx@@IEAAPEAUSortedTriangle@Gu@2@I@Z 0000000180146c10 f i GuPCMContactSphereMesh.obj
 0001:00145cd0       ?generateLastContacts@PCMSphereVsMeshContactGeneration@Gu@physx@@QEAAXXZ 0000000180146cd0 f   GuPCMContactSphereMesh.obj
 0001:00146300       ?growAndPushBack@?$PxArray@USortedTriangle@Gu@physx@@V?$PxInlineAllocator@$0IAA@V?$PxReflectionAllocator@USortedTriangle@Gu@physx@@@physx@@@3@@physx@@IEAAAEAUSortedTriangle@Gu@2@AEBU342@@Z 0000000180147300 f i GuPCMContactSphereMesh.obj
 0001:00146410       ?pcmContactSphereMesh@Gu@physx@@YA_NAEBVPxGeometry@2@0AEBUPxTransformPadded@2@1AEBUNarrowPhaseParams@12@AEAUCache@12@AEAVPxContactBuffer@2@PEAVPxRenderOutput@2@@Z 0000000180147410 f   GuPCMContactSphereMesh.obj
 0001:00147980       ?processTriangle@PCMSphereVsMeshContactGeneration@Gu@physx@@QEAA_NPEBV?$PxVec3T@M@3@IEPEBI@Z 0000000180148980 f   GuPCMContactSphereMesh.obj
 0001:00147d70       ?recreate@?$PxArray@IV?$PxInlineAllocator@$0PAA@V?$PxReflectionAllocator@I@physx@@@physx@@@physx@@IEAAXI@Z 0000000180148d70 f i GuPCMContactSphereMesh.obj
 0001:00147e30       ?pcmContactSpherePlane@Gu@physx@@YA_NAEBVPxGeometry@2@0AEBUPxTransformPadded@2@1AEBUNarrowPhaseParams@12@AEAUCache@12@AEAVPxContactBuffer@2@PEAVPxRenderOutput@2@@Z 0000000180148e30 f   GuPCMContactSpherePlane.obj
 0001:00147fb0       ?pcmContactSphereSphere@Gu@physx@@YA_NAEBVPxGeometry@2@0AEBUPxTransformPadded@2@1AEBUNarrowPhaseParams@12@AEAUCache@12@AEAVPxContactBuffer@2@PEAVPxRenderOutput@2@@Z 0000000180148fb0 f   GuPCMContactSphereSphere.obj
 0001:00148880       ?pcmContactGeometryCustomGeometry@Gu@physx@@YA_NAEBVPxGeometry@2@0AEBUPxTransformPadded@2@1AEBUNarrowPhaseParams@12@AEAUCache@12@AEAVPxContactBuffer@2@PEAVPxRenderOutput@2@@Z 0000000180149880 f   GuPCMContactCustomGeometry.obj
 0001:00148930       ?getPCMConvexData@Gu@physx@@YAXAEBVConvexHullV@12@_NAEAUPolygonalData@12@@Z 0000000180149930 f   GuPCMShapeConvex.obj
 0001:00148970       ?getPCMConvexData@Gu@physx@@YA_NAEBVPxConvexMeshGeometry@2@AEAVFastVertex2ShapeScaling@Cm@2@AEAVPxBounds3@2@AEAUPolygonalData@12@@Z 0000000180149970 f   GuPCMShapeConvex.obj
 0001:00148ed0       ?getPolygonalData@PCMPolygonalBox@Gu@physx@@QEBAXPEIAUPolygonalData@23@@Z 0000000180149ed0 f   GuPCMShapeConvex.obj
 0001:00148f50       ?generatePolyDataContactManifold@PCMConvexVsMeshContactGeneration@Gu@physx@@QEAA_NAEBVTriangleV@23@IIEPEAVMeshPersistentContact@23@AEAIAEBT__m128@@AEAT6@@Z 0000000180149f50 f   GuPCMTriangleContactGen.obj
 0001:00149070       ?generateTriangleFullContactManifold@PCMConvexVsMeshContactGeneration@Gu@physx@@QEAA_NAEBVTriangleV@23@IPEBIEAEBUPolygonalData@23@PEBV?$SupportLocalImpl@VTriangleV@Gu@physx@@@23@PEBVSupportLocal@23@PEAVMeshPersistentContact@23@AEAIAEBT__m128@@AEAT9@@Z 000000018014a070 f   GuPCMTriangleContactGen.obj
 0001:001495a0       ?generateTriangleFullContactManifold@PCMConvexVsMeshContactGeneration@Gu@physx@@SA_NAEBVTriangleV@23@IEAEBUPolygonalData@23@PEBV?$SupportLocalImpl@VTriangleV@Gu@physx@@@23@PEBVSupportLocal@23@PEAVMeshPersistentContact@23@AEAIAEBT__m128@@AEAT9@PEAVPxRenderOutput@3@@Z 000000018014a5a0 f   GuPCMTriangleContactGen.obj
 0001:0014b630       ?addBatchManifoldContacts2@PersistentContactManifold@Gu@physx@@QEAAXPEBVPersistentContact@23@I@Z 000000018014c630 f   GuPersistentContactManifold.obj
 0001:0014b6a0       ?addBatchManifoldContacts@PersistentContactManifold@Gu@physx@@QEAAXPEBVPersistentContact@23@IM@Z 000000018014c6a0 f   GuPersistentContactManifold.obj
 0001:0014b720       ?addBatchManifoldContactsCluster@PersistentContactManifold@Gu@physx@@QEAAXPEBVPersistentContact@23@I@Z 000000018014c720 f   GuPersistentContactManifold.obj
 0001:0014b9a0       ?addManifoldContactPoints@MultiplePersistentContactManifold@Gu@physx@@QEAAXPEAVMeshPersistentContact@23@IPEAPEAUPCMContactPatch@23@IAEBT__m128@@2E@Z 000000018014c9a0 f   GuPersistentContactManifold.obj
 0001:0014bd90       ?addManifoldContactsToContactBuffer@MultiplePersistentContactManifold@Gu@physx@@QEAA_NAEAVPxContactBuffer@3@AEBVPxTransformV@aos@3@1AEBT__m128@@@Z 000000018014cd90 f   GuPersistentContactManifold.obj
 0001:0014c050       ?addManifoldContactsToContactBuffer@MultiplePersistentContactManifold@Gu@physx@@QEAA_NAEAVPxContactBuffer@3@AEBVPxTransformV@aos@3@@Z 000000018014d050 f   GuPersistentContactManifold.obj
 0001:0014c2d0       ?addManifoldContactsToContactBuffer@PersistentContactManifold@Gu@physx@@QEAAXAEAVPxContactBuffer@3@AEBT__m128@@1AEBVPxTransformV@aos@3@11@Z 000000018014d2d0 f   GuPersistentContactManifold.obj
 0001:0014c460       ?addManifoldContactsToContactBuffer@PersistentContactManifold@Gu@physx@@QEAAXAEAVPxContactBuffer@3@AEBT__m128@@AEBVPxMatTransformV@aos@3@@Z 000000018014d460 f   GuPersistentContactManifold.obj
 0001:0014c510       ?addManifoldContactsToContactBuffer@PersistentContactManifold@Gu@physx@@QEAAXAEAVPxContactBuffer@3@AEBT__m128@@AEBVPxTransformV@aos@3@1@Z 000000018014d510 f   GuPersistentContactManifold.obj
 0001:0014c670       ?addManifoldPoint2@PersistentContactManifold@Gu@physx@@QEAAIAEBT__m128@@000@Z 000000018014d670 f   GuPersistentContactManifold.obj
 0001:0014c7a0       ?addManifoldPoint@Gu@physx@@YAXPEAVPersistentContact@12@AEAVPersistentContactManifold@12@AEAUGjkOutput@12@AEBVPxMatTransformV@aos@2@T__m128@@@Z 000000018014d7a0 f   GuPersistentContactManifold.obj
 0001:0014c950       ?addManifoldPoint@PersistentContactManifold@Gu@physx@@QEAAIAEBT__m128@@000@Z 000000018014d950 f   GuPersistentContactManifold.obj
 0001:0014cd90       ?drawLine@MultiplePersistentContactManifold@Gu@physx@@SAXAEAVPxRenderOutput@3@AEBT__m128@@1I@Z 000000018014dd90 f   GuPersistentContactManifold.obj
 0001:0014ce40       ?drawLine@MultiplePersistentContactManifold@Gu@physx@@SAXAEAVPxRenderOutput@3@V?$PxVec3T@M@3@1I@Z 000000018014de40 f   GuPersistentContactManifold.obj
 0001:0014ceb0       ?drawManifold@MultiplePersistentContactManifold@Gu@physx@@QEBAXAEAVPxRenderOutput@3@AEBVPxTransformV@aos@3@1@Z 000000018014deb0 f   GuPersistentContactManifold.obj
 0001:0014cf30       ?drawManifold@SinglePersistentContactManifold@Gu@physx@@QEBAXAEAVPxRenderOutput@3@AEBVPxTransformV@aos@3@1@Z 000000018014df30 f   GuPersistentContactManifold.obj
 0001:0014d560       ?drawPoint@MultiplePersistentContactManifold@Gu@physx@@SAXAEAVPxRenderOutput@3@AEBT__m128@@MI@Z 000000018014e560 f   GuPersistentContactManifold.obj
 0001:0014d770       ?drawPolygon@MultiplePersistentContactManifold@Gu@physx@@SAXAEAVPxRenderOutput@3@AEBVPxTransformV@aos@3@PEAT__m128@@II@Z 000000018014e770 f   GuPersistentContactManifold.obj
 0001:0014d9f0       ?findRotationMatrixFromZAxis@Gu@physx@@YA?AUMat33V@aos@2@AEBT__m128@@@Z 000000018014e9f0 f   GuPersistentContactManifold.obj
 0001:0014dc70       ?fromBuffer@MultiplePersistentContactManifold@Gu@physx@@QEAAXPEIAE@Z 000000018014ec70 f   GuPersistentContactManifold.obj
 0001:0014ddc0       ?reduceBatchContacts2@PersistentContactManifold@Gu@physx@@QEAAXPEBVPersistentContact@23@I@Z 000000018014edc0 f   GuPersistentContactManifold.obj
 0001:0014dfc0       ?reduceBatchContacts@PersistentContactManifold@Gu@physx@@QEAAXPEBVPersistentContact@23@IM@Z 000000018014efc0 f   GuPersistentContactManifold.obj
 0001:0014e480       ?reduceBatchContactsCapsule@SinglePersistentContactManifold@Gu@physx@@QEAA?AT__m128@@PEBVMeshPersistentContact@23@IAEAUPCMContactPatch@23@@Z 000000018014f480 f   GuPersistentContactManifold.obj
 0001:0014e710       ?reduceBatchContactsCluster@PersistentContactManifold@Gu@physx@@QEAAXPEBVPersistentContact@23@I@Z 000000018014f710 f   GuPersistentContactManifold.obj
 0001:0014eba0       ?reduceBatchContactsConvex@SinglePersistentContactManifold@Gu@physx@@QEAA?AT__m128@@PEBVMeshPersistentContact@23@IAEAUPCMContactPatch@23@@Z 000000018014fba0 f   GuPersistentContactManifold.obj
 0001:0014f190       ?reduceContacts@SinglePersistentContactManifold@Gu@physx@@SAIPEAVMeshPersistentContact@23@I@Z 0000000180150190 f   GuPersistentContactManifold.obj
 0001:0014f710       ?reduceContactsForPCM@PersistentContactManifold@Gu@physx@@QEAAIAEBT__m128@@00@Z 0000000180150710 f   GuPersistentContactManifold.obj
 0001:0014fcb0       ?refreshContactPoints@SinglePersistentContactManifold@Gu@physx@@QEAA?AT__m128@@AEBVPxMatTransformV@aos@3@AEBT4@1@Z 0000000180150cb0 f   GuPersistentContactManifold.obj
 0001:0014fe00       ?replaceManifoldPoint@PersistentContactManifold@Gu@physx@@QEAA_NAEBT__m128@@000@Z 0000000180150e00 f   GuPersistentContactManifold.obj
 0001:0014fec0       ?toBuffer@MultiplePersistentContactManifold@Gu@physx@@QEBAXPEIAE@Z 0000000180150ec0 f   GuPersistentContactManifold.obj
 0001:0014ffa0       ?contains@Gu@physx@@YA_NPEAT__m128@@IAEBT3@11@Z 0000000180150fa0 f   GuPCMContactGenUtil.obj
 0001:00150160       ?getPolygonIndex@Gu@physx@@YAHAEBUPolygonalData@12@PEBVSupportLocal@12@AEBT__m128@@AEAH@Z 0000000180151160 f   GuPCMContactGenUtil.obj
 0001:00150400       ?getWitnessPolygonIndex@Gu@physx@@YAIAEBUPolygonalData@12@PEBVSupportLocal@12@AEBT__m128@@2M@Z 0000000180151400 f   GuPCMContactGenUtil.obj
 0001:00150950       ?sweepBoxBox@Gu@physx@@YA_NAEBVBox@12@0AEBV?$PxVec3T@M@2@MV?$PxFlags@W4Enum@PxHitFlag@physx@@G@2@AEAUPxGeomSweepHit@2@@Z 0000000180151950 f   GuSweepBoxBox.obj
 0001:00151f90       ?sweepBoxSphere@Gu@physx@@YA_NAEBVBox@12@MAEBV?$PxVec3T@M@2@1MAEAMAEAV42@V?$PxFlags@W4Enum@PxHitFlag@physx@@G@2@@Z 0000000180152f90 f   GuSweepBoxSphere.obj
 0001:00152c50       ?sweepBoxTriangle@Gu@physx@@YA_NAEBVPxTriangle@2@AEBVPxBounds3@2@AEBV?$PxVec3T@M@2@2AEAV52@3AEAM_N@Z 0000000180153c50 f   GuSweepBoxTriangle_FeatureBased.obj
 0001:00154370       ?triBoxSweepTestBoxSpace@Gu@physx@@YAHAEBVPxTriangle@2@AEBV?$PxVec3T@M@2@11MAEAM_N@Z 0000000180155370 f   GuSweepBoxTriangle_SAT.obj
 0001:00155c70       ?sweepCapsuleBox@Gu@physx@@YA_NAEBVCapsule@12@AEBV?$PxTransformT@M@2@AEBV?$PxVec3T@M@2@2MAEAV52@AEAM3V?$PxFlags@W4Enum@PxHitFlag@physx@@G@2@@Z 0000000180156c70 f   GuSweepCapsuleBox.obj
 0001:00155fd0       ?distancePointSegmentSquared@Gu@physx@@YAMAEBVSegment@12@AEBV?$PxVec3T@M@2@PEAM@Z 0000000180156fd0 f i GuSweepCapsuleCapsule.obj
 0001:001560e0       ?edgeEdgeDist@@YAXAEAV?$PxVec3T@M@physx@@0AEBV12@111@Z 00000001801570e0 f   GuSweepCapsuleCapsule.obj
 0001:00156350       ?sweepCapsuleCapsule@Gu@physx@@YA_NAEBVCapsule@12@0AEBV?$PxVec3T@M@2@MAEAMAEAV42@3IAEAG@Z 0000000180157350 f   GuSweepCapsuleCapsule.obj
 0001:00157160       ?sweepCapsuleTriangles_Precise@Gu@physx@@YA_NIPEIBVPxTriangle@2@AEBVCapsule@12@AEBV?$PxVec3T@M@2@MPEIBIAEAUPxGeomSweepHit@2@AEAV52@V?$PxFlags@W4Enum@PxHitFlag@physx@@G@2@_NPEBVBoxPadded@12@@Z 0000000180158160 f   GuSweepCapsuleTriangle.obj
 0001:00159370       ?sweepSphereCapsule@Gu@physx@@YA_NAEBVSphere@12@AEBVCapsule@12@AEBV?$PxVec3T@M@2@MAEAMAEAV52@4V?$PxFlags@W4Enum@PxHitFlag@physx@@G@2@@Z 000000018015a370 f   GuSweepSphereCapsule.obj
 0001:00159a10       ?sweepSphereSphere@Gu@physx@@YA_NAEBV?$PxVec3T@M@2@M0M0AEAMAEAV32@@Z 000000018015aa10 f   GuSweepSphereSphere.obj
 0001:00159c80       ?sweepSphereTriangles@Gu@physx@@YA_NIPEIBVPxTriangle@2@AEBV?$PxVec3T@M@2@M1MPEIBIAEAUPxGeomSweepHit@2@AEAV42@_N555@Z 000000018015ac80 f   GuSweepSphereTriangle.obj
 0001:0015a550       ?sweepSphereVSQuad@Gu@physx@@YA_NPEIBV?$PxVec3T@M@2@AEBV32@1M1AEAM@Z 000000018015b550 f   GuSweepSphereTriangle.obj
 0001:0015b530       ?sweepSphereVSTri@Gu@physx@@YA_NPEIBV?$PxVec3T@M@2@AEBV32@1M1AEAMAEA_N_N@Z 000000018015c530 f   GuSweepSphereTriangle.obj
 0001:0015c250       ??$gjk@U?$LocalConvex@VTriangleV@Gu@physx@@@Gu@physx@@U?$LocalConvex@VBoxV@Gu@physx@@@23@@Gu@physx@@YA?AW4GjkStatus@01@AEBU?$LocalConvex@VTriangleV@Gu@physx@@@01@AEBU?$LocalConvex@VBoxV@Gu@physx@@@01@AEBT__m128@@2AEAT5@333@Z 000000018015d250 f i GuSweepTriangleUtils.obj
 0001:0015cf30       ?computeBoxTriImpactData@Gu@physx@@YAXAEAV?$PxVec3T@M@2@0AEBV32@1AEBVPxTriangle@2@M@Z 000000018015df30 f   GuSweepTriangleUtils.obj
 0001:0015d1c0       ?computeEdgeEdgeNormal@Gu@physx@@YAXAEAV?$PxVec3T@M@2@AEBV32@1111M@Z 000000018015e1c0 f   GuSweepTriangleUtils.obj
 0001:0015d470       ?computeSphereTriImpactData@Gu@physx@@YAXAEAV?$PxVec3T@M@2@0AEBV32@1MAEBVPxTriangle@2@@Z 000000018015e470 f   GuSweepTriangleUtils.obj
 0001:0015d950       ??0ShapeData@Gu@physx@@QEAA@AEBVPxGeometry@2@AEBV?$PxTransformT@M@2@M@Z 000000018015e950 f   GuBounds.obj
 0001:0015dec0       ?computeBounds@Gu@physx@@YAXAEAVPxBounds3@2@AEBVPxGeometry@2@AEBV?$PxTransformT@M@2@MM@Z 000000018015eec0 f   GuBounds.obj
 0001:0015ea40       ?computeBoundsAroundVertices@Gu@physx@@YAXAEAVPxBounds3@2@IPEIBV?$PxVec3T@M@2@@Z 000000018015fa40 f   GuBounds.obj
 0001:0015eaf0       ?computeGlobalBox@Gu@physx@@YAXAEAVPxBounds3@2@IPEIBV32@PEIBI@Z 000000018015faf0 f   GuBounds.obj
 0001:0015eb80       ?computeLocalBoundsAndGeomEpsilon@Gu@physx@@YAXPEBV?$PxVec3T@M@2@IAEAVPxBounds3@2@AEAM@Z 000000018015fb80 f   GuBounds.obj
 0001:0015fca0       ?computeTightBounds@Gu@physx@@YAXAEAVPxBounds3@2@IPEIBV?$PxVec3T@M@2@AEBV?$PxTransformT@M@2@AEBVPxMeshScale@2@MM@Z 0000000180160ca0 f   GuBounds.obj
 0001:00160060       ??0AABBTree@Gu@physx@@QEAA@XZ 0000000180161060 f   GuAABBTree.obj
 0001:00160090       ??0BVHPartialRefitData@Gu@physx@@QEAA@XZ 0000000180161090 f   GuAABBTree.obj
 0001:001600c0       ??0NodeAllocator@Gu@physx@@QEAA@XZ 00000001801610c0 f   GuAABBTree.obj
 0001:001600e0       ??1AABBTree@Gu@physx@@QEAA@XZ 00000001801610e0 f   GuAABBTree.obj
 0001:00160100       ??1BVHPartialRefitData@Gu@physx@@QEAA@XZ 0000000180161100 f   GuAABBTree.obj
 0001:001601a0       ??1NodeAllocator@Gu@physx@@QEAA@XZ 00000001801611a0 f   GuAABBTree.obj
 0001:001601f0       ?_buildHierarchy@AABBTreeBuildNode@Gu@physx@@QEAAXAEBVAABBTreeBuildParams@23@AEAUBuildStats@23@AEAVNodeAllocator@23@QEAI@Z 00000001801611f0 f   GuAABBTree.obj
 0001:00160280       ?_buildHierarchySAH@AABBTreeBuildNode@Gu@physx@@QEAAXAEBVAABBTreeBuildParams@23@AEAUSAH_Buffers@23@AEAUBuildStats@23@AEAVNodeAllocator@23@QEAI@Z 0000000180161280 f   GuAABBTree.obj
 0001:00160330       ?addRuntimeChilds@AABBTree@Gu@physx@@AEAAXAEAIAEBVAABBTreeMergeData@23@@Z 0000000180161330 f   GuAABBTree.obj
 0001:00160430       ?build@AABBTree@Gu@physx@@QEAA_NAEBVAABBTreeBuildParams@23@AEAVNodeAllocator@23@@Z 0000000180161430 f   GuAABBTree.obj
 0001:00160650       ?buildAABBTree@Gu@physx@@YAPEAIAEBVAABBTreeBuildParams@12@AEAVNodeAllocator@12@AEAUBuildStats@12@@Z 0000000180161650 f   GuAABBTree.obj
 0001:001606f0       ?buildAABBTree@Gu@physx@@YAXIAEBVAABBTreeBounds@12@AEAV?$PxArray@UBVHNode@Gu@physx@@V?$PxReflectionAllocator@UBVHNode@Gu@physx@@@3@@2@@Z 00000001801616f0 f   GuAABBTree.obj
 0001:00160ac0       ?buildEnd@AABBTree@Gu@physx@@AEAAXAEBVAABBTreeBuildParams@23@AEAVNodeAllocator@23@AEBUBuildStats@23@@Z 0000000180161ac0 f   GuAABBTree.obj
 0001:00160ce0       ?createUpdateMap@BVHPartialRefitData@Gu@physx@@QEAAXI@Z 0000000180161ce0 f   GuAABBTree.obj
 0001:00160e00       ?flattenTree@Gu@physx@@YAXAEBVNodeAllocator@12@PEAUBVHNode@12@PEBI@Z 0000000180161e00 f   GuAABBTree.obj
 0001:00160ff0       ?fullRefit@BVHCoreData@Gu@physx@@QEAAXPEBVPxBounds3@3@@Z 0000000180161ff0 f   GuAABBTree.obj
 0001:001611b0       ?getBiNode@NodeAllocator@Gu@physx@@QEAAPEAVAABBTreeBuildNode@23@XZ 00000001801621b0 f   GuAABBTree.obj
 0001:001612e0       ?getParentIndices@BVHPartialRefitData@Gu@physx@@IEAAPEAIXZ 00000001801622e0 f   GuAABBTree.obj
 0001:00161370       ?growAndPushBack@?$PxArray@PEAVAABBTreeBuildNode@Gu@physx@@V?$PxReflectionAllocator@PEAVAABBTreeBuildNode@Gu@physx@@@3@@physx@@IEAAAEAPEAVAABBTreeBuildNode@Gu@2@AEBQEAV342@@Z 0000000180162370 f i GuAABBTree.obj
 0001:00161490       ?growAndPushBack@?$PxArray@USlab@NodeAllocator@Gu@physx@@V?$PxReflectionAllocator@USlab@NodeAllocator@Gu@physx@@@4@@physx@@IEAAAEAUSlab@NodeAllocator@Gu@2@AEBU3452@@Z 0000000180162490 f i GuAABBTree.obj
 0001:00161550       ?init@AABBTreeBounds@Gu@physx@@QEAAXIPEBVPxBounds3@3@@Z 0000000180162550 f   GuAABBTree.obj
 0001:00161610       ?init@NodeAllocator@Gu@physx@@QEAAXII@Z 0000000180162610 f   GuAABBTree.obj
 0001:00161950       ?initTree@AABBTree@Gu@physx@@QEAAXAEBVAABBTreeMergeData@23@@Z 0000000180162950 f   GuAABBTree.obj
 0001:00161a80       ?markNodeForRefit@BVHPartialRefitData@Gu@physx@@QEAAXI@Z 0000000180162a80 f   GuAABBTree.obj
 0001:00161b90       ?mergeRuntimeLeaf@AABBTree@Gu@physx@@AEAAXAEAUBVHNode@23@AEBVAABBTreeMergeData@23@I@Z 0000000180162b90 f   GuAABBTree.obj
 0001:00161de0       ?mergeRuntimeNode@AABBTree@Gu@physx@@AEAAXAEAUBVHNode@23@AEBVAABBTreeMergeData@23@I@Z 0000000180162de0 f   GuAABBTree.obj
 0001:00162100       ?mergeTree@AABBTree@Gu@physx@@QEAAXAEBVAABBTreeMergeData@23@@Z 0000000180163100 f   GuAABBTree.obj
 0001:00162390       ?progressiveBuild@AABBTree@Gu@physx@@QEAAIAEBVAABBTreeBuildParams@23@AEAVNodeAllocator@23@AEAUBuildStats@23@II@Z 0000000180163390 f   GuAABBTree.obj
 0001:00162640       ?refitMarkedNodes@BVHPartialRefitData@Gu@physx@@QEAAXPEBVPxBounds3@3@@Z 0000000180163640 f   GuAABBTree.obj
 0001:001627b0       ?release@AABBTree@Gu@physx@@QEAAX_N@Z 00000001801637b0 f   GuAABBTree.obj
 0001:001628a0       ?release@AABBTreeBounds@Gu@physx@@QEAAXXZ 00000001801638a0 f   GuAABBTree.obj
 0001:001628f0       ?release@NodeAllocator@Gu@physx@@QEAAXXZ 00000001801638f0 f   GuAABBTree.obj
 0001:001629a0       ?releasePartialRefitData@BVHPartialRefitData@Gu@physx@@QEAAX_N@Z 00000001801639a0 f   GuAABBTree.obj
 0001:00162a30       ?reshuffle@Gu@physx@@YAIIQEIAIPEIBV?$PxVec3T@M@2@MI@Z 0000000180163a30 f   GuAABBTree.obj
 0001:00162b70       ?resize@?$PxArray@USlab@NodeAllocator@Gu@physx@@V?$PxReflectionAllocator@USlab@NodeAllocator@Gu@physx@@@4@@physx@@QEAAXIAEBUSlab@NodeAllocator@Gu@2@@Z 0000000180163b70 f i GuAABBTree.obj
 0001:00162bf0       ?resize@AABBTreeBounds@Gu@physx@@QEAAXII@Z 0000000180163bf0 f   GuAABBTree.obj
 0001:00162c90       ?shiftIndices@AABBTree@Gu@physx@@QEAAXI@Z 0000000180163c90 f   GuAABBTree.obj
 0001:00162cb0       ?shiftOrigin@AABBTree@Gu@physx@@QEAAXAEBV?$PxVec3T@M@3@@Z 0000000180163cb0 f   GuAABBTree.obj
 0001:00163020       ?subdivide@AABBTreeBuildNode@Gu@physx@@QEAAXAEBVAABBTreeBuildParams@23@AEAUBuildStats@23@AEAVNodeAllocator@23@QEAI@Z 0000000180164020 f   GuAABBTree.obj
 0001:00163220       ?subdivideSAH@AABBTreeBuildNode@Gu@physx@@QEAAXAEBVAABBTreeBuildParams@23@AEAUSAH_Buffers@23@AEAUBuildStats@23@AEAVNodeAllocator@23@QEAI@Z 0000000180164220 f   GuAABBTree.obj
 0001:00163310       ?traverseRuntimeNode@AABBTree@Gu@physx@@AEAAXAEAUBVHNode@23@AEBVAABBTreeMergeData@23@I@Z 0000000180164310 f   GuAABBTree.obj
 0001:00163450       ?initMap@AABBTreeUpdateMap@Gu@physx@@QEAAXIAEBVAABBTree@23@@Z 0000000180164450 f   GuAABBTreeUpdateMap.obj
 0001:001635e0       ?invalidate@AABBTreeUpdateMap@Gu@physx@@QEAAXIIAEAVAABBTree@23@@Z 00000001801645e0 f   GuAABBTreeUpdateMap.obj
 0001:00163880       ?visualizeTree@@YAXAEAVPxRenderOutput@physx@@IPEBVAABBTree@Gu@2@@Z 0000000180164880 f   GuSqInternal.obj
 0001:001638f0       ?visualizeTree@@YAXAEAVPxRenderOutput@physx@@IPEBVBVH@Gu@2@@Z 00000001801648f0 f   GuSqInternal.obj
 0001:00163960       ?visualizeTree@@YAXAEAVPxRenderOutput@physx@@IPEBVIncrementalAABBTree@Gu@2@PEAVDebugVizCallback@2@@Z 0000000180164960 f   GuSqInternal.obj
 0001:001639e0       ??$PxSort@PEAXU?$PxLess@PEAX@physx@@V?$PxReflectionAllocator@UAABBTreeIndices@Gu@physx@@@2@@physx@@YAXPEAPEAXIAEBU?$PxLess@PEAX@0@AEBV?$PxReflectionAllocator@UAABBTreeIndices@Gu@physx@@@0@I@Z 00000001801649e0 f i GuIncrementalAABBTree.obj
 0001:00163e40       ??$PxSort@PEAXU?$PxLess@PEAX@physx@@V?$PxReflectionAllocator@UIncrementalAABBTreeNodePair@Gu@physx@@@2@@physx@@YAXPEAPEAXIAEBU?$PxLess@PEAX@0@AEBV?$PxReflectionAllocator@UIncrementalAABBTreeNodePair@Gu@physx@@@0@I@Z 0000000180164e40 f i GuIncrementalAABBTree.obj
 0001:001642a0       ??0IncrementalAABBTree@Gu@physx@@QEAA@XZ 00000001801652a0 f   GuIncrementalAABBTree.obj
 0001:00164320       ??1?$PxPoolBase@UAABBTreeIndices@Gu@physx@@V?$PxReflectionAllocator@UAABBTreeIndices@Gu@physx@@@3@@physx@@QEAA@XZ 0000000180165320 f i GuIncrementalAABBTree.obj
 0001:00164480       ??1?$PxPoolBase@UIncrementalAABBTreeNodePair@Gu@physx@@V?$PxReflectionAllocator@UIncrementalAABBTreeNodePair@Gu@physx@@@3@@physx@@QEAA@XZ 0000000180165480 f i GuIncrementalAABBTree.obj
 0001:001645e0       ??1IncrementalAABBTree@Gu@physx@@QEAA@XZ 00000001801655e0 f   GuIncrementalAABBTree.obj
 0001:00164620       ?allocate@?$PxArray@PEAXV?$PxReflectionAllocator@UAABBTreeIndices@Gu@physx@@@physx@@@physx@@IEAAPEAPEAXI@Z 0000000180165620 f i GuIncrementalAABBTree.obj
 0001:001646b0       ?allocate@?$PxArray@PEAXV?$PxReflectionAllocator@UIncrementalAABBTreeNodePair@Gu@physx@@@physx@@@physx@@IEAAPEAPEAXI@Z 00000001801656b0 f i GuIncrementalAABBTree.obj
 0001:00164740       ?allocate@?$PxPoolBase@UAABBTreeIndices@Gu@physx@@V?$PxReflectionAllocator@UAABBTreeIndices@Gu@physx@@@3@@physx@@QEAAPEAUAABBTreeIndices@Gu@2@XZ 0000000180165740 f i GuIncrementalAABBTree.obj
 0001:00164830       ?allocate@?$PxPoolBase@UIncrementalAABBTreeNodePair@Gu@physx@@V?$PxReflectionAllocator@UIncrementalAABBTreeNodePair@Gu@physx@@@3@@physx@@QEAAPEAUIncrementalAABBTreeNodePair@Gu@2@XZ 0000000180165830 f i GuIncrementalAABBTree.obj
 0001:00164920       ?build@IncrementalAABBTree@Gu@physx@@QEAA_NAEBVAABBTreeBuildParams@23@AEAV?$PxArray@PEAVIncrementalAABBTreeNode@Gu@physx@@V?$PxReflectionAllocator@PEAVIncrementalAABBTreeNode@Gu@physx@@@3@@3@@Z 0000000180165920 f   GuIncrementalAABBTree.obj
 0001:00164b00       ?clone@IncrementalAABBTree@Gu@physx@@AEAAXAEAV?$PxArray@PEAVIncrementalAABBTreeNode@Gu@physx@@V?$PxReflectionAllocator@PEAVIncrementalAABBTreeNode@Gu@physx@@@3@@3@PEBIPEAPEAVIncrementalAABBTreeNode@23@@Z 0000000180165b00 f   GuIncrementalAABBTree.obj
 0001:00164ff0       ?copy@IncrementalAABBTree@Gu@physx@@QEAAXAEBVBVH@23@AEAV?$PxArray@PEAVIncrementalAABBTreeNode@Gu@physx@@V?$PxReflectionAllocator@PEAVIncrementalAABBTreeNode@Gu@physx@@@3@@3@@Z 0000000180165ff0 f   GuIncrementalAABBTree.obj
 0001:001650a0       ?copyNode@IncrementalAABBTree@Gu@physx@@AEAAXAEAVIncrementalAABBTreeNode@23@AEBUBVHNode@23@PEBU523@PEAV423@PEBIAEAV?$PxArray@PEAVIncrementalAABBTreeNode@Gu@physx@@V?$PxReflectionAllocator@PEAVIncrementalAABBTreeNode@Gu@physx@@@3@@3@@Z 00000001801660a0 f   GuIncrementalAABBTree.obj
 0001:00165260       ?fixupTreeIndices@IncrementalAABBTree@Gu@physx@@QEAAXPEAVIncrementalAABBTreeNode@23@II@Z 0000000180166260 f   GuIncrementalAABBTree.obj
 0001:00165290       ?getTreeLeafDepth@IncrementalAABBTree@Gu@physx@@QEAAIPEAVIncrementalAABBTreeNode@23@@Z 0000000180166290 f   GuIncrementalAABBTree.obj
 0001:001652b0       ?growAndPushBack@?$PxArray@PEAVIncrementalAABBTreeNode@Gu@physx@@V?$PxReflectionAllocator@PEAVIncrementalAABBTreeNode@Gu@physx@@@3@@physx@@IEAAAEAPEAVIncrementalAABBTreeNode@Gu@2@AEBQEAV342@@Z 00000001801662b0 f i GuIncrementalAABBTree.obj
 0001:001653d0       ?growAndPushBack@?$PxArray@PEAXV?$PxReflectionAllocator@UAABBTreeIndices@Gu@physx@@@physx@@@physx@@IEAAAEAPEAXAEBQEAX@Z 00000001801663d0 f i GuIncrementalAABBTree.obj
 0001:00165490       ?growAndPushBack@?$PxArray@PEAXV?$PxReflectionAllocator@UIncrementalAABBTreeNodePair@Gu@physx@@@physx@@@physx@@IEAAAEAPEAXAEBQEAX@Z 0000000180166490 f i GuIncrementalAABBTree.obj
 0001:00165550       ?hierarchyCheck@IncrementalAABBTree@Gu@physx@@QEAAXIPEBVPxBounds3@3@@Z 0000000180166550 f   GuIncrementalAABBTree.obj
 0001:001656a0       ?hierarchyCheck@IncrementalAABBTree@Gu@physx@@QEAAXPEBVPxBounds3@3@@Z 00000001801666a0 f   GuIncrementalAABBTree.obj
 0001:00165810       ?insert@IncrementalAABBTree@Gu@physx@@QEAAPEAVIncrementalAABBTreeNode@23@IPEBVPxBounds3@3@AEAV?$PxArray@PEAVIncrementalAABBTreeNode@Gu@physx@@V?$PxReflectionAllocator@PEAVIncrementalAABBTreeNode@Gu@physx@@@3@@3@@Z 0000000180166810 f   GuIncrementalAABBTree.obj
 0001:00165ef0       ?recreate@?$PxArray@PEAXV?$PxReflectionAllocator@UAABBTreeIndices@Gu@physx@@@physx@@@physx@@IEAAXI@Z 0000000180166ef0 f i GuIncrementalAABBTree.obj
 0001:00165f90       ?recreate@?$PxArray@PEAXV?$PxReflectionAllocator@UIncrementalAABBTreeNodePair@Gu@physx@@@physx@@@physx@@IEAAXI@Z 0000000180166f90 f i GuIncrementalAABBTree.obj
 0001:00166030       ?release@IncrementalAABBTree@Gu@physx@@QEAAXXZ 0000000180167030 f   GuIncrementalAABBTree.obj
 0001:00166060       ?releaseNode@IncrementalAABBTree@Gu@physx@@AEAAXPEAVIncrementalAABBTreeNode@23@@Z 0000000180167060 f   GuIncrementalAABBTree.obj
 0001:001660f0       ?remove@IncrementalAABBTree@Gu@physx@@QEAAPEAVIncrementalAABBTreeNode@23@PEAV423@IPEBVPxBounds3@3@@Z 00000001801670f0 f   GuIncrementalAABBTree.obj
 0001:00166410       ?rotateTree@IncrementalAABBTree@Gu@physx@@AEAAXPEAVIncrementalAABBTreeNode@23@AEAV?$PxArray@PEAVIncrementalAABBTreeNode@Gu@physx@@V?$PxReflectionAllocator@PEAVIncrementalAABBTreeNode@Gu@physx@@@3@@3@IPEBVPxBounds3@3@_N@Z 0000000180167410 f   GuIncrementalAABBTree.obj
 0001:00166d70       ?shiftOrigin@IncrementalAABBTree@Gu@physx@@QEAAXAEBV?$PxVec3T@M@3@@Z 0000000180167d70 f   GuIncrementalAABBTree.obj
 0001:00166dd0       ?splitLeafNode@IncrementalAABBTree@Gu@physx@@AEAAPEAVIncrementalAABBTreeNode@23@PEAV423@IAEBT__m128@@1PEBVPxBounds3@3@@Z 0000000180167dd0 f   GuIncrementalAABBTree.obj
 0001:001670c0       ?update@IncrementalAABBTree@Gu@physx@@QEAAPEAVIncrementalAABBTreeNode@23@PEAV423@IPEBVPxBounds3@3@AEAV?$PxArray@PEAVIncrementalAABBTreeNode@Gu@physx@@V?$PxReflectionAllocator@PEAVIncrementalAABBTreeNode@Gu@physx@@@3@@3@@Z 00000001801680c0 f   GuIncrementalAABBTree.obj
 0001:00167180       ?updateFast@IncrementalAABBTree@Gu@physx@@QEAAPEAVIncrementalAABBTreeNode@23@PEAV423@IPEBVPxBounds3@3@AEAV?$PxArray@PEAVIncrementalAABBTreeNode@Gu@physx@@V?$PxReflectionAllocator@PEAVIncrementalAABBTreeNode@Gu@physx@@@3@@3@@Z 0000000180168180 f   GuIncrementalAABBTree.obj
 0001:001673a0       ??0SAH_Buffers@Gu@physx@@QEAA@I@Z 00000001801683a0 f   GuSAH.obj
 0001:001674b0       ??1SAH_Buffers@Gu@physx@@QEAA@XZ 00000001801684b0 f   GuSAH.obj
 0001:00167580       ?split@SAH_Buffers@Gu@physx@@QEAA_NAEAIIPEIBIPEIBVPxBounds3@3@PEIBV?$PxVec3T@M@3@@Z 0000000180168580 f   GuSAH.obj
 0001:00167c50       ??0BVH@Gu@physx@@QEAA@AEBUPxBVHInternalData@2@@Z 0000000180168c50 f   GuBVH.obj
 0001:00167d10       ??0BVH@Gu@physx@@QEAA@PEAVMeshFactory@12@@Z 0000000180168d10 f   GuBVH.obj
 0001:00167d80       ??0BVH@Gu@physx@@QEAA@PEAVMeshFactory@12@AEAVBVHData@12@@Z 0000000180168d80 f   GuBVH.obj
 0001:00167e30       ??1BVHData@Gu@physx@@QEAA@XZ 0000000180168e30 f i GuBVH.obj
 0001:0016b830       ??_EBVH@Gu@physx@@WBA@EAAPEAXI@Z 000000018016c830 f i GuBVH.obj
 0001:0016b840       ??_EBVH@Gu@physx@@UEAAPEAXI@Z 000000018016c840 f i GuBVH.obj
 0001:0016b840       ??_GBVH@Gu@physx@@UEAAPEAXI@Z 000000018016c840 f i GuBVH.obj
 0001:0016b8d0       ??_ERefCountable@Cm@physx@@UEAAPEAXI@Z 000000018016c8d0 f i GuBVH.obj
 0001:0016b8d0       ??_GRefCountable@Cm@physx@@UEAAPEAXI@Z 000000018016c8d0 f i GuBVH.obj
 0001:0016bb00       ?allocate@?$PxArray@PEBUBVHNode@Gu@physx@@V?$PxInlineAllocator@$0IAA@V?$PxReflectionAllocator@PEBUBVHNode@Gu@physx@@@physx@@@3@@physx@@IEAAPEAPEBUBVHNode@Gu@2@I@Z 000000018016cb00 f i GuBVH.obj
 0001:0016bbc0       ?build@BVHData@Gu@physx@@QEAA_NIPEBXIMIW4BVHBuildStrategy@23@@Z 000000018016cbc0 f   GuBVH.obj
 0001:0016bfc0       ?cull@BVH@Gu@physx@@UEBA_NIPEBVPxPlane@3@AEAUOverlapCallback@PxBVH@3@V?$PxFlags@W4Enum@PxGeometryQueryFlag@physx@@I@3@@Z 000000018016cfc0 f   GuBVH.obj
 0001:0016c900       ?getConcreteTypeName@PxBVH@physx@@UEBAPEBDXZ 000000018016d900 f i GuBVH.obj
 0001:0016c910       ?init@BVH@Gu@physx@@QEAA_NIPEAVAABBTreeBounds@23@PEBXIW4BVHBuildStrategy@23@IM@Z 000000018016d910 f   GuBVH.obj
 0001:0016cd20       ?isKindOf@PxBVH@physx@@MEBA_NPEBD@Z 000000018016dd20 f i GuBVH.obj
 0001:0016cd90       ?load@BVH@Gu@physx@@QEAA_NAEAVPxInputStream@3@@Z 000000018016dd90 f   GuBVH.obj
 0001:0016cf20       ?onRefCountZero@BVH@Gu@physx@@UEAAXXZ 000000018016df20 f   GuBVH.obj
 0001:0016d000       ?onRefCountZero@RefCountable@Cm@physx@@UEAAXXZ 000000018016e000 f i GuBVH.obj
 0001:0016d020       ?overlap@BVH@Gu@physx@@QEBA_NAEBVShapeData@23@AEAUOverlapCallback@PxBVH@3@V?$PxFlags@W4Enum@PxGeometryQueryFlag@physx@@I@3@@Z 000000018016e020 f   GuBVH.obj
 0001:0016d850       ?overlap@BVH@Gu@physx@@UEBA_NAEBVPxGeometry@3@AEBV?$PxTransformT@M@3@AEAUOverlapCallback@PxBVH@3@V?$PxFlags@W4Enum@PxGeometryQueryFlag@physx@@I@3@@Z 000000018016e850 f   GuBVH.obj
 0001:0016d8b0       ?partialRefit@BVH@Gu@physx@@UEAAXXZ 000000018016e8b0 f   GuBVH.obj
 0001:0016d8c0       ?raycast@BVH@Gu@physx@@UEBA_NAEBV?$PxVec3T@M@3@0MAEAURaycastCallback@PxBVH@3@V?$PxFlags@W4Enum@PxGeometryQueryFlag@physx@@I@3@@Z 000000018016e8c0 f   GuBVH.obj
 0001:0016d9f0       ?recreate@?$PxArray@PEBUBVHNode@Gu@physx@@V?$PxInlineAllocator@$0IAA@V?$PxReflectionAllocator@PEBUBVHNode@Gu@physx@@@physx@@@3@@physx@@IEAAXI@Z 000000018016e9f0 f i GuBVH.obj
 0001:0016dab0       ?refit@BVH@Gu@physx@@UEAAXXZ 000000018016eab0 f   GuBVH.obj
 0001:0016dac0       ?release@BVH@Gu@physx@@UEAAXXZ 000000018016eac0 f   GuBVH.obj
 0001:0016daf0       ?resizeUninitialized@?$PxArray@PEBUBVHNode@Gu@physx@@V?$PxInlineAllocator@$0IAA@V?$PxReflectionAllocator@PEBUBVHNode@Gu@physx@@@physx@@@3@@physx@@QEAAXI@Z 000000018016eaf0 f i GuBVH.obj
 0001:0016db40       ?save@BVHData@Gu@physx@@QEBA_NAEAVPxOutputStream@3@_N@Z 000000018016eb40 f   GuBVH.obj
 0001:0016dcb0       ?sweep@BVH@Gu@physx@@QEBA_NAEBVShapeData@23@AEBV?$PxVec3T@M@3@MAEAURaycastCallback@PxBVH@3@V?$PxFlags@W4Enum@PxGeometryQueryFlag@physx@@I@3@@Z 000000018016ecb0 f   GuBVH.obj
 0001:0016dea0       ?sweep@BVH@Gu@physx@@UEBA_NAEBVPxGeometry@3@AEBV?$PxTransformT@M@3@AEBV?$PxVec3T@M@3@MAEAURaycastCallback@PxBVH@3@V?$PxFlags@W4Enum@PxGeometryQueryFlag@physx@@I@3@@Z 000000018016eea0 f   GuBVH.obj
 0001:0016df20       ?traverse@BVH@Gu@physx@@UEBA_NAEAUTraversalCallback@PxBVH@3@@Z 000000018016ef20 f   GuBVH.obj
 0001:0016e090       ?updateBounds@BVH@Gu@physx@@UEAA_NIAEBVPxBounds3@3@@Z 000000018016f090 f   GuBVH.obj
 0001:0016e140       ?updateBoundsInternal@BVH@Gu@physx@@QEAA_NIAEBVPxBounds3@3@@Z 000000018016f140 f   GuBVH.obj
 0001:0016e1f0       PxFindOverlap              000000018016f1f0 f   GuBVH.obj
 0001:0016e2e0       PxGetBVHInternalData       000000018016f2e0 f   GuBVH.obj
 0001:0016e320       ??0IncrementalAABBPrunerCore@Gu@physx@@QEAA@PEBVPruningPool@12@@Z 000000018016f320 f   GuIncrementalAABBPrunerCore.obj
 0001:0016e430       ??1IncrementalAABBPrunerCore@Gu@physx@@QEAA@XZ 000000018016f430 f   GuIncrementalAABBPrunerCore.obj
 0001:0016e5a0       ??R?$AABBTreeOverlap@$00U?$OBBAABBTests@$00@Gu@physx@@VIncrementalAABBTree@23@VIncrementalAABBTreeNode@23@UOverlapCallbackAdapter@23@@Gu@physx@@QEAA_NAEBVAABBTreeBounds@12@AEBVIncrementalAABBTree@12@AEBU?$OBBAABBTests@$00@12@AEAUOverlapCallbackAdapter@12@@Z 000000018016f5a0 f i GuIncrementalAABBPrunerCore.obj
 0001:0016eb50       ??R?$AABBTreeOverlap@$00UAABBAABBTest@Gu@physx@@VIncrementalAABBTree@23@VIncrementalAABBTreeNode@23@UOverlapCallbackAdapter@23@@Gu@physx@@QEAA_NAEBVAABBTreeBounds@12@AEBVIncrementalAABBTree@12@AEBUAABBAABBTest@12@AEAUOverlapCallbackAdapter@12@@Z 000000018016fb50 f i GuIncrementalAABBPrunerCore.obj
 0001:0016edc0       ??R?$AABBTreeOverlap@$00UCapsuleAABBTest@Gu@physx@@VIncrementalAABBTree@23@VIncrementalAABBTreeNode@23@UOverlapCallbackAdapter@23@@Gu@physx@@QEAA_NAEBVAABBTreeBounds@12@AEBVIncrementalAABBTree@12@AEBUCapsuleAABBTest@12@AEAUOverlapCallbackAdapter@12@@Z 000000018016fdc0 f i GuIncrementalAABBPrunerCore.obj
 0001:0016f1e0       ??R?$AABBTreeRaycast@$00$00VIncrementalAABBTree@Gu@physx@@VIncrementalAABBTreeNode@23@URaycastCallbackAdapter@23@@Gu@physx@@QEAA_NAEBVAABBTreeBounds@12@AEBVIncrementalAABBTree@12@AEBV?$PxVec3T@M@2@2AEAM2AEAURaycastCallbackAdapter@12@@Z 00000001801701e0 f i GuIncrementalAABBPrunerCore.obj
 0001:0016f8a0       ??R?$AABBTreeRaycast@$0A@$00VIncrementalAABBTree@Gu@physx@@VIncrementalAABBTreeNode@23@URaycastCallbackAdapter@23@@Gu@physx@@QEAA_NAEBVAABBTreeBounds@12@AEBVIncrementalAABBTree@12@AEBV?$PxVec3T@M@2@2AEAM2AEAURaycastCallbackAdapter@12@@Z 00000001801708a0 f i GuIncrementalAABBPrunerCore.obj
 0001:0016fef0       ?addObject@IncrementalAABBPrunerCore@Gu@physx@@QEAA_NII@Z 0000000180170ef0 f   GuIncrementalAABBPrunerCore.obj
 0001:0016ffe0       ?allocate@?$PxArray@PEBVIncrementalAABBTreeNode@Gu@physx@@V?$PxInlineAllocator@$0IAA@V?$PxReflectionAllocator@PEBVIncrementalAABBTreeNode@Gu@physx@@@physx@@@3@@physx@@IEAAPEAPEBVIncrementalAABBTreeNode@Gu@2@I@Z 0000000180170fe0 f i GuIncrementalAABBPrunerCore.obj
 0001:001700a0       ?clear@?$PxHashMapBase@IPEAVIncrementalAABBTreeNode@Gu@physx@@U?$PxHash@I@3@VPxAllocator@3@@physx@@QEAAXXZ 00000001801710a0 f i GuIncrementalAABBPrunerCore.obj
 0001:001700a0       ?clear@?$PxHashMapBase@UPrunerPayload@Gu@physx@@UExtendedBucketPrunerData@23@UExtendedBucketPrunerHash@23@VPxAllocator@3@@physx@@QEAAXXZ 00000001801710a0 f i GuExtendedBucketPruner.obj
 0001:00170130       ?create@?$PxHashBase@V?$PxPair@$$CBIPEAVIncrementalAABBTreeNode@Gu@physx@@@physx@@IU?$PxHash@I@2@UGetKey@?$PxHashMapBase@IPEAVIncrementalAABBTreeNode@Gu@physx@@U?$PxHash@I@3@VPxAllocator@3@@2@VPxAllocator@2@$00@physx@@QEAAPEAV?$PxPair@$$CBIPEAVIncrementalAABBTreeNode@Gu@physx@@@2@AEBIAEA_N@Z 0000000180171130 f i GuIncrementalAABBPrunerCore.obj
 0001:00170280       ?erase@?$PxHashBase@V?$PxPair@$$CBIPEAVIncrementalAABBTreeNode@Gu@physx@@@physx@@IU?$PxHash@I@2@UGetKey@?$PxHashMapBase@IPEAVIncrementalAABBTreeNode@Gu@physx@@U?$PxHash@I@3@VPxAllocator@3@@2@VPxAllocator@2@$00@physx@@QEAA_NAEBIAEAV?$PxPair@$$CBIPEAVIncrementalAABBTreeNode@Gu@physx@@@2@@Z 0000000180171280 f i GuIncrementalAABBPrunerCore.obj
 0001:001703f0       ?getCurrentWorldBoxes@PruningPool@Gu@physx@@QEAAPEAVPxBounds3@3@XZ 00000001801713f0 f i GuIncrementalAABBPrunerCore.obj
 0001:001703f0       ?getCurrentWorldBoxes@PruningPool@Gu@physx@@QEBAPEBVPxBounds3@3@XZ 00000001801713f0 f i GuIncrementalAABBPrunerCore.obj
 0001:001703f0       ?getMesh@CollisionTetrahedronMeshData@Gu@physx@@UEAAPEAVPxTetrahedronMeshData@3@XZ 00000001801713f0 f i GuCookingTetrahedronMesh.obj
 0001:001703f0       ?getMesh@CollisionTetrahedronMeshData@Gu@physx@@UEBAPEBVPxTetrahedronMeshData@3@XZ 00000001801713f0 f i GuCookingTetrahedronMesh.obj
 0001:001703f0       ?getMesh@SimulationTetrahedronMeshData@Gu@physx@@UEAAPEAVPxTetrahedronMeshData@3@XZ 00000001801713f0 f i GuCookingTetrahedronMesh.obj
 0001:00170400       ?getGlobalBounds@IncrementalAABBPrunerCore@Gu@physx@@QEBAXAEAVPxBounds3@3@@Z 0000000180171400 f   GuIncrementalAABBPrunerCore.obj
 0001:00170530       ?getIndex@PruningPool@Gu@physx@@QEBAII@Z 0000000180171530 f i GuIncrementalAABBPrunerCore.obj
 0001:00170540       ?getPayloadData@PruningPool@Gu@physx@@QEBAAEBUPrunerPayload@23@IPEAUPrunerPayloadData@23@@Z 0000000180171540 f i GuIncrementalAABBPrunerCore.obj
 0001:00170590       ?overlap@IncrementalAABBPrunerCore@Gu@physx@@QEBA_NAEBVShapeData@23@AEAUPrunerOverlapCallback@23@@Z 0000000180171590 f   GuIncrementalAABBPrunerCore.obj
 0001:00171090       ?raycast@IncrementalAABBPrunerCore@Gu@physx@@QEBA_NAEBV?$PxVec3T@M@3@0AEAMAEAUPrunerRaycastCallback@23@@Z 0000000180172090 f   GuIncrementalAABBPrunerCore.obj
 0001:00171170       ?recreate@?$PxArray@PEAVIncrementalAABBTreeNode@Gu@physx@@V?$PxReflectionAllocator@PEAVIncrementalAABBTreeNode@Gu@physx@@@3@@physx@@IEAAXI@Z 0000000180172170 f i GuIncrementalAABBPrunerCore.obj
 0001:00171260       ?recreate@?$PxArray@PEBVIncrementalAABBTreeNode@Gu@physx@@V?$PxInlineAllocator@$0IAA@V?$PxReflectionAllocator@PEBVIncrementalAABBTreeNode@Gu@physx@@@physx@@@3@@physx@@IEAAXI@Z 0000000180172260 f i GuIncrementalAABBPrunerCore.obj
 0001:00171320       ?release@IncrementalAABBPrunerCore@Gu@physx@@QEAAXXZ 0000000180172320 f   GuIncrementalAABBPrunerCore.obj
 0001:00171420       ?removeMarkedObjects@IncrementalAABBPrunerCore@Gu@physx@@QEAAII@Z 0000000180172420 f   GuIncrementalAABBPrunerCore.obj
 0001:00171480       ?removeObject@IncrementalAABBPrunerCore@Gu@physx@@QEAA_NIIAEAI@Z 0000000180172480 f   GuIncrementalAABBPrunerCore.obj
 0001:00171690       ?reserveInternal@?$PxHashBase@V?$PxPair@$$CBIPEAVIncrementalAABBTreeNode@Gu@physx@@@physx@@IU?$PxHash@I@2@UGetKey@?$PxHashMapBase@IPEAVIncrementalAABBTreeNode@Gu@physx@@U?$PxHash@I@3@VPxAllocator@3@@2@VPxAllocator@2@$00@physx@@AEAAXI@Z 0000000180172690 f i GuIncrementalAABBPrunerCore.obj
 0001:00171850       ?resizeUninitialized@?$PxArray@PEBVIncrementalAABBTreeNode@Gu@physx@@V?$PxInlineAllocator@$0IAA@V?$PxReflectionAllocator@PEBVIncrementalAABBTreeNode@Gu@physx@@@physx@@@3@@physx@@QEAAXI@Z 0000000180172850 f i GuIncrementalAABBPrunerCore.obj
 0001:001718a0       ?setTransform@PruningPool@Gu@physx@@QEAA_NIAEBV?$PxTransformT@M@3@@Z 00000001801728a0 f i GuIncrementalAABBPrunerCore.obj
 0001:00171900       ?shiftOrigin@IncrementalAABBPrunerCore@Gu@physx@@QEAAXAEBV?$PxVec3T@M@3@@Z 0000000180172900 f   GuIncrementalAABBPrunerCore.obj
 0001:00171950       ?swapIndex@IncrementalAABBPrunerCore@Gu@physx@@QEAAXII@Z 0000000180172950 f   GuIncrementalAABBPrunerCore.obj
 0001:00171a30       ?sweep@IncrementalAABBPrunerCore@Gu@physx@@QEBA_NAEBVShapeData@23@AEBV?$PxVec3T@M@3@AEAMAEAUPrunerRaycastCallback@23@@Z 0000000180172a30 f   GuIncrementalAABBPrunerCore.obj
 0001:00171bc0       ?updateMapping@IncrementalAABBPrunerCore@Gu@physx@@AEAAXAEAV?$PxHashMap@IPEAVIncrementalAABBTreeNode@Gu@physx@@U?$PxHash@I@3@VPxAllocator@3@@3@IPEAVIncrementalAABBTreeNode@23@@Z 0000000180172bc0 f   GuIncrementalAABBPrunerCore.obj
 0001:00171d10       ?updateObject@IncrementalAABBPrunerCore@Gu@physx@@QEAA_NI@Z 0000000180172d10 f   GuIncrementalAABBPrunerCore.obj
 0001:00171eb0       ?visualize@IncrementalAABBPrunerCore@Gu@physx@@QEBAXAEAVPxRenderOutput@3@I@Z 0000000180172eb0 f   GuIncrementalAABBPrunerCore.obj
 0001:00171f10       ??0IncrementalAABBPruner@Gu@physx@@QEAA@I_K@Z 0000000180172f10 f   GuIncrementalAABBPruner.obj
 0001:00171fc0       ??R?$AABBTreeOverlap@$00USphereAABBTest@Gu@physx@@VIncrementalAABBTree@23@VIncrementalAABBTreeNode@23@UOverlapCallbackAdapter@23@@Gu@physx@@QEAA_NAEBVAABBTreeBounds@12@AEBVIncrementalAABBTree@12@AEBUSphereAABBTest@12@AEAUOverlapCallbackAdapter@12@@Z 0000000180172fc0 f i GuIncrementalAABBPruner.obj
 0001:001722a0       ??_EBasePruner@Gu@physx@@UEAAPEAXI@Z 00000001801732a0 f i GuIncrementalAABBPruner.obj
 0001:001722a0       ??_GBasePruner@Gu@physx@@UEAAPEAXI@Z 00000001801732a0 f i GuIncrementalAABBPruner.obj
 0001:001722f0       ??_EIncrementalAABBPruner@Gu@physx@@UEAAPEAXI@Z 00000001801732f0 f i GuIncrementalAABBPruner.obj
 0001:001722f0       ??_GIncrementalAABBPruner@Gu@physx@@UEAAPEAXI@Z 00000001801732f0 f i GuIncrementalAABBPruner.obj
 0001:00172400       ?addObjects@IncrementalAABBPruner@Gu@physx@@UEAA_NPEAIPEBVPxBounds3@3@PEBUPrunerPayload@23@PEBV?$PxTransformT@M@3@I_N@Z 0000000180173400 f   GuIncrementalAABBPruner.obj
 0001:001725a0       ?commit@IncrementalAABBPruner@Gu@physx@@UEAAXXZ 00000001801735a0 f   GuIncrementalAABBPruner.obj
 0001:001726f0       ?getGlobalBounds@IncrementalAABBPruner@Gu@physx@@UEBAXAEAVPxBounds3@3@@Z 00000001801736f0 f   GuIncrementalAABBPruner.obj
 0001:00172760       ?getPayloadData@IncrementalAABBPruner@Gu@physx@@UEBAAEBUPrunerPayload@23@IPEAUPrunerPayloadData@23@@Z 0000000180173760 f i GuIncrementalAABBPruner.obj
 0001:001727b0       ?overlap@IncrementalAABBPruner@Gu@physx@@UEBA_NAEBVShapeData@23@AEAUPrunerOverlapCallback@23@@Z 00000001801737b0 f   GuIncrementalAABBPruner.obj
 0001:00172ec0       ?preallocate@IncrementalAABBPruner@Gu@physx@@UEAAXI@Z 0000000180173ec0 f i GuIncrementalAABBPruner.obj
 0001:00172ed0       ?purge@IncrementalAABBPruner@Gu@physx@@UEAAXXZ 0000000180173ed0 f   GuIncrementalAABBPruner.obj
 0001:00172f20       ?raycast@IncrementalAABBPruner@Gu@physx@@UEBA_NAEBV?$PxVec3T@M@3@0AEAMAEAUPrunerRaycastCallback@23@@Z 0000000180173f20 f   GuIncrementalAABBPruner.obj
 0001:00172fa0       ?removeObjects@IncrementalAABBPruner@Gu@physx@@UEAAXPEBIIPEAUPrunerPayloadRemovalCallback@23@@Z 0000000180173fa0 f   GuIncrementalAABBPruner.obj
 0001:001730f0       ?resize@?$PxArray@PEAVIncrementalAABBTreeNode@Gu@physx@@V?$PxReflectionAllocator@PEAVIncrementalAABBTreeNode@Gu@physx@@@3@@physx@@QEAAXIAEBQEAVIncrementalAABBTreeNode@Gu@2@@Z 00000001801740f0 f i GuIncrementalAABBPruner.obj
 0001:001731b0       ?resizeUninitialized@?$PxArray@PEAVIncrementalAABBTreeNode@Gu@physx@@V?$PxReflectionAllocator@PEAVIncrementalAABBTreeNode@Gu@physx@@@3@@physx@@QEAAXI@Z 00000001801741b0 f i GuIncrementalAABBPruner.obj
 0001:001731f0       ?setTransform@IncrementalAABBPruner@Gu@physx@@UEAA_NIAEBV?$PxTransformT@M@3@@Z 00000001801741f0 f i GuIncrementalAABBPruner.obj
 0001:00173250       ?shiftOrigin@IncrementalAABBPruner@Gu@physx@@UEAAXAEBV?$PxVec3T@M@3@@Z 0000000180174250 f   GuIncrementalAABBPruner.obj
 0001:00173290       ?sweep@IncrementalAABBPruner@Gu@physx@@UEBA_NAEBVShapeData@23@AEBV?$PxVec3T@M@3@AEAMAEAUPrunerRaycastCallback@23@@Z 0000000180174290 f   GuIncrementalAABBPruner.obj
 0001:001733b0       ?updateObjects@IncrementalAABBPruner@Gu@physx@@UEAAXPEBIIM0PEBVPxBounds3@3@PEBUPxTransformPadded@3@@Z 00000001801743b0 f   GuIncrementalAABBPruner.obj
 0001:00173580       ?visualize@IncrementalAABBPruner@Gu@physx@@UEBAXAEAVPxRenderOutput@3@II@Z 0000000180174580 f   GuIncrementalAABBPruner.obj
 0001:00173770       ??0PruningPool@Gu@physx@@QEAA@_KW4TransformCacheMode@12@@Z 0000000180174770 f   GuPruningPool.obj
 0001:001737a0       ??1PruningPool@Gu@physx@@QEAA@XZ 00000001801747a0 f   GuPruningPool.obj
 0001:00173870       ?addObjects@PruningPool@Gu@physx@@QEAAIPEAIPEBVPxBounds3@3@PEBUPrunerPayload@23@PEBV?$PxTransformT@M@3@I@Z 0000000180174870 f   GuPruningPool.obj
 0001:00173a20       ?preallocate@PruningPool@Gu@physx@@QEAAXI@Z 0000000180174a20 f   GuPruningPool.obj
 0001:00173a30       ?removeObject@PruningPool@Gu@physx@@QEAAIIPEAUPrunerPayloadRemovalCallback@23@@Z 0000000180174a30 f   GuPruningPool.obj
 0001:00173b70       ?resize@PruningPool@Gu@physx@@QEAA_NI@Z 0000000180174b70 f   GuPruningPool.obj
 0001:00173e50       ?shiftOrigin@PruningPool@Gu@physx@@QEAAXAEBV?$PxVec3T@M@3@@Z 0000000180174e50 f   GuPruningPool.obj
 0001:00174220       ?updateAndInflateBounds@PruningPool@Gu@physx@@QEAAXPEBI0PEBVPxBounds3@3@PEBUPxTransformPadded@3@IM@Z 0000000180175220 f   GuPruningPool.obj
 0001:00175c40       ??0BucketPruner@Gu@physx@@QEAA@_K@Z 0000000180176c40 f   GuBucketPruner.obj
 0001:00175c90       ??0BucketPrunerCore@Gu@physx@@QEAA@_N@Z 0000000180176c90 f   GuBucketPruner.obj
 0001:00176010       ??1BucketPrunerCore@Gu@physx@@QEAA@XZ 0000000180177010 f   GuBucketPruner.obj
 0001:00176030       ??R?$BucketPrunerOverlapTraversal@UBucketPrunerAABBAABBTest@@$00@@QEBA_NAEBVBucketPrunerCore@Gu@physx@@AEBUBucketPrunerAABBAABBTest@@AEAUPrunerOverlapCallback@23@AEBVPxBounds3@3@@Z 0000000180177030 f i GuBucketPruner.obj
 0001:001765f0       ??R?$BucketPrunerOverlapTraversal@UOBBAABBTest_SIMD@@$0A@@@QEBA_NAEBVBucketPrunerCore@Gu@physx@@AEBUOBBAABBTest_SIMD@@AEAUPrunerOverlapCallback@23@AEBVPxBounds3@3@@Z 00000001801775f0 f i GuBucketPruner.obj
 0001:00176e70       ??R?$BucketPrunerOverlapTraversal@USphereAABBTest_SIMD@@$00@@QEBA_NAEBVBucketPrunerCore@Gu@physx@@AEBUSphereAABBTest_SIMD@@AEAUPrunerOverlapCallback@23@AEBVPxBounds3@3@@Z 0000000180177e70 f i GuBucketPruner.obj
 0001:00177450       ??_FBucketPrunerCore@Gu@physx@@QEAAXXZ 0000000180178450 f i GuBucketPruner.obj
 0001:00177460       ??_EBucketPruner@Gu@physx@@UEAAPEAXI@Z 0000000180178460 f i GuBucketPruner.obj
 0001:00177460       ??_GBucketPruner@Gu@physx@@UEAAPEAXI@Z 0000000180178460 f i GuBucketPruner.obj
 0001:00177500       ?addObject@BucketPrunerCore@Gu@physx@@QEAA_NAEBUPrunerPayload@23@AEBVPxBounds3@3@AEBV?$PxTransformT@M@3@I@Z 0000000180178500 f   GuBucketPruner.obj
 0001:00177820       ?addObjects@BucketPruner@Gu@physx@@UEAA_NPEAIPEBVPxBounds3@3@PEBUPrunerPayload@23@PEBV?$PxTransformT@M@3@I_N@Z 0000000180178820 f   GuBucketPruner.obj
 0001:001778b0       ?addPair@BucketPrunerMap@Gu@physx@@QEAAPEAUBucketPrunerPair@23@AEBUPrunerPayload@23@II@Z 00000001801788b0 f   GuBucketPruner.obj
 0001:00177ab0       ?allocateSortedMemory@BucketPrunerCore@Gu@physx@@AEAAXI@Z 0000000180178ab0 f   GuBucketPruner.obj
 0001:00177c70       ?classifyBoxes@BucketPrunerCore@Gu@physx@@AEAAXXZ 0000000180178c70 f   GuBucketPruner.obj
 0001:00178460       ?classifyBoxes@BucketPrunerNode@Gu@physx@@QEAAXMMIPEIAUBucketBox@23@PEIBUPrunerPayload@23@PEIBV?$PxTransformT@M@3@0PEIAU523@PEIAV63@_NI@Z 0000000180179460 f   GuBucketPruner.obj
 0001:00178ce0       ?build@CompanionPrunerBucket@@UEAAXXZ 0000000180179ce0 f   GuSecondaryPruner.obj
 0001:00178ce0       ?commit@BucketPruner@Gu@physx@@UEAAXXZ 0000000180179ce0 f   GuBucketPruner.obj
 0001:00178cf0       ?findPair@BucketPrunerMap@Gu@physx@@QEBAPEBUBucketPrunerPair@23@AEBUPrunerPayload@23@@Z 0000000180179cf0 f   GuBucketPruner.obj
 0001:001790e0       ?getGlobalBounds@BucketPruner@Gu@physx@@UEBAXAEAVPxBounds3@3@@Z 000000018017a0e0 f   GuBucketPruner.obj
 0001:00179160       ?getGlobalBounds@BucketPrunerCore@Gu@physx@@QEBAXAEAVPxBounds3@3@@Z 000000018017a160 f   GuBucketPruner.obj
 0001:001791e0       ?getPayloadData@BucketPruner@Gu@physx@@UEBAAEBUPrunerPayload@23@IPEAUPrunerPayloadData@23@@Z 000000018017a1e0 f i GuBucketPruner.obj
 0001:00179240       ?overlap@BucketPruner@Gu@physx@@UEBA_NAEBVShapeData@23@AEAUPrunerOverlapCallback@23@@Z 000000018017a240 f   GuBucketPruner.obj
 0001:00179260       ?overlap@BucketPrunerCore@Gu@physx@@QEBA_NAEBVShapeData@23@AEAUPrunerOverlapCallback@23@@Z 000000018017a260 f   GuBucketPruner.obj
 0001:00179540       ?preallocate@BucketPruner@Gu@physx@@UEAAXI@Z 000000018017a540 f i GuBucketPruner.obj
 0001:00179720       ?purge@BucketPrunerMap@Gu@physx@@QEAAXXZ 000000018017a720 f   GuBucketPruner.obj
 0001:001797b0       ?raycast@BucketPruner@Gu@physx@@UEBA_NAEBV?$PxVec3T@M@3@0AEAMAEAUPrunerRaycastCallback@23@@Z 000000018017a7b0 f   GuBucketPruner.obj
 0001:00179800       ?raycast@BucketPrunerCore@Gu@physx@@QEBA_NAEBV?$PxVec3T@M@3@0AEAMAEAUPrunerRaycastCallback@23@@Z 000000018017a800 f   GuBucketPruner.obj
 0001:00179840       ?reallocPairs@BucketPrunerMap@Gu@physx@@QEAAXXZ 000000018017a840 f   GuBucketPruner.obj
 0001:00179a80       ?release@BucketPrunerCore@Gu@physx@@QEAAXXZ 000000018017aa80 f   GuBucketPruner.obj
 0001:00179bc0       ?removeMarkedObjects@BucketPrunerCore@Gu@physx@@QEAAII@Z 000000018017abc0 f   GuBucketPruner.obj
 0001:00179f90       ?removeObject@BucketPrunerCore@Gu@physx@@QEAA_NAEBUPrunerPayload@23@AEAI@Z 000000018017af90 f   GuBucketPruner.obj
 0001:0017a250       ?removeObjects@BucketPruner@Gu@physx@@UEAAXPEBIIPEAUPrunerPayloadRemovalCallback@23@@Z 000000018017b250 f   GuBucketPruner.obj
 0001:0017a300       ?removePair@BucketPrunerMap@Gu@physx@@QEAA_NAEBUPrunerPayload@23@AEAI1@Z 000000018017b300 f   GuBucketPruner.obj
 0001:0017a480       ?removePairInternal@BucketPrunerMap@Gu@physx@@QEAAXAEBUPrunerPayload@23@II@Z 000000018017b480 f   GuBucketPruner.obj
 0001:0017a610       ?resizeCore@BucketPrunerCore@Gu@physx@@AEAAXXZ 000000018017b610 f   GuBucketPruner.obj
 0001:0017a860       ?setTransform@BucketPruner@Gu@physx@@UEAA_NIAEBV?$PxTransformT@M@3@@Z 000000018017b860 f i GuBucketPruner.obj
 0001:0017a8c0       ?shiftOrigin@BucketPruner@Gu@physx@@UEAAXAEBV?$PxVec3T@M@3@@Z 000000018017b8c0 f   GuBucketPruner.obj
 0001:0017a8c0       ?shiftOrigin@CompanionPrunerBucket@@UEAAXAEBV?$PxVec3T@M@physx@@@Z 000000018017b8c0 f   GuSecondaryPruner.obj
 0001:0017a8d0       ?shiftOrigin@BucketPrunerCore@Gu@physx@@QEAAXAEBV?$PxVec3T@M@3@@Z 000000018017b8d0 f   GuBucketPruner.obj
 0001:0017b700       ?sweep@BucketPruner@Gu@physx@@UEBA_NAEBVShapeData@23@AEBV?$PxVec3T@M@3@AEAMAEAUPrunerRaycastCallback@23@@Z 000000018017c700 f   GuBucketPruner.obj
 0001:0017b720       ?sweep@BucketPrunerCore@Gu@physx@@QEBA_NAEBVShapeData@23@AEBV?$PxVec3T@M@3@AEAMAEAUPrunerRaycastCallback@23@@Z 000000018017c720 f   GuBucketPruner.obj
 0001:0017b7f0       ?updateObject@BucketPrunerCore@Gu@physx@@QEAA_NAEBVPxBounds3@3@AEBUPrunerPayload@23@AEBV?$PxTransformT@M@3@@Z 000000018017c7f0 f   GuBucketPruner.obj
 0001:0017b850       ?updateObjects@BucketPruner@Gu@physx@@UEAAXPEBIIM0PEBVPxBounds3@3@PEBUPxTransformPadded@3@@Z 000000018017c850 f   GuBucketPruner.obj
 0001:0017b960       ?visualize@BucketPruner@Gu@physx@@UEBAXAEAVPxRenderOutput@3@II@Z 000000018017c960 f   GuBucketPruner.obj
 0001:0017b960       ?visualize@CompanionPrunerBucket@@UEBAXAEAVPxRenderOutput@physx@@I@Z 000000018017c960 f   GuSecondaryPruner.obj
 0001:0017b970       ?visualize@BucketPrunerCore@Gu@physx@@QEBAXAEAVPxRenderOutput@3@I@Z 000000018017c970 f   GuBucketPruner.obj
 0001:0017bc70       ?addObject@MaverickNode@Gu@physx@@QEAA_NAEBUPrunerPayload@23@IAEBVPxBounds3@3@AEBV?$PxTransformT@M@3@I@Z 000000018017cc70 f   GuMaverickNode.obj
 0001:0017bd50       ?removeMarkedObjects@MaverickNode@Gu@physx@@QEAAII@Z 000000018017cd50 f   GuMaverickNode.obj
 0001:0017bee0       ?removeObject@MaverickNode@Gu@physx@@QEAA_NIAEAI@Z 000000018017cee0 f   GuMaverickNode.obj
 0001:0017c070       ?shiftOrigin@MaverickNode@Gu@physx@@QEAAXAEBV?$PxVec3T@M@3@@Z 000000018017d070 f   GuMaverickNode.obj
 0001:0017c160       ?updateObject@MaverickNode@Gu@physx@@QEAA_NIAEBVPxBounds3@3@AEBV?$PxTransformT@M@3@@Z 000000018017d160 f   GuMaverickNode.obj
 0001:0017c240       ??0ExtendedBucketPruner@Gu@physx@@QEAA@_KW4CompanionPrunerType@12@PEBVPruningPool@12@@Z 000000018017d240 f   GuExtendedBucketPruner.obj
 0001:0017c470       ??1ExtendedBucketPruner@Gu@physx@@QEAA@XZ 000000018017d470 f   GuExtendedBucketPruner.obj
 0001:0017c5e0       ??R?$AABBTreeOverlap@$00U?$OBBAABBTests@$00@Gu@physx@@VAABBTree@23@UBVHNode@23@U?$MainTreeOverlapPrunerCallback@U?$OBBAABBTests@$00@Gu@physx@@@@@Gu@physx@@QEAA_NAEBVAABBTreeBounds@12@AEBVAABBTree@12@AEBU?$OBBAABBTests@$00@12@AEAU?$MainTreeOverlapPrunerCallback@U?$OBBAABBTests@$00@Gu@physx@@@@@Z 000000018017d5e0 f i GuExtendedBucketPruner.obj
 0001:0017cbc0       ??R?$AABBTreeOverlap@$00U?$OBBAABBTests@$00@Gu@physx@@VAABBTree@23@UBVHNode@23@UOverlapCallbackAdapter@23@@Gu@physx@@QEAA_NAEBVAABBTreeBounds@12@AEBVAABBTree@12@AEBU?$OBBAABBTests@$00@12@AEAUOverlapCallbackAdapter@12@@Z 000000018017dbc0 f i GuExtendedBucketPruner.obj
 0001:0017d180       ??R?$AABBTreeOverlap@$00UAABBAABBTest@Gu@physx@@VAABBTree@23@UBVHNode@23@U?$MainTreeOverlapPrunerCallback@UAABBAABBTest@Gu@physx@@@@@Gu@physx@@QEAA_NAEBVAABBTreeBounds@12@AEBVAABBTree@12@AEBUAABBAABBTest@12@AEAU?$MainTreeOverlapPrunerCallback@UAABBAABBTest@Gu@physx@@@@@Z 000000018017e180 f i GuExtendedBucketPruner.obj
 0001:0017d440       ??R?$AABBTreeOverlap@$00UAABBAABBTest@Gu@physx@@VAABBTree@23@UBVHNode@23@UOverlapCallbackAdapter@23@@Gu@physx@@QEAA_NAEBVAABBTreeBounds@12@AEBVAABBTree@12@AEBUAABBAABBTest@12@AEAUOverlapCallbackAdapter@12@@Z 000000018017e440 f i GuExtendedBucketPruner.obj
 0001:0017d6d0       ??R?$AABBTreeOverlap@$00UCapsuleAABBTest@Gu@physx@@VAABBTree@23@UBVHNode@23@U?$MainTreeOverlapPrunerCallback@UCapsuleAABBTest@Gu@physx@@@@@Gu@physx@@QEAA_NAEBVAABBTreeBounds@12@AEBVAABBTree@12@AEBUCapsuleAABBTest@12@AEAU?$MainTreeOverlapPrunerCallback@UCapsuleAABBTest@Gu@physx@@@@@Z 000000018017e6d0 f i GuExtendedBucketPruner.obj
 0001:0017db50       ??R?$AABBTreeOverlap@$00UCapsuleAABBTest@Gu@physx@@VAABBTree@23@UBVHNode@23@UOverlapCallbackAdapter@23@@Gu@physx@@QEAA_NAEBVAABBTreeBounds@12@AEBVAABBTree@12@AEBUCapsuleAABBTest@12@AEAUOverlapCallbackAdapter@12@@Z 000000018017eb50 f i GuExtendedBucketPruner.obj
 0001:0017dfa0       ??R?$AABBTreeOverlap@$00USphereAABBTest@Gu@physx@@VAABBTree@23@UBVHNode@23@U?$MainTreeOverlapPrunerCallback@USphereAABBTest@Gu@physx@@@@@Gu@physx@@QEAA_NAEBVAABBTreeBounds@12@AEBVAABBTree@12@AEBUSphereAABBTest@12@AEAU?$MainTreeOverlapPrunerCallback@USphereAABBTest@Gu@physx@@@@@Z 000000018017efa0 f i GuExtendedBucketPruner.obj
 0001:0017e2c0       ??R?$AABBTreeOverlap@$00USphereAABBTest@Gu@physx@@VAABBTree@23@UBVHNode@23@UOverlapCallbackAdapter@23@@Gu@physx@@QEAA_NAEBVAABBTreeBounds@12@AEBVAABBTree@12@AEBUSphereAABBTest@12@AEAUOverlapCallbackAdapter@12@@Z 000000018017f2c0 f i GuExtendedBucketPruner.obj
 0001:0017e5c0       ??R?$AABBTreeRaycast@$00$00VAABBTree@Gu@physx@@UBVHNode@23@U?$MainTreeRaycastPrunerCallback@$00@@@Gu@physx@@QEAA_NAEBVAABBTreeBounds@12@AEBVAABBTree@12@AEBV?$PxVec3T@M@2@2AEAM2AEAU?$MainTreeRaycastPrunerCallback@$00@@@Z 000000018017f5c0 f i GuExtendedBucketPruner.obj
 0001:0017ece0       ??R?$AABBTreeRaycast@$00$00VAABBTree@Gu@physx@@UBVHNode@23@URaycastCallbackAdapter@23@@Gu@physx@@QEAA_NAEBVAABBTreeBounds@12@AEBVAABBTree@12@AEBV?$PxVec3T@M@2@2AEAM2AEAURaycastCallbackAdapter@12@@Z 000000018017fce0 f i GuExtendedBucketPruner.obj
 0001:0017f3c0       ??R?$AABBTreeRaycast@$0A@$00VAABBTree@Gu@physx@@UBVHNode@23@U?$MainTreeRaycastPrunerCallback@$0A@@@@Gu@physx@@QEAA_NAEBVAABBTreeBounds@12@AEBVAABBTree@12@AEBV?$PxVec3T@M@2@2AEAM2AEAU?$MainTreeRaycastPrunerCallback@$0A@@@@Z 00000001801803c0 f i GuExtendedBucketPruner.obj
 0001:0017fa80       ??R?$AABBTreeRaycast@$0A@$00VAABBTree@Gu@physx@@UBVHNode@23@URaycastCallbackAdapter@23@@Gu@physx@@QEAA_NAEBVAABBTreeBounds@12@AEBVAABBTree@12@AEBV?$PxVec3T@M@2@2AEAM2AEAURaycastCallbackAdapter@12@@Z 0000000180180a80 f i GuExtendedBucketPruner.obj
 0001:00180100       ?addTree@ExtendedBucketPruner@Gu@physx@@QEAAXAEBVAABBTreeMergeData@23@I@Z 0000000180181100 f   GuExtendedBucketPruner.obj
 0001:001803d0       ?buildMainAABBTree@ExtendedBucketPruner@Gu@physx@@AEAAXXZ 00000001801813d0 f   GuExtendedBucketPruner.obj
 0001:00180480       ?create@?$PxHashBase@V?$PxPair@$$CBUPrunerPayload@Gu@physx@@UExtendedBucketPrunerData@23@@physx@@UPrunerPayload@Gu@2@UExtendedBucketPrunerHash@42@UGetKey@?$PxHashMapBase@UPrunerPayload@Gu@physx@@UExtendedBucketPrunerData@23@UExtendedBucketPrunerHash@23@VPxAllocator@3@@2@VPxAllocator@2@$00@physx@@QEAAPEAV?$PxPair@$$CBUPrunerPayload@Gu@physx@@UExtendedBucketPrunerData@23@@2@AEBUPrunerPayload@Gu@2@AEA_N@Z 0000000180181480 f i GuExtendedBucketPruner.obj
 0001:00180650       ?eraseInternal@?$PxHashBase@V?$PxPair@$$CBUPrunerPayload@Gu@physx@@UExtendedBucketPrunerData@23@@physx@@UPrunerPayload@Gu@2@UExtendedBucketPrunerHash@42@UGetKey@?$PxHashMapBase@UPrunerPayload@Gu@physx@@UExtendedBucketPrunerData@23@UExtendedBucketPrunerHash@23@VPxAllocator@3@@2@VPxAllocator@2@$00@physx@@AEAA_NPEAI@Z 0000000180181650 f i GuExtendedBucketPruner.obj
 0001:00180770       ?find@?$PxHashMapBase@UPrunerPayload@Gu@physx@@UExtendedBucketPrunerData@23@UExtendedBucketPrunerHash@23@VPxAllocator@3@@physx@@QEBAPEBV?$PxPair@$$CBUPrunerPayload@Gu@physx@@UExtendedBucketPrunerData@23@@2@AEBUPrunerPayload@Gu@2@@Z 0000000180181770 f i GuExtendedBucketPruner.obj
 0001:00180860       ?getGlobalBounds@ExtendedBucketPruner@Gu@physx@@QEBAXAEAVPxBounds3@3@@Z 0000000180181860 f   GuExtendedBucketPruner.obj
 0001:00180930       ?invalidateObject@ExtendedBucketPruner@Gu@physx@@AEAAXAEBUExtendedBucketPrunerData@23@IAEBUPrunerPayload@23@I@Z 0000000180181930 f   GuExtendedBucketPruner.obj
 0001:00180a70       ?overlap@ExtendedBucketPruner@Gu@physx@@QEBA_NAEBVShapeData@23@AEAUPrunerOverlapCallback@23@@Z 0000000180181a70 f   GuExtendedBucketPruner.obj
 0001:00181250       ?raycast@ExtendedBucketPruner@Gu@physx@@QEBA_NAEBV?$PxVec3T@M@3@0AEAMAEAUPrunerRaycastCallback@23@@Z 0000000180182250 f   GuExtendedBucketPruner.obj
 0001:00181330       ?refitMarkedNodes@ExtendedBucketPruner@Gu@physx@@QEAAXPEBVPxBounds3@3@@Z 0000000180182330 f   GuExtendedBucketPruner.obj
 0001:001818a0       ?release@ExtendedBucketPruner@Gu@physx@@QEAAXXZ 00000001801828a0 f   GuExtendedBucketPruner.obj
 0001:00181970       ?removeMarkedObjects@ExtendedBucketPruner@Gu@physx@@QEAAII@Z 0000000180182970 f   GuExtendedBucketPruner.obj
 0001:00181c90       ?removeObject@ExtendedBucketPruner@Gu@physx@@QEAA_NAEBUPrunerPayload@23@II0I@Z 0000000180182c90 f   GuExtendedBucketPruner.obj
 0001:00181e80       ?reserveInternal@?$PxHashBase@V?$PxPair@$$CBUPrunerPayload@Gu@physx@@UExtendedBucketPrunerData@23@@physx@@UPrunerPayload@Gu@2@UExtendedBucketPrunerHash@42@UGetKey@?$PxHashMapBase@UPrunerPayload@Gu@physx@@UExtendedBucketPrunerData@23@UExtendedBucketPrunerHash@23@VPxAllocator@3@@2@VPxAllocator@2@$00@physx@@AEAAXI@Z 0000000180182e80 f i GuExtendedBucketPruner.obj
 0001:00182080       ?shiftOrigin@ExtendedBucketPruner@Gu@physx@@QEAAXAEBV?$PxVec3T@M@3@@Z 0000000180183080 f   GuExtendedBucketPruner.obj
 0001:00182100       ?swapIndex@ExtendedBucketPruner@Gu@physx@@QEAAXIAEBUPrunerPayload@23@I_N@Z 0000000180183100 f   GuExtendedBucketPruner.obj
 0001:001821d0       ?sweep@ExtendedBucketPruner@Gu@physx@@QEBA_NAEBVShapeData@23@AEBV?$PxVec3T@M@3@AEAMAEAUPrunerRaycastCallback@23@@Z 00000001801831d0 f   GuExtendedBucketPruner.obj
 0001:00182360       ?updateObject@ExtendedBucketPruner@Gu@physx@@QEAA_NAEBVPxBounds3@3@AEBV?$PxTransformT@M@3@AEBUPrunerPayload@23@II@Z 0000000180183360 f   GuExtendedBucketPruner.obj
 0001:00182430       ?visualize@ExtendedBucketPruner@Gu@physx@@QEBAXAEAVPxRenderOutput@3@I@Z 0000000180183430 f   GuExtendedBucketPruner.obj
 0001:001824c0       ??0?$OBBAABBTests@$00@Gu@physx@@QEAA@AEBV?$PxVec3T@M@2@AEBV?$PxMat33T@M@2@0@Z 00000001801834c0 f i GuSecondaryPruner.obj
 0001:00184410       ??_ECompanionPruner@Gu@physx@@UEAAPEAXI@Z 0000000180185410 f i GuSecondaryPruner.obj
 0001:00184410       ??_GCompanionPruner@Gu@physx@@UEAAPEAXI@Z 0000000180185410 f i GuSecondaryPruner.obj
 0001:00184460       ??_ECompanionPrunerAABBTree@@UEAAPEAXI@Z 0000000180185460 f i GuSecondaryPruner.obj
 0001:00184460       ??_GCompanionPrunerAABBTree@@UEAAPEAXI@Z 0000000180185460 f i GuSecondaryPruner.obj
 0001:00184510       ??_ECompanionPrunerBucket@@UEAAPEAXI@Z 0000000180185510 f i GuSecondaryPruner.obj
 0001:00184510       ??_GCompanionPrunerBucket@@UEAAPEAXI@Z 0000000180185510 f i GuSecondaryPruner.obj
 0001:00184590       ??_ECompanionPrunerIncremental@@UEAAPEAXI@Z 0000000180185590 f i GuSecondaryPruner.obj
 0001:00184590       ??_GCompanionPrunerIncremental@@UEAAPEAXI@Z 0000000180185590 f i GuSecondaryPruner.obj
 0001:00184610       ?addObject@CompanionPrunerAABBTree@@UEAA_NAEBUPrunerPayload@Gu@physx@@IAEBVPxBounds3@4@AEBV?$PxTransformT@M@4@II@Z 0000000180185610 f   GuSecondaryPruner.obj
 0001:00184850       ?addObject@CompanionPrunerBucket@@UEAA_NAEBUPrunerPayload@Gu@physx@@IAEBVPxBounds3@4@AEBV?$PxTransformT@M@4@II@Z 0000000180185850 f i GuSecondaryPruner.obj
 0001:00184870       ?addObject@CompanionPrunerIncremental@@UEAA_NAEBUPrunerPayload@Gu@physx@@IAEBVPxBounds3@4@AEBV?$PxTransformT@M@4@II@Z 0000000180185870 f i GuSecondaryPruner.obj
 0001:00184890       ?addObjectInternal@CompanionPrunerAABBTree@@QEAA_NII@Z 0000000180185890 f   GuSecondaryPruner.obj
 0001:00184a30       ?build@CompanionPrunerAABBTree@@UEAAXXZ 0000000180185a30 f   GuSecondaryPruner.obj
 0001:00184f00       ?createCompanionPruner@Gu@physx@@YAPEAVCompanionPruner@12@_KW4CompanionPrunerType@12@PEBVPruningPool@12@@Z 0000000180185f00 f   GuSecondaryPruner.obj
 0001:00185100       ?getGlobalBounds@CompanionPrunerAABBTree@@UEBAXAEAVPxBounds3@physx@@@Z 0000000180186100 f   GuSecondaryPruner.obj
 0001:00185210       ?getGlobalBounds@CompanionPrunerBucket@@UEBAXAEAVPxBounds3@physx@@@Z 0000000180186210 f i GuSecondaryPruner.obj
 0001:00185220       ?getGlobalBounds@CompanionPrunerIncremental@@UEBAXAEAVPxBounds3@physx@@@Z 0000000180186220 f i GuSecondaryPruner.obj
 0001:00185230       ?getNbObjects@CompanionPrunerAABBTree@@UEBAIXZ 0000000180186230 f   GuSecondaryPruner.obj
 0001:00185240       ?getNbObjects@CompanionPrunerBucket@@UEBAIXZ 0000000180186240 f i GuSecondaryPruner.obj
 0001:00185250       ?getNbObjects@CompanionPrunerIncremental@@UEBAIXZ 0000000180186250 f i GuSecondaryPruner.obj
 0001:00185260       ?growAndPushBack@?$PxArray@ULocalData@CompanionPrunerAABBTree@@V?$PxReflectionAllocator@ULocalData@CompanionPrunerAABBTree@@@physx@@@physx@@IEAAAEAULocalData@CompanionPrunerAABBTree@@AEBU34@@Z 0000000180186260 f i GuSecondaryPruner.obj
 0001:00185380       ?overlap@CompanionPrunerAABBTree@@UEBA_NAEBVShapeData@Gu@physx@@AEAUPrunerOverlapCallback@34@@Z 0000000180186380 f   GuSecondaryPruner.obj
 0001:00186310       ?overlap@CompanionPrunerBucket@@UEBA_NAEBVShapeData@Gu@physx@@AEAUPrunerOverlapCallback@34@@Z 0000000180187310 f i GuSecondaryPruner.obj
 0001:00186330       ?overlap@CompanionPrunerIncremental@@UEBA_NAEBVShapeData@Gu@physx@@AEAUPrunerOverlapCallback@34@@Z 0000000180187330 f i GuSecondaryPruner.obj
 0001:00186350       ?raycast@CompanionPrunerAABBTree@@UEBA_NAEBV?$PxVec3T@M@physx@@0AEAMAEAUPrunerRaycastCallback@Gu@3@@Z 0000000180187350 f   GuSecondaryPruner.obj
 0001:00186730       ?raycast@CompanionPrunerBucket@@UEBA_NAEBV?$PxVec3T@M@physx@@0AEAMAEAUPrunerRaycastCallback@Gu@3@@Z 0000000180187730 f i GuSecondaryPruner.obj
 0001:00186750       ?raycast@CompanionPrunerIncremental@@UEBA_NAEBV?$PxVec3T@M@physx@@0AEAMAEAUPrunerRaycastCallback@Gu@3@@Z 0000000180187750 f i GuSecondaryPruner.obj
 0001:00186770       ?release@CompanionPrunerAABBTree@@UEAAXXZ 0000000180187770 f   GuSecondaryPruner.obj
 0001:00186780       ?release@CompanionPrunerBucket@@UEAAXXZ 0000000180187780 f i GuSecondaryPruner.obj
 0001:00186790       ?release@CompanionPrunerIncremental@@UEAAXXZ 0000000180187790 f i GuSecondaryPruner.obj
 0001:001867a0       ?releaseInternal@CompanionPrunerAABBTree@@QEAAXXZ 00000001801877a0 f   GuSecondaryPruner.obj
 0001:00186820       ?removeMarkedObjects@CompanionPrunerAABBTree@@UEAAII@Z 0000000180187820 f   GuSecondaryPruner.obj
 0001:00186840       ?removeMarkedObjects@CompanionPrunerBucket@@UEAAII@Z 0000000180187840 f i GuSecondaryPruner.obj
 0001:00186850       ?removeMarkedObjects@CompanionPrunerIncremental@@UEAAII@Z 0000000180187850 f i GuSecondaryPruner.obj
 0001:00186860       ?removeObject@CompanionPrunerAABBTree@@UEAA_NAEBUPrunerPayload@Gu@physx@@III@Z 0000000180187860 f   GuSecondaryPruner.obj
 0001:00186900       ?removeObject@CompanionPrunerBucket@@UEAA_NAEBUPrunerPayload@Gu@physx@@III@Z 0000000180187900 f i GuSecondaryPruner.obj
 0001:00186920       ?removeObject@CompanionPrunerIncremental@@UEAA_NAEBUPrunerPayload@Gu@physx@@III@Z 0000000180187920 f i GuSecondaryPruner.obj
 0001:00186940       ?shiftOrigin@CompanionPrunerAABBTree@@UEAAXAEBV?$PxVec3T@M@physx@@@Z 0000000180187940 f   GuSecondaryPruner.obj
 0001:00186a70       ?shiftOrigin@CompanionPrunerIncremental@@UEAAXAEBV?$PxVec3T@M@physx@@@Z 0000000180187a70 f i GuSecondaryPruner.obj
 0001:00186a80       ?swapIndex@CompanionPrunerIncremental@@UEAAXII@Z 0000000180187a80 f i GuSecondaryPruner.obj
 0001:00186a90       ?sweep@CompanionPrunerAABBTree@@UEBA_NAEBVShapeData@Gu@physx@@AEBV?$PxVec3T@M@4@AEAMAEAUPrunerRaycastCallback@34@@Z 0000000180187a90 f   GuSecondaryPruner.obj
 0001:00186fd0       ?sweep@CompanionPrunerBucket@@UEBA_NAEBVShapeData@Gu@physx@@AEBV?$PxVec3T@M@4@AEAMAEAUPrunerRaycastCallback@34@@Z 0000000180187fd0 f i GuSecondaryPruner.obj
 0001:00186ff0       ?sweep@CompanionPrunerIncremental@@UEBA_NAEBVShapeData@Gu@physx@@AEBV?$PxVec3T@M@4@AEAMAEAUPrunerRaycastCallback@34@@Z 0000000180187ff0 f i GuSecondaryPruner.obj
 0001:00187010       ?timeStampChange@CompanionPrunerIncremental@@UEAAXXZ 0000000180188010 f i GuSecondaryPruner.obj
 0001:00187030       ?updateObject@CompanionPrunerAABBTree@@UEAA_NAEBUPrunerPayload@Gu@physx@@IAEBVPxBounds3@4@AEBV?$PxTransformT@M@4@I@Z 0000000180188030 f   GuSecondaryPruner.obj
 0001:001870b0       ?updateObject@CompanionPrunerBucket@@UEAA_NAEBUPrunerPayload@Gu@physx@@IAEBVPxBounds3@4@AEBV?$PxTransformT@M@4@I@Z 00000001801880b0 f i GuSecondaryPruner.obj
 0001:001870d0       ?updateObject@CompanionPrunerIncremental@@UEAA_NAEBUPrunerPayload@Gu@physx@@IAEBVPxBounds3@4@AEBV?$PxTransformT@M@4@I@Z 00000001801880d0 f i GuSecondaryPruner.obj
 0001:001870e0       ?visualize@CompanionPrunerAABBTree@@UEBAXAEAVPxRenderOutput@physx@@I@Z 00000001801880e0 f   GuSecondaryPruner.obj
 0001:00187100       ?visualize@CompanionPrunerIncremental@@UEBAXAEAVPxRenderOutput@physx@@I@Z 0000000180188100 f i GuSecondaryPruner.obj
 0001:00187110       ??0AABBPruner@Gu@physx@@QEAA@_N_KW4CompanionPrunerType@12@W4BVHBuildStrategy@12@I@Z 0000000180188110 f   GuAABBPruner.obj
 0001:00187240       ??1AABBPruner@Gu@physx@@UEAA@XZ 0000000180188240 f   GuAABBPruner.obj
 0001:001873a0       ??_EAABBPruner@Gu@physx@@UEAAPEAXI@Z 00000001801883a0 f i GuAABBPruner.obj
 0001:001873a0       ??_GAABBPruner@Gu@physx@@UEAAPEAXI@Z 00000001801883a0 f i GuAABBPruner.obj
 0001:00187410       ?addObjects@AABBPruner@Gu@physx@@UEAA_NPEAIPEBVPxBounds3@3@PEBUPrunerPayload@23@PEBV?$PxTransformT@M@3@I_N@Z 0000000180188410 f   GuAABBPruner.obj
 0001:00187570       ?buildStep@AABBPruner@Gu@physx@@UEAA_N_N@Z 0000000180188570 f   GuAABBPruner.obj
 0001:001877a0       ?commit@AABBPruner@Gu@physx@@UEAAXXZ 00000001801887a0 f   GuAABBPruner.obj
 0001:00187b60       ?getGlobalBounds@AABBPruner@Gu@physx@@UEBAXAEAVPxBounds3@3@@Z 0000000180188b60 f   GuAABBPruner.obj
 0001:00187ca0       ?getPayloadData@AABBPruner@Gu@physx@@UEBAAEBUPrunerPayload@23@IPEAUPrunerPayloadData@23@@Z 0000000180188ca0 f i GuAABBPruner.obj
 0001:00187d00       ?growAndPushBack@?$PxArray@UNewTreeFixup@AABBPruner@Gu@physx@@V?$PxReflectionAllocator@UNewTreeFixup@AABBPruner@Gu@physx@@@4@@physx@@IEAAAEAUNewTreeFixup@AABBPruner@Gu@2@AEBU3452@@Z 0000000180188d00 f i GuAABBPruner.obj
 0001:00187e20       ?isDynamic@AABBPruner@Gu@physx@@UEBA_NXZ 0000000180188e20 f i GuAABBPruner.obj
 0001:00187e30       ?merge@AABBPruner@Gu@physx@@UEAAXPEBX@Z 0000000180188e30 f   GuAABBPruner.obj
 0001:00187eb0       ?overlap@AABBPruner@Gu@physx@@UEBA_NAEBVShapeData@23@AEAUPrunerOverlapCallback@23@@Z 0000000180188eb0 f   GuAABBPruner.obj
 0001:00188480       ?preallocate@AABBPruner@Gu@physx@@UEAAXI@Z 0000000180189480 f i GuAABBPruner.obj
 0001:00188490       ?prepareBuild@AABBPruner@Gu@physx@@UEAA_NXZ 0000000180189490 f   GuAABBPruner.obj
 0001:00188620       ?purge@AABBPruner@Gu@physx@@UEAAXXZ 0000000180189620 f   GuAABBPruner.obj
 0001:00188640       ?raycast@AABBPruner@Gu@physx@@UEBA_NAEBV?$PxVec3T@M@3@0AEAMAEAUPrunerRaycastCallback@23@@Z 0000000180189640 f   GuAABBPruner.obj
 0001:00188730       ?release@AABBPruner@Gu@physx@@QEAAXXZ 0000000180189730 f   GuAABBPruner.obj
 0001:00188860       ?removeObjects@AABBPruner@Gu@physx@@UEAAXPEBIIPEAUPrunerPayloadRemovalCallback@23@@Z 0000000180189860 f   GuAABBPruner.obj
 0001:00188a50       ?setRebuildRateHint@AABBPruner@Gu@physx@@UEAAXI@Z 0000000180189a50 f   GuAABBPruner.obj
 0001:00188a70       ?setTransform@AABBPruner@Gu@physx@@UEAA_NIAEBV?$PxTransformT@M@3@@Z 0000000180189a70 f i GuAABBPruner.obj
 0001:00188ad0       ?shiftOrigin@AABBPruner@Gu@physx@@UEAAXAEBV?$PxVec3T@M@3@@Z 0000000180189ad0 f   GuAABBPruner.obj
 0001:00188b40       ?sweep@AABBPruner@Gu@physx@@UEBA_NAEBVShapeData@23@AEBV?$PxVec3T@M@3@AEAMAEAUPrunerRaycastCallback@23@@Z 0000000180189b40 f   GuAABBPruner.obj
 0001:00188cd0       ?updateObjects@AABBPruner@Gu@physx@@UEAAXPEBIIM0PEBVPxBounds3@3@PEBUPxTransformPadded@3@@Z 0000000180189cd0 f   GuAABBPruner.obj
 0001:00188e70       ?visualize@AABBPruner@Gu@physx@@UEBAXAEAVPxRenderOutput@3@II@Z 0000000180189e70 f   GuAABBPruner.obj
 0001:00188f20       ??0ActorShapeMap@Gu@physx@@QEAA@XZ 0000000180189f20 f   GuActorShapeMap.obj
 0001:00188f80       ??1ActorShapeMap@Gu@physx@@QEAA@XZ 0000000180189f80 f   GuActorShapeMap.obj
 0001:00188fe0       ?add@ActorShapeMap@Gu@physx@@QEAA_NIPEBX0_K@Z 0000000180189fe0 f   GuActorShapeMap.obj
 0001:00189180       ?create@?$PxHashBase@V?$PxPair@$$CBUActorShape@ActorShapeMap@Gu@physx@@_K@physx@@UActorShape@ActorShapeMap@Gu@2@U?$PxHash@UActorShape@ActorShapeMap@Gu@physx@@@2@UGetKey@?$PxHashMapBase@UActorShape@ActorShapeMap@Gu@physx@@_KU?$PxHash@UActorShape@ActorShapeMap@Gu@physx@@@4@VPxAllocator@4@@2@VPxAllocator@2@$00@physx@@QEAAPEAV?$PxPair@$$CBUActorShape@ActorShapeMap@Gu@physx@@_K@2@AEBUActorShape@ActorShapeMap@Gu@2@AEA_N@Z 000000018018a180 f i GuActorShapeMap.obj
 0001:00189370       ?eraseInternal@?$PxHashBase@V?$PxPair@$$CBUActorShape@ActorShapeMap@Gu@physx@@_K@physx@@UActorShape@ActorShapeMap@Gu@2@U?$PxHash@UActorShape@ActorShapeMap@Gu@physx@@@2@UGetKey@?$PxHashMapBase@UActorShape@ActorShapeMap@Gu@physx@@_KU?$PxHash@UActorShape@ActorShapeMap@Gu@physx@@@4@VPxAllocator@4@@2@VPxAllocator@2@$00@physx@@AEAA_NPEAI@Z 000000018018a370 f i GuActorShapeMap.obj
 0001:00189480       ?find@ActorShapeMap@Gu@physx@@QEBA_KIPEBX0@Z 000000018018a480 f   GuActorShapeMap.obj
 0001:00189570       ?remove@ActorShapeMap@Gu@physx@@QEAA_NIPEBX0PEA_K@Z 000000018018a570 f   GuActorShapeMap.obj
 0001:001896c0       ?reserveInternal@?$PxHashBase@V?$PxPair@$$CBUActorShape@ActorShapeMap@Gu@physx@@_K@physx@@UActorShape@ActorShapeMap@Gu@2@U?$PxHash@UActorShape@ActorShapeMap@Gu@physx@@@2@UGetKey@?$PxHashMapBase@UActorShape@ActorShapeMap@Gu@physx@@_KU?$PxHash@UActorShape@ActorShapeMap@Gu@physx@@@4@VPxAllocator@4@@2@VPxAllocator@2@$00@physx@@AEAAXI@Z 000000018018a6c0 f i GuActorShapeMap.obj
 0001:001898d0       ??0QuerySystem@Gu@physx@@QEAA@_KMAEBVAdapter@12@_N@Z 000000018018a8d0 f   GuQuerySystem.obj
 0001:001899a0       ??1QuerySystem@Gu@physx@@QEAA@XZ 000000018018a9a0 f   GuQuerySystem.obj
 0001:00189bf0       ??_GPrunerExt@QuerySystem@Gu@physx@@QEAAPEAXI@Z 000000018018abf0 f i GuQuerySystem.obj
 0001:00189d00       ?addPruner@QuerySystem@Gu@physx@@QEAAIPEAVPruner@23@I@Z 000000018018ad00 f   GuQuerySystem.obj
 0001:00189e20       ?addPrunerShape@QuerySystem@Gu@physx@@QEAA_KAEBUPrunerPayload@23@I_NAEBV?$PxTransformT@M@3@PEBVPxBounds3@3@@Z 000000018018ae20 f   GuQuerySystem.obj
 0001:00189f60       ?addToDirtyList@PrunerExt@QuerySystem@Gu@physx@@QEAAXIIAEBV?$PxTransformT@M@4@PEBVPxBounds3@4@@Z 000000018018af60 f   GuQuerySystem.obj
 0001:0018a1b0       ?commitUpdates@QuerySystem@Gu@physx@@QEAAXXZ 000000018018b1b0 f   GuQuerySystem.obj
 0001:0018a260       ?createTreeOfPruners@QuerySystem@Gu@physx@@QEAAXXZ 000000018018b260 f   GuQuerySystem.obj
 0001:0018a3c0       ?flushMemory@QuerySystem@Gu@physx@@QEAAXXZ 000000018018b3c0 f   GuQuerySystem.obj
 0001:0018a450       ?getPayloadData@QuerySystem@Gu@physx@@QEBAAEBUPrunerPayload@23@_KPEAUPrunerPayloadData@23@@Z 000000018018b450 f   GuQuerySystem.obj
 0001:0018a470       ?growAndPushBack@?$PxArray@PEAUPrunerExt@QuerySystem@Gu@physx@@V?$PxReflectionAllocator@PEAUPrunerExt@QuerySystem@Gu@physx@@@4@@physx@@IEAAAEAPEAUPrunerExt@QuerySystem@Gu@2@AEBQEAU3452@@Z 000000018018b470 f i GuQuerySystem.obj
 0001:0018a590       ?overlap@QuerySystem@Gu@physx@@QEBAXAEBVShapeData@23@AEAUPrunerOverlapCallback@23@PEBVPrunerFilter@23@@Z 000000018018b590 f   GuQuerySystem.obj
 0001:0018a690       ?processDirtyLists@QuerySystem@Gu@physx@@AEAAXXZ 000000018018b690 f   GuQuerySystem.obj
 0001:0018a970       ?raycast@QuerySystem@Gu@physx@@QEBAXAEBV?$PxVec3T@M@3@0AEAMAEAUPrunerRaycastCallback@23@PEBVPrunerFilter@23@@Z 000000018018b970 f   GuQuerySystem.obj
 0001:0018aab0       ?recreate@?$PxArray@UData@PrunerExt@QuerySystem@Gu@physx@@V?$PxReflectionAllocator@UData@PrunerExt@QuerySystem@Gu@physx@@@5@@physx@@IEAAXI@Z 000000018018bab0 f i GuQuerySystem.obj
 0001:0018ada0       ?removePruner@QuerySystem@Gu@physx@@QEAAXI@Z 000000018018bda0 f   GuQuerySystem.obj
 0001:0018ae80       ?removePrunerShape@QuerySystem@Gu@physx@@QEAAX_KPEAUPrunerPayloadRemovalCallback@23@@Z 000000018018be80 f   GuQuerySystem.obj
 0001:0018b0b0       ?sweep@QuerySystem@Gu@physx@@QEBAXAEBVShapeData@23@AEBV?$PxVec3T@M@3@AEAMAEAUPrunerRaycastCallback@23@PEBVPrunerFilter@23@@Z 000000018018c0b0 f   GuQuerySystem.obj
 0001:0018b1e0       ?sync@QuerySystem@Gu@physx@@QEAAXIPEBI0PEBVPxBounds3@3@PEBUPxTransformPadded@3@I@Z 000000018018c1e0 f   GuQuerySystem.obj
 0001:0018b290       ?update@QuerySystem@Gu@physx@@QEAAX_N0@Z 000000018018c290 f   GuQuerySystem.obj
 0001:0018b360       ?updatePrunerShape@QuerySystem@Gu@physx@@QEAAX_K_NAEBV?$PxTransformT@M@3@PEBVPxBounds3@3@@Z 000000018018c360 f   GuQuerySystem.obj
 0001:0018b550       createAABBPruner           000000018018c550 f   GuFactory.obj
 0001:0018b610       createBucketPruner         000000018018c610 f   GuFactory.obj
 0001:0018b6a0       createIncrementalPruner    000000018018c6a0 f   GuFactory.obj
 0001:0018b730       ??$PxSmallSort@I$$CBUSortBoundsPredicate@physx@@@physx@@YAXPEAIHHAEBUSortBoundsPredicate@0@@Z 000000018018c730 f i GuRTreeCooking.obj
 0001:0018b9d0       ??$PxSort@IU?$PxLess@I@physx@@V?$PxReflectionAllocator@I@2@@physx@@YAXPEAIIAEBU?$PxLess@I@0@AEBV?$PxReflectionAllocator@I@0@I@Z 000000018018c9d0 f i GuRTreeCooking.obj
 0001:0018be20       ??$PxSort@IUSortBoundsPredicate@physx@@V?$PxReflectionAllocator@I@2@@physx@@YAXPEAIIAEBUSortBoundsPredicate@0@AEBV?$PxReflectionAllocator@I@0@I@Z 000000018018ce20 f i GuRTreeCooking.obj
 0001:0018c2d0       ??$quickSelectFirstK@UBoundsLTE@physx@@@quickSelect@physx@@YAXPEIAIIIIAEBUBoundsLTE@1@@Z 000000018018d2d0 f i GuRTreeCooking.obj
 0001:0018c4b0       ?allocate@?$PxArray@UInterval@physx@@V?$PxInlineAllocator@$0CAAA@V?$PxReflectionAllocator@UInterval@physx@@@physx@@@2@@physx@@IEAAPEAUInterval@2@I@Z 000000018018d4b0 f i GuRTreeCooking.obj
 0001:0018c570       ?allocate@?$PxArray@UPxBounds3V@physx@@V?$PxReflectionAllocator@UPxBounds3V@physx@@@2@@physx@@IEAAPEAUPxBounds3V@2@I@Z 000000018018d570 f i GuRTreeCooking.obj
 0001:0018c600       ?allocate@?$PxArray@URTreeNodeNQ@physx@@V?$PxReflectionAllocator@URTreeNodeNQ@physx@@@2@@physx@@IEAAPEAURTreeNodeNQ@2@I@Z 000000018018d600 f i GuRTreeCooking.obj
 0001:0018c690       ?allocate@?$PxArray@URTreeNodeQ@Gu@physx@@V?$PxReflectionAllocator@URTreeNodeQ@Gu@physx@@@3@@physx@@IEAAPEAURTreeNodeQ@Gu@2@I@Z 000000018018d690 f i GuRTreeCooking.obj
 0001:0018d3a0       ?buildFromTriangles@RTreeCooker@physx@@SAXAEAURTree@Gu@2@PEBV?$PxVec3T@M@2@IPEBGPEBIIAEAV?$PxArray@IV?$PxReflectionAllocator@I@physx@@@2@PEAURemapCallback@12@MW4Enum@PxMeshCookingHint@2@@Z 000000018018e3a0 f   GuRTreeCooking.obj
 0001:0018d660       ?copy@?$PxArray@URTreeNodeNQ@physx@@V?$PxReflectionAllocator@URTreeNodeNQ@physx@@@2@@physx@@KAXPEAURTreeNodeNQ@2@0PEBU32@@Z 000000018018e660 f i GuRTreeCooking.obj
 0001:0018d820       ?growAndPushBack@?$PxArray@UInterval@physx@@V?$PxInlineAllocator@$0CAAA@V?$PxReflectionAllocator@UInterval@physx@@@physx@@@2@@physx@@IEAAAEAUInterval@2@AEBU32@@Z 000000018018e820 f i GuRTreeCooking.obj
 0001:0018d900       ?growAndPushBack@?$PxArray@UPxBounds3V@physx@@V?$PxReflectionAllocator@UPxBounds3V@physx@@@2@@physx@@IEAAAEAUPxBounds3V@2@AEBU32@@Z 000000018018e900 f i GuRTreeCooking.obj
 0001:0018d9e0       ?growAndPushBack@?$PxArray@URTreeNodeNQ@physx@@V?$PxReflectionAllocator@URTreeNodeNQ@physx@@@2@@physx@@IEAAAEAURTreeNodeNQ@2@AEBU32@@Z 000000018018e9e0 f i GuRTreeCooking.obj
 0001:0018dac0       ?growAndPushBack@?$PxArray@URTreeNodeQ@Gu@physx@@V?$PxReflectionAllocator@URTreeNodeQ@Gu@physx@@@3@@physx@@IEAAAEAURTreeNodeQ@Gu@2@AEBU342@@Z 000000018018eac0 f i GuRTreeCooking.obj
 0001:0018dbb0       ?recreate@?$PxArray@UPxBounds3V@physx@@V?$PxReflectionAllocator@UPxBounds3V@physx@@@2@@physx@@IEAAXI@Z 000000018018ebb0 f i GuRTreeCooking.obj
 0001:0018dc60       ?recreate@?$PxArray@URTreeNodeNQ@physx@@V?$PxReflectionAllocator@URTreeNodeNQ@physx@@@2@@physx@@IEAAXI@Z 000000018018ec60 f i GuRTreeCooking.obj
 0001:0018dcf0       ?recreate@?$PxArray@URTreeNodeQ@Gu@physx@@V?$PxReflectionAllocator@URTreeNodeQ@Gu@physx@@@3@@physx@@IEAAXI@Z 000000018018ecf0 f i GuRTreeCooking.obj
 0001:0018ddb0       ?resizeUninitialized@?$PxArray@URTreeNodeNQ@physx@@V?$PxReflectionAllocator@URTreeNodeNQ@physx@@@2@@physx@@QEAAXI@Z 000000018018edb0 f i GuRTreeCooking.obj
 0001:0018ddf0       ?sort4@SubSortQuick@physx@@QEAAXPEIAIIAEAV?$PxArray@URTreeNodeNQ@physx@@V?$PxReflectionAllocator@URTreeNodeNQ@physx@@@2@@2@AEAIAEAUPxBounds3V@2@I@Z 000000018018edf0 f i GuRTreeCooking.obj
 0001:0018e180       ?sort4@SubSortSAH@physx@@QEAAXPEAIIAEAV?$PxArray@URTreeNodeNQ@physx@@V?$PxReflectionAllocator@URTreeNodeNQ@physx@@@2@@2@AEAIIPEAURTreeNodeNQ@2@@Z 000000018018f180 f i GuRTreeCooking.obj
 0001:0018e9e0       ?split@SubSortSAH@physx@@QEAAIPEAII@Z 000000018018f9e0 f i GuRTreeCooking.obj
 0001:0018f460       cookBVH                    0000000180190460 f   GuCookingBVH.obj
 0001:0018f5f0       createBVH                  00000001801905f0 f   GuCookingBVH.obj
 0001:0018f780       cookHeightField            0000000180190780 f   GuCookingHF.obj
 0001:0018f890       createHeightField          0000000180190890 f   GuCookingHF.obj
 0001:0018ff20       ?isFinite@?$PxVec3T@M@physx@@QEBA_NXZ 0000000180190f20 f i GuCookingConvexMesh.obj
 0001:0018ff80       computeHullPolygons        0000000180190f80 f   GuCookingConvexMesh.obj
 0001:00190160       cookConvexMesh             0000000180191160 f   GuCookingConvexMesh.obj
 0001:001902d0       createConvexMesh           00000001801912d0 f   GuCookingConvexMesh.obj
 0001:00190470       validateConvexMesh         0000000180191470 f   GuCookingConvexMesh.obj
 0001:00190590       ??1BV4TriangleMeshBuilder@physx@@UEAA@XZ 0000000180191590 f   GuCookingTriangleMesh.obj
 0001:00190620       ??1RTreeTriangleMeshBuilder@physx@@UEAA@XZ 0000000180191620 f   GuCookingTriangleMesh.obj
 0001:00190690       ??_EBV4TriangleMeshBuilder@physx@@UEAAPEAXI@Z 0000000180191690 f i GuCookingTriangleMesh.obj
 0001:00190690       ??_GBV4TriangleMeshBuilder@physx@@UEAAPEAXI@Z 0000000180191690 f i GuCookingTriangleMesh.obj
 0001:001906d0       ??_ERTreeTriangleMeshBuilder@physx@@UEAAPEAXI@Z 00000001801916d0 f i GuCookingTriangleMesh.obj
 0001:001906d0       ??_GRTreeTriangleMeshBuilder@physx@@UEAAPEAXI@Z 00000001801916d0 f i GuCookingTriangleMesh.obj
 0001:00190710       ??_ETriangleMeshBuilder@physx@@UEAAPEAXI@Z 0000000180191710 f i GuCookingTriangleMesh.obj
 0001:00190710       ??_GTriangleMeshBuilder@physx@@UEAAPEAXI@Z 0000000180191710 f i GuCookingTriangleMesh.obj
 0001:001910d0       ?buildInertiaTensor@TriangleMeshBuilder@physx@@IEAAX_N@Z 00000001801920d0 f   GuCookingTriangleMesh.obj
 0001:00191230       ?buildInertiaTensorFromSDF@TriangleMeshBuilder@physx@@IEAAXXZ 0000000180192230 f   GuCookingTriangleMesh.obj
 0001:00191470       ?cleanMesh@TriangleMeshBuilder@physx@@QEAA_N_NPEAW4Enum@PxTriangleMeshCookingResult@2@@Z 0000000180192470 f   GuCookingTriangleMesh.obj
 0001:00191960       ?createGRBMidPhaseAndData@TriangleMeshBuilder@physx@@QEAA_NI@Z 0000000180192960 f   GuCookingTriangleMesh.obj
 0001:00191b10       ?createMidPhaseStructure@BV32TriangleMeshBuilder@physx@@SA_NAEBUPxCookingParams@2@AEAVTriangleMeshData@Gu@2@AEAVBV32Tree@52@@Z 0000000180192b10 f   GuCookingTriangleMesh.obj
 0001:00191d60       ?createMidPhaseStructure@BV4TriangleMeshBuilder@physx@@UEAA_NXZ 0000000180192d60 f   GuCookingTriangleMesh.obj
 0001:00192020       ?createMidPhaseStructure@RTreeTriangleMeshBuilder@physx@@UEAA_NXZ 0000000180193020 f   GuCookingTriangleMesh.obj
 0001:00192110       ?createSharedEdgeData@TriangleMeshBuilder@physx@@QEAAX_N0@Z 0000000180193110 f   GuCookingTriangleMesh.obj
 0001:001927c0       ?createVertMapping@TriangleMeshBuilder@physx@@QEAAXXZ 00000001801937c0 f   GuCookingTriangleMesh.obj
 0001:00192b20       ?importMesh@TriangleMeshBuilder@physx@@IEAA_NAEBVPxTriangleMeshDesc@2@PEAW4Enum@PxTriangleMeshCookingResult@2@_N@Z 0000000180193b20 f   GuCookingTriangleMesh.obj
 0001:00192fe0       ?isValid@PxTriangleMeshDesc@physx@@QEBA_NXZ 0000000180193fe0 f i GuCookingTriangleMesh.obj
 0001:001930b0       ?loadFromDescInternal@TriangleMeshBuilder@physx@@IEAA_NAEAVPxTriangleMeshDesc@2@PEAW4Enum@PxTriangleMeshCookingResult@2@_N@Z 00000001801940b0 f   GuCookingTriangleMesh.obj
 0001:001932d0       ?onMeshIndexFormatChange@BV4TriangleMeshBuilder@physx@@UEAAXXZ 00000001801942d0 f   GuCookingTriangleMesh.obj
 0001:00193310       ?remap@RTreeCookerRemap@@UEAAXPEAIII@Z 0000000180194310 f i GuCookingTriangleMesh.obj
 0001:00193330       ?remapTopology@TriangleMeshBuilder@physx@@QEAAXPEBI@Z 0000000180194330 f   GuCookingTriangleMesh.obj
 0001:001935d0       ?save@TriangleMeshBuilder@physx@@QEBA_NAEAVPxOutputStream@2@_NAEBUPxCookingParams@2@@Z 00000001801945d0 f   GuCookingTriangleMesh.obj
 0001:00193d80       ?saveMidPhaseStructure@BV32TriangleMeshBuilder@physx@@SAXPEAVBV32Tree@Gu@2@AEAVPxOutputStream@2@_N@Z 0000000180194d80 f   GuCookingTriangleMesh.obj
 0001:00193f80       ?saveMidPhaseStructure@BV4TriangleMeshBuilder@physx@@UEBAXAEAVPxOutputStream@2@_N@Z 0000000180194f80 f   GuCookingTriangleMesh.obj
 0001:00194130       ?saveMidPhaseStructure@RTreeTriangleMeshBuilder@physx@@UEBAXAEAVPxOutputStream@2@_N@Z 0000000180195130 f   GuCookingTriangleMesh.obj
 0001:00194370       cookTriangleMesh           0000000180195370 f   GuCookingTriangleMesh.obj
 0001:00194680       createTriangleMesh         0000000180195680 f   GuCookingTriangleMesh.obj
 0001:001948a0       validateTriangleMesh       00000001801958a0 f   GuCookingTriangleMesh.obj
 0001:00194b60       ??0SoftBodyCollisionData@Gu@physx@@QEAA@XZ 0000000180195b60 f i GuCookingTetrahedronMesh.obj
 0001:00194bc0       ??_ECollisionTetrahedronMeshData@Gu@physx@@UEAAPEAXI@Z 0000000180195bc0 f i GuCookingTetrahedronMesh.obj
 0001:00194bc0       ??_GCollisionTetrahedronMeshData@Gu@physx@@UEAAPEAXI@Z 0000000180195bc0 f i GuCookingTetrahedronMesh.obj
 0001:00194c90       ??_EPxCollisionTetrahedronMeshData@physx@@UEAAPEAXI@Z 0000000180195c90 f i GuCookingTetrahedronMesh.obj
 0001:00194c90       ??_GPxCollisionTetrahedronMeshData@physx@@UEAAPEAXI@Z 0000000180195c90 f i GuCookingTetrahedronMesh.obj
 0001:00194ce0       ??_EPxSimulationTetrahedronMeshData@physx@@UEAAPEAXI@Z 0000000180195ce0 f i GuCookingTetrahedronMesh.obj
 0001:00194ce0       ??_GPxSimulationTetrahedronMeshData@physx@@UEAAPEAXI@Z 0000000180195ce0 f i GuCookingTetrahedronMesh.obj
 0001:00194d30       ??_ESimulationTetrahedronMeshData@Gu@physx@@UEAAPEAXI@Z 0000000180195d30 f i GuCookingTetrahedronMesh.obj
 0001:00194d30       ??_GSimulationTetrahedronMeshData@Gu@physx@@UEAAPEAXI@Z 0000000180195d30 f i GuCookingTetrahedronMesh.obj
 0001:00194e00       ?combineGridModelPartitions@@YAXAEBVTetrahedronMeshData@Gu@physx@@AEAVSoftBodySimulationData@23@PEAPEAI@Z 0000000180195e00 f   GuCookingTetrahedronMesh.obj
 0001:00195650       ?combineGridModelPartitionsHexMesh@@YAXAEBVTetrahedronMeshData@Gu@physx@@AEAVSoftBodySimulationData@23@PEAPEAII@Z 0000000180196650 f   GuCookingTetrahedronMesh.obj
 0001:00196090       ?computeCollisionData@TetrahedronMeshBuilder@physx@@SA_NAEBVPxTetrahedronMeshDesc@2@AEAVTetrahedronMeshData@Gu@2@AEAVSoftBodyCollisionData@52@AEBUPxCookingParams@2@_N@Z 0000000180197090 f   GuCookingTetrahedronMesh.obj
 0001:001962d0       ?computeGridModelTetrahedronPartitions@@YAPEAIAEBVTetrahedronMeshData@Gu@physx@@AEAVSoftBodySimulationData@23@@Z 00000001801972d0 f   GuCookingTetrahedronMesh.obj
 0001:00196770       ?computeModelsMapping@TetrahedronMeshBuilder@physx@@SAXAEAVTetrahedronMeshData@Gu@2@AEBV342@AEBVSoftBodyCollisionData@42@AEAVCollisionMeshMappingData@42@_NPEBUPxBoundedData@2@@Z 0000000180197770 f   GuCookingTetrahedronMesh.obj
 0001:00197380       ?computeRestPoseAndPointMass@@YAXPEAU?$TetrahedronT@I@Gu@physx@@IPEBV?$PxVec3T@M@3@PEAMPEAV?$PxMat33T@M@3@@Z 0000000180198380 f   GuCookingTetrahedronMesh.obj
 0001:001978d0       ?computeSimData@TetrahedronMeshBuilder@physx@@SAXAEBVPxTetrahedronMeshDesc@2@AEAVTetrahedronMeshData@Gu@2@AEAVSoftBodySimulationData@52@AEBUPxCookingParams@2@@Z 00000001801988d0 f   GuCookingTetrahedronMesh.obj
 0001:00197fa0       ?computeTetData@TetrahedronMeshBuilder@physx@@SAXAEBVPxTetrahedronMeshDesc@2@AEAVTetrahedronMeshData@Gu@2@@Z 0000000180198fa0 f   GuCookingTetrahedronMesh.obj
 0001:00198090       ?computeTetrahedronPartition@@YAIPEBU?$TetrahedronT@I@Gu@physx@@IPEAII@Z 0000000180199090 f   GuCookingTetrahedronMesh.obj
 0001:00198180       ?createCollisionModelMapping@TetrahedronMeshBuilder@physx@@SAXAEBVTetrahedronMeshData@Gu@2@AEBVSoftBodyCollisionData@42@AEAVCollisionMeshMappingData@42@@Z 0000000180199180 f   GuCookingTetrahedronMesh.obj
 0001:00198760       ?createGRBMidPhaseAndData@TetrahedronMeshBuilder@physx@@SA_NIAEAVTetrahedronMeshData@Gu@2@AEAVSoftBodyCollisionData@42@AEBUPxCookingParams@2@@Z 0000000180199760 f   GuCookingTetrahedronMesh.obj
 0001:001994b0       ?createMidPhaseStructure@BV32TetrahedronMeshBuilder@physx@@SA_NAEBUPxCookingParams@2@AEAVTetrahedronMeshData@Gu@2@AEAVBV32Tree@52@AEAVSoftBodyCollisionData@52@@Z 000000018019a4b0 f   GuCookingTetrahedronMesh.obj
 0001:00199780       ?createMidPhaseStructure@TetrahedronMeshBuilder@physx@@SA_NAEAVTetrahedronMeshData@Gu@2@AEAVSoftBodyCollisionData@42@AEBUPxCookingParams@2@@Z 000000018019a780 f   GuCookingTetrahedronMesh.obj
 0001:0019a450       ?getData@CollisionTetrahedronMeshData@Gu@physx@@UEAAPEAVPxSoftBodyCollisionData@3@XZ 000000018019b450 f i GuCookingTetrahedronMesh.obj
 0001:0019a450       ?getData@CollisionTetrahedronMeshData@Gu@physx@@UEBAPEBVPxSoftBodyCollisionData@3@XZ 000000018019b450 f i GuCookingTetrahedronMesh.obj
 0001:0019a450       ?getData@SimulationTetrahedronMeshData@Gu@physx@@UEAAPEAVPxSoftBodySimulationData@3@XZ 000000018019b450 f i GuCookingTetrahedronMesh.obj
 0001:0019a470       ?importMesh@TetrahedronMeshBuilder@physx@@SA_NAEBVPxTetrahedronMeshDesc@2@AEBUPxCookingParams@2@AEAVTetrahedronMeshData@Gu@2@AEAVSoftBodyCollisionData@62@_N@Z 000000018019b470 f   GuCookingTetrahedronMesh.obj
 0001:0019a770       ?isValid@PxTetrahedronMeshDesc@physx@@QEBA_NXZ 000000018019b770 f i GuCookingTetrahedronMesh.obj
 0001:0019a7f0       ?loadFromDesc@TetrahedronMeshBuilder@physx@@SA_NAEBVPxTetrahedronMeshDesc@2@0VPxSoftBodySimulationDataDesc@2@AEAVTetrahedronMeshData@Gu@2@AEAVSoftBodySimulationData@62@2AEAVSoftBodyCollisionData@62@AEAVCollisionMeshMappingData@62@AEBUPxCookingParams@2@_N@Z 000000018019b7f0 f   GuCookingTetrahedronMesh.obj
 0001:0019a960       ?release@CollisionTetrahedronMeshData@Gu@physx@@UEAAXXZ 000000018019b960 f i GuCookingTetrahedronMesh.obj
 0001:0019a980       ?reserveInternal@?$PxHashBase@V?$PxPair@$$CBVSortedTriangleInds@@I@physx@@VSortedTriangleInds@@USortedTriangleIndsHash@@UGetKey@?$PxHashMapBase@VSortedTriangleInds@@IUSortedTriangleIndsHash@@VPxAllocator@physx@@@2@VPxAllocator@2@$00@physx@@AEAAXI@Z 000000018019b980 f i GuCookingTetrahedronMesh.obj
 0001:0019abc0       ?saveSoftBodyMeshData@TetrahedronMeshBuilder@physx@@SA_NAEAVPxOutputStream@2@_NAEBUPxCookingParams@2@AEBVTetrahedronMeshData@Gu@2@AEBVSoftBodySimulationData@62@3AEBVSoftBodyCollisionData@62@AEBVCollisionMeshMappingData@62@@Z 000000018019bbc0 f   GuCookingTetrahedronMesh.obj
 0001:0019b2d0       ?saveTetrahedronMeshData@TetrahedronMeshBuilder@physx@@SA_NAEAVPxOutputStream@2@_NAEBUPxCookingParams@2@AEBVTetrahedronMeshData@Gu@2@@Z 000000018019c2d0 f   GuCookingTetrahedronMesh.obj
 0001:0019b480       ?smoothMassRatiosWhilePreservingTotalMass@@YAXPEAMIPEBIHMM@Z 000000018019c480 f   GuCookingTetrahedronMesh.obj
 0001:0019b920       ?support@?$LocalConvex@VTetrahedronV@Gu@physx@@@Gu@physx@@UEBA?AT__m128@@AEBT4@@Z 000000018019c920 f i GuCookingTetrahedronMesh.obj
 0001:0019b9e0       ?support@?$LocalConvex@VTetrahedronV@Gu@physx@@@Gu@physx@@UEBA?AT__m128@@AEBT4@AEAH@Z 000000018019c9e0 f i GuCookingTetrahedronMesh.obj
 0001:0019bb90       assembleSoftBodyMesh       000000018019cb90 f   GuCookingTetrahedronMesh.obj
 0001:0019bbf0       assembleSoftBodyMesh_Sim   000000018019cbf0 f   GuCookingTetrahedronMesh.obj
 0001:0019bca0       computeCollisionData       000000018019cca0 f   GuCookingTetrahedronMesh.obj
 0001:0019bea0       computeModelsMapping       000000018019cea0 f   GuCookingTetrahedronMesh.obj
 0001:0019bfa0       computeSimulationData      000000018019cfa0 f   GuCookingTetrahedronMesh.obj
 0001:0019c170       cookSoftBodyMesh           000000018019d170 f   GuCookingTetrahedronMesh.obj
 0001:0019c790       cookTetrahedronMesh        000000018019d790 f   GuCookingTetrahedronMesh.obj
 0001:0019c890       createSoftBodyMesh         000000018019d890 f   GuCookingTetrahedronMesh.obj
 0001:0019cf30       createTetrahedronMesh      000000018019df30 f   GuCookingTetrahedronMesh.obj
 0001:0019ec20       ?computeVolumeIntegrals@physx@@YA_NAEBVPxSimpleTriangleMesh@1@MAEAUPxIntegrals@1@@Z 000000018019fc20 f   GuCookingVolumeIntegration.obj
 0001:0019ec60       ?computeVolumeIntegralsEberly@physx@@YA_NAEBVPxConvexMeshDesc@1@MAEAUPxIntegrals@1@AEBV?$PxVec3T@M@1@_N@Z 000000018019fc60 f   GuCookingVolumeIntegration.obj
 0001:0019f2c0       ??0QuickHull@local@@QEAA@AEBUPxCookingParams@physx@@AEBVPxConvexMeshDesc@3@@Z 00000001801a02c0 f   GuCookingQuickHullConvexHullLib.obj
 0001:0019f370       ??0QuickHullConvexHullLib@physx@@QEAA@AEBVPxConvexMeshDesc@1@AEBUPxCookingParams@1@@Z 00000001801a0370 f   GuCookingQuickHullConvexHullLib.obj
 0001:0019f450       ??1?$MemBlock@UQuickHullFace@local@@$00@local@@QEAA@XZ 00000001801a0450 f i GuCookingQuickHullConvexHullLib.obj
 0001:0019f450       ??1?$MemBlock@UQuickHullHalfEdge@local@@$0A@@local@@QEAA@XZ 00000001801a0450 f i GuCookingQuickHullConvexHullLib.obj
 0001:0019f510       ??1QuickHull@local@@QEAA@XZ 00000001801a0510 f   GuCookingQuickHullConvexHullLib.obj
 0001:0019f670       ??_GConvexHull@physx@@QEAAPEAXI@Z 00000001801a0670 f i GuCookingQuickHullConvexHullLib.obj
 0001:0019f760       ??_EConvexHullLib@physx@@UEAAPEAXI@Z 00000001801a0760 f i GuCookingQuickHullConvexHullLib.obj
 0001:0019f760       ??_GConvexHullLib@physx@@UEAAPEAXI@Z 00000001801a0760 f i GuCookingQuickHullConvexHullLib.obj
 0001:0019f7a0       ??_EQuickHullConvexHullLib@physx@@UEAAPEAXI@Z 00000001801a07a0 f i GuCookingQuickHullConvexHullLib.obj
 0001:0019f7a0       ??_GQuickHullConvexHullLib@physx@@UEAAPEAXI@Z 00000001801a07a0 f i GuCookingQuickHullConvexHullLib.obj
 0001:0019f8c0       ?addPointToHull@QuickHull@local@@IEAA_NPEBUQuickHullVertex@2@AEAUQuickHullFace@2@AEA_N@Z 00000001801a08c0 f   GuCookingQuickHullConvexHullLib.obj
 0001:0019fb90       ?addSimplex@QuickHull@local@@IEAA_NPEAUQuickHullVertex@2@_N@Z 00000001801a0b90 f   GuCookingQuickHullConvexHullLib.obj
 0001:001a00a0       ?allocate@?$PxArray@PEAUQuickHullFace@local@@V?$PxReflectionAllocator@PEAUQuickHullFace@local@@@physx@@@physx@@IEAAPEAPEAUQuickHullFace@local@@I@Z 00000001801a10a0 f i GuCookingQuickHullConvexHullLib.obj
 0001:001a0130       ?allocate@?$PxArray@PEAUQuickHullHalfEdge@local@@V?$PxReflectionAllocator@PEAUQuickHullHalfEdge@local@@@physx@@@physx@@IEAAPEAPEAUQuickHullHalfEdge@local@@I@Z 00000001801a1130 f i GuCookingQuickHullConvexHullLib.obj
 0001:001a01c0       ?allocate@?$PxArray@PEAUQuickHullVertex@local@@V?$PxReflectionAllocator@PEAUQuickHullVertex@local@@@physx@@@physx@@IEAAPEAPEAUQuickHullVertex@local@@I@Z 00000001801a11c0 f i GuCookingQuickHullConvexHullLib.obj
 0001:001a0250       ?allocate@?$PxArray@UExpandPoint@local@@V?$PxReflectionAllocator@UExpandPoint@local@@@physx@@@physx@@IEAAPEAUExpandPoint@local@@I@Z 00000001801a1250 f i GuCookingQuickHullConvexHullLib.obj
 0001:001a02e0       ?allocate@?$PxArray@VPxPlane@physx@@V?$PxReflectionAllocator@VPxPlane@physx@@@2@@physx@@IEAAPEAVPxPlane@2@I@Z 00000001801a12e0 f i GuCookingQuickHullConvexHullLib.obj
 0001:001a0370       ?buildHull@QuickHull@local@@QEAA?AW4Enum@QuickHullResult@2@XZ 00000001801a1370 f   GuCookingQuickHullConvexHullLib.obj
 0001:001a05c0       ?calculateHorizon@QuickHull@local@@IEAAXAEBV?$PxVec3T@M@physx@@PEAUQuickHullHalfEdge@2@AEAUQuickHullFace@2@AEAV?$PxArray@PEAUQuickHullHalfEdge@local@@V?$PxReflectionAllocator@PEAUQuickHullHalfEdge@local@@@physx@@@4@AEAV?$PxArray@PEAUQuickHullFace@local@@V?$PxReflectionAllocator@PEAUQuickHullFace@local@@@physx@@@4@@Z 00000001801a15c0 f   GuCookingQuickHullConvexHullLib.obj
 0001:001a0770       ?canMergeFaces@QuickHull@local@@IEAA_NAEBUQuickHullHalfEdge@2@@Z 00000001801a1770 f   GuCookingQuickHullConvexHullLib.obj
 0001:001a0fb0       ?cleanupForSimplex@QuickHullConvexHullLib@physx@@IEAA_NPEAV?$PxVec3T@M@2@IPEAUQuickHullVertex@local@@1AEAM2@Z 00000001801a1fb0 f   GuCookingQuickHullConvexHullLib.obj
 0001:001a1c00       ?computeMinMaxVerts@QuickHull@local@@IEAAXXZ 00000001801a2c00 f   GuCookingQuickHullConvexHullLib.obj
 0001:001a1fd0       ?connectHalfEdges@QuickHullFace@local@@AEAAPEAU12@PEAUQuickHullHalfEdge@2@0@Z 00000001801a2fd0 f   GuCookingQuickHullConvexHullLib.obj
 0001:001a2340       ?copy@?$PxArray@UExpandPoint@local@@V?$PxReflectionAllocator@UExpandPoint@local@@@physx@@@physx@@KAXPEAUExpandPoint@local@@0PEBU34@@Z 00000001801a3340 f i GuCookingQuickHullConvexHullLib.obj
 0001:001a23f0       ?copy@?$PxArray@VPxPlane@physx@@V?$PxReflectionAllocator@VPxPlane@physx@@@2@@physx@@KAXPEAVPxPlane@2@0PEBV32@@Z 00000001801a33f0 f i GuCookingQuickHullConvexHullLib.obj
 0001:001a24f0       ?createConvexHull@QuickHullConvexHullLib@physx@@UEAA?AW4Enum@PxConvexMeshCookingResult@2@XZ 00000001801a34f0 f   GuCookingQuickHullConvexHullLib.obj
 0001:001a2900       ?createEdgeList@QuickHullConvexHullLib@physx@@UEAA_NIPEBEPEAPEAEPEAPEAG2@Z 00000001801a3900 f   GuCookingQuickHullConvexHullLib.obj
 0001:001a2b20       ?createTriangle@QuickHull@local@@IEAAPEAUQuickHullFace@2@AEBUQuickHullVertex@2@00@Z 00000001801a3b20 f   GuCookingQuickHullConvexHullLib.obj
 0001:001a2ef0       ?doAdjacentMerge@QuickHull@local@@IEAA_NAEAUQuickHullFace@2@_NAEA_N@Z 00000001801a3ef0 f   GuCookingQuickHullConvexHullLib.obj
 0001:001a3240       ?expandHull@QuickHullConvexHullLib@physx@@IEAA?AW4Enum@PxConvexMeshCookingResult@2@XZ 00000001801a4240 f   GuCookingQuickHullConvexHullLib.obj
 0001:001a3b80       ?expandHullOBB@QuickHullConvexHullLib@physx@@IEAA?AW4Enum@PxConvexMeshCookingResult@2@XZ 00000001801a4b80 f   GuCookingQuickHullConvexHullLib.obj
 0001:001a3fc0       ?fillConvexMeshDesc@QuickHullConvexHullLib@physx@@UEAAXAEAVPxConvexMeshDesc@2@@Z 00000001801a4fc0 f   GuCookingQuickHullConvexHullLib.obj
 0001:001a4010       ?fillConvexMeshDescFromCroppedHull@QuickHullConvexHullLib@physx@@IEAAXAEAVPxConvexMeshDesc@2@@Z 00000001801a5010 f   GuCookingQuickHullConvexHullLib.obj
 0001:001a4200       ?fillConvexMeshDescFromQuickHull@QuickHullConvexHullLib@physx@@IEAAXAEAVPxConvexMeshDesc@2@@Z 00000001801a5200 f   GuCookingQuickHullConvexHullLib.obj
 0001:001a4580       ?findSimplex@QuickHull@local@@IEAA_NXZ 00000001801a5580 f   GuCookingQuickHullConvexHullLib.obj
 0001:001a5220       ?getFreeItem@?$MemBlock@UQuickHullFace@local@@$00@local@@QEAAPEAUQuickHullFace@2@XZ 00000001801a6220 f i GuCookingQuickHullConvexHullLib.obj
 0001:001a5350       ?getFreeItem@?$MemBlock@UQuickHullHalfEdge@local@@$0A@@local@@QEAAPEAUQuickHullHalfEdge@2@XZ 00000001801a6350 f i GuCookingQuickHullConvexHullLib.obj
 0001:001a5420       ?growAndPushBack@?$PxArray@PEAUQuickHullFace@local@@V?$PxReflectionAllocator@PEAUQuickHullFace@local@@@physx@@@physx@@IEAAAEAPEAUQuickHullFace@local@@AEBQEAU34@@Z 00000001801a6420 f i GuCookingQuickHullConvexHullLib.obj
 0001:001a54e0       ?growAndPushBack@?$PxArray@PEAUQuickHullHalfEdge@local@@V?$PxReflectionAllocator@PEAUQuickHullHalfEdge@local@@@physx@@@physx@@IEAAAEAPEAUQuickHullHalfEdge@local@@AEBQEAU34@@Z 00000001801a64e0 f i GuCookingQuickHullConvexHullLib.obj
 0001:001a55a0       ?growAndPushBack@?$PxArray@PEAUQuickHullVertex@local@@V?$PxReflectionAllocator@PEAUQuickHullVertex@local@@@physx@@@physx@@IEAAAEAPEAUQuickHullVertex@local@@AEBQEAU34@@Z 00000001801a65a0 f i GuCookingQuickHullConvexHullLib.obj
 0001:001a5660       ?growAndPushBack@?$PxArray@UExpandPoint@local@@V?$PxReflectionAllocator@UExpandPoint@local@@@physx@@@physx@@IEAAAEAUExpandPoint@local@@AEBU34@@Z 00000001801a6660 f i GuCookingQuickHullConvexHullLib.obj
 0001:001a5760       ?growAndPushBack@?$PxArray@VPxPlane@physx@@V?$PxReflectionAllocator@VPxPlane@physx@@@2@@physx@@IEAAAEAVPxPlane@2@AEBV32@@Z 00000001801a6760 f i GuCookingQuickHullConvexHullLib.obj
 0001:001a5820       ?init@?$MemBlock@UQuickHullFace@local@@$00@local@@QEAAXI@Z 00000001801a6820 f i GuCookingQuickHullConvexHullLib.obj
 0001:001a5920       ?init@?$MemBlock@UQuickHullHalfEdge@local@@$0A@@local@@QEAAXI@Z 00000001801a6920 f i GuCookingQuickHullConvexHullLib.obj
 0001:001a59c0       ?mergeAdjacentFace@QuickHullFace@local@@QEAA_NPEAUQuickHullHalfEdge@2@AEAV?$PxArray@PEAUQuickHullFace@local@@V?$PxReflectionAllocator@PEAUQuickHullFace@local@@@physx@@@physx@@@Z 00000001801a69c0 f   GuCookingQuickHullConvexHullLib.obj
 0001:001a5e20       ?nextPointToAdd@QuickHull@local@@IEAAPEAUQuickHullVertex@2@AEAPEAUQuickHullFace@2@@Z 00000001801a6e20 f   GuCookingQuickHullConvexHullLib.obj
 0001:001a5fa0       ?parseInputVertices@QuickHull@local@@QEAAXPEBV?$PxVec3T@M@physx@@I@Z 00000001801a6fa0 f   GuCookingQuickHullConvexHullLib.obj
 0001:001a6120       ?postMergeHull@QuickHull@local@@IEAAXXZ 00000001801a7120 f   GuCookingQuickHullConvexHullLib.obj
 0001:001a6380       ?preallocate@QuickHull@local@@QEAAXI@Z 00000001801a7380 f   GuCookingQuickHullConvexHullLib.obj
 0001:001a64c0       ?recreate@?$PxArray@PEAUQuickHullFace@local@@V?$PxReflectionAllocator@PEAUQuickHullFace@local@@@physx@@@physx@@IEAAXI@Z 00000001801a74c0 f i GuCookingQuickHullConvexHullLib.obj
 0001:001a6560       ?recreate@?$PxArray@PEAUQuickHullHalfEdge@local@@V?$PxReflectionAllocator@PEAUQuickHullHalfEdge@local@@@physx@@@physx@@IEAAXI@Z 00000001801a7560 f i GuCookingQuickHullConvexHullLib.obj
 0001:001a6600       ?recreate@?$PxArray@PEAUQuickHullVertex@local@@V?$PxReflectionAllocator@PEAUQuickHullVertex@local@@@physx@@@physx@@IEAAXI@Z 00000001801a7600 f i GuCookingQuickHullConvexHullLib.obj
 0001:001a66a0       ?recreate@?$PxArray@UExpandPoint@local@@V?$PxReflectionAllocator@UExpandPoint@local@@@physx@@@physx@@IEAAXI@Z 00000001801a76a0 f i GuCookingQuickHullConvexHullLib.obj
 0001:001a6730       ?recreate@?$PxArray@VPxPlane@physx@@V?$PxReflectionAllocator@VPxPlane@physx@@@2@@physx@@IEAAXI@Z 00000001801a7730 f i GuCookingQuickHullConvexHullLib.obj
 0001:001a67c0       ?resolveUnclaimedPoints@QuickHull@local@@IEAAXAEBV?$PxArray@PEAUQuickHullFace@local@@V?$PxReflectionAllocator@PEAUQuickHullFace@local@@@physx@@@physx@@@Z 00000001801a77c0 f   GuCookingQuickHullConvexHullLib.obj
 0001:001a6a40       ??$copy@V?$PxReflectionAllocator@VPair@@@physx@@@?$PxArray@VPair@@V?$PxReflectionAllocator@VPair@@@physx@@@physx@@IEAAXAEBV01@@Z 00000001801a7a40 f i GuCookingConvexPolygonsBuilder.obj
 0001:001a6ac0       ??0ConvexPolygonsBuilder@physx@@QEAA@PEAUConvexHullData@Gu@1@_N@Z 00000001801a7ac0 f   GuCookingConvexPolygonsBuilder.obj
 0001:001a6ae0       ??1ConvexPolygonsBuilder@physx@@QEAA@XZ 00000001801a7ae0 f   GuCookingConvexPolygonsBuilder.obj
 0001:001a7330       ?allocate@?$PxArray@VPair@@V?$PxReflectionAllocator@VPair@@@physx@@@physx@@IEAAPEAVPair@@I@Z 00000001801a8330 f i GuCookingConvexPolygonsBuilder.obj
 0001:001a7e10       ?computeHullPolygons@ConvexPolygonsBuilder@physx@@QEAA_NAEBIPEBV?$PxVec3T@M@2@0PEBI@Z 00000001801a8e10 f   GuCookingConvexPolygonsBuilder.obj
 0001:001a90d0       ?createPolygonData@ConvexPolygonsBuilder@physx@@AEAA_NXZ 00000001801aa0d0 f   GuCookingConvexPolygonsBuilder.obj
 0001:001a9b30       ?createTrianglesFromPolygons@ConvexPolygonsBuilder@physx@@AEAA_NXZ 00000001801aab30 f   GuCookingConvexPolygonsBuilder.obj
 0001:001ab1b0       ?growAndPushBack@?$PxArray@VPair@@V?$PxReflectionAllocator@VPair@@@physx@@@physx@@IEAAAEAVPair@@AEBV3@@Z 00000001801ac1b0 f i GuCookingConvexPolygonsBuilder.obj
 0001:001ab340       ??0ConvexMeshBuilder@physx@@QEAA@_N@Z 00000001801ac340 f   GuCookingConvexMeshBuilder.obj
 0001:001ab3b0       ??1ConvexMeshBuilder@physx@@QEAA@XZ 00000001801ac3b0 f   GuCookingConvexMeshBuilder.obj
 0001:001ab840       ?build@ConvexMeshBuilder@physx@@QEAA_NAEBVPxConvexMeshDesc@2@I_NPEAVConvexHullLib@2@@Z 00000001801ac840 f   GuCookingConvexMeshBuilder.obj
 0001:001abbd0       ?checkExtentRadiusRatio@ConvexMeshBuilder@physx@@QEAA_NXZ 00000001801acbd0 f   GuCookingConvexMeshBuilder.obj
 0001:001abc00       ?computeHullPolygons@ConvexMeshBuilder@physx@@QEAA_NAEBIPEBV?$PxVec3T@M@2@0PEBIAEAVPxAllocatorCallback@2@AEAIAEAPEAV32@4AEAPEAI4AEAPEAUPxHullPolygon@2@@Z 00000001801acc00 f   GuCookingConvexMeshBuilder.obj
 0001:001abe10       ?computeMassInfo@ConvexMeshBuilder@physx@@QEAAX_N@Z 00000001801ace10 f   GuCookingConvexMeshBuilder.obj
 0001:001ac1a0       ?computeSDF@ConvexMeshBuilder@physx@@QEAAXAEBVPxConvexMeshDesc@2@@Z 00000001801ad1a0 f   GuCookingConvexMeshBuilder.obj
 0001:001ac660       ?copy@ConvexMeshBuilder@physx@@QEAA_NAEAUConvexHullInitData@Gu@2@@Z 00000001801ad660 f   GuCookingConvexMeshBuilder.obj
 0001:001ac7c0       ?loadConvexHull@ConvexMeshBuilder@physx@@QEAA_NAEBVPxConvexMeshDesc@2@PEAVConvexHullLib@2@@Z 00000001801ad7c0 f   GuCookingConvexMeshBuilder.obj
 0001:001aca10       ?save@ConvexMeshBuilder@physx@@QEBA_NAEAVPxOutputStream@2@_N@Z 00000001801ada10 f   GuCookingConvexMeshBuilder.obj
 0001:001ace30       ??0ConvexHull@physx@@QEAA@AEBV?$PxVec3T@M@1@AEBV?$PxTransformT@M@1@AEBV?$PxArray@VPxPlane@physx@@V?$PxReflectionAllocator@VPxPlane@physx@@@2@@1@@Z 00000001801ade30 f   GuCookingConvexHullUtils.obj
 0001:001adf50       ?allocate@?$PxArray@VHalfEdge@ConvexHull@physx@@V?$PxReflectionAllocator@VHalfEdge@ConvexHull@physx@@@3@@physx@@IEAAPEAVHalfEdge@ConvexHull@2@I@Z 00000001801aef50 f i GuCookingConvexHullUtils.obj
 0001:001adfe0       ?assertIntact@ConvexHull@physx@@QEBA_NM@Z 00000001801aefe0 f   GuCookingConvexHullUtils.obj
 0001:001ae300       ?computeOBBFromConvex@physx@@YA_NAEBVPxConvexMeshDesc@1@AEAV?$PxVec3T@M@1@AEAV?$PxTransformT@M@1@@Z 00000001801af300 f   GuCookingConvexHullUtils.obj
 0001:001ae960       ?computeOBBSIMD@local@@YAXIPEBT__m128@@AEAT2@AEBT2@1@Z 00000001801af960 f   GuCookingConvexHullUtils.obj
 0001:001aed10       ?convexHullCrop@physx@@YAPEAVConvexHull@1@AEBV21@AEBVPxPlane@1@M@Z 00000001801afd10 f   GuCookingConvexHullUtils.obj
 0001:001afb10       ?findCandidatePlane@ConvexHull@physx@@QEBAHMM@Z 00000001801b0b10 f   GuCookingConvexHullUtils.obj
 0001:001aff60       ?growAndPushBack@?$PxArray@VHalfEdge@ConvexHull@physx@@V?$PxReflectionAllocator@VHalfEdge@ConvexHull@physx@@@3@@physx@@IEAAAEAVHalfEdge@ConvexHull@2@AEBV342@@Z 00000001801b0f60 f i GuCookingConvexHullUtils.obj
 0001:001b0020       ?maxNumVertsPerFace@ConvexHull@physx@@QEBAIXZ 00000001801b1020 f   GuCookingConvexHullUtils.obj
 0001:001b0090       ?recreate@?$PxArray@VHalfEdge@ConvexHull@physx@@V?$PxReflectionAllocator@VHalfEdge@ConvexHull@physx@@@3@@physx@@IEAAXI@Z 00000001801b1090 f i GuCookingConvexHullUtils.obj
 0001:001b0130       ?resize@?$PxArray@VHalfEdge@ConvexHull@physx@@V?$PxReflectionAllocator@VHalfEdge@ConvexHull@physx@@@3@@physx@@QEAAXIAEBVHalfEdge@ConvexHull@2@@Z 00000001801b1130 f i GuCookingConvexHullUtils.obj
 0001:001b01f0       ?resize@?$PxArray@VPxPlane@physx@@V?$PxReflectionAllocator@VPxPlane@physx@@@2@@physx@@QEAAXIAEBVPxPlane@2@@Z 00000001801b11f0 f i GuCookingConvexHullUtils.obj
 0001:001b0310       ??1ConvexHullLib@physx@@UEAA@XZ 00000001801b1310 f   GuCookingConvexHullLib.obj
 0001:001b0900       ?cleanupVertices@ConvexHullLib@physx@@IEAA_NIPEBV?$PxVec3T@M@2@IAEAIPEAV32@@Z 00000001801b1900 f   GuCookingConvexHullLib.obj
 0001:001b0a40       ?shiftAndcleanupVertices@ConvexHullLib@physx@@IEAA_NIPEBV?$PxVec3T@M@2@IAEAIPEAV32@@Z 00000001801b1a40 f   GuCookingConvexHullLib.obj
 0001:001b1020       ?shiftConvexMeshDesc@ConvexHullLib@physx@@IEAAXAEAVPxConvexMeshDesc@2@@Z 00000001801b2020 f   GuCookingConvexHullLib.obj
 0001:001b10e0       ?swapLargestFace@ConvexHullLib@physx@@IEAAXAEAVPxConvexMeshDesc@2@@Z 00000001801b20e0 f   GuCookingConvexHullLib.obj
 0001:001b1310       ??0ConvexHullBuilder@physx@@QEAA@PEAUConvexHullData@Gu@1@_N@Z 00000001801b2310 f   GuCookingConvexHullBuilder.obj
 0001:001b1340       ??1ConvexHullBuilder@physx@@QEAA@XZ 00000001801b2340 f   GuCookingConvexHullBuilder.obj
 0001:001b1450       ?calculateVertexMapTable@ConvexHullBuilder@physx@@QEAA_NI_N@Z 00000001801b2450 f   GuCookingConvexHullBuilder.obj
 0001:001b1610       ?checkHullPolygons@ConvexHullBuilder@physx@@QEBA_NXZ 00000001801b2610 f   GuCookingConvexHullBuilder.obj
 0001:001b1bd0       ?copy@ConvexHullBuilder@physx@@QEAA_NAEAUConvexHullData@Gu@2@AEAI@Z 00000001801b2bd0 f   GuCookingConvexHullBuilder.obj
 0001:001b1e40       ?createEdgeList@ConvexHullBuilder@physx@@QEAA_N_NI@Z 00000001801b2e40 f   GuCookingConvexHullBuilder.obj
 0001:001b2580       ?init@ConvexHullBuilder@physx@@QEAA_NIPEBV?$PxVec3T@M@2@PEBIIIPEBUPxHullPolygon@2@_NPEAVConvexHullLib@2@@Z 00000001801b3580 f   GuCookingConvexHullBuilder.obj
 0001:001b2ec0       ?save@ConvexHullBuilder@physx@@QEBA_NAEAVPxOutputStream@2@_N@Z 00000001801b3ec0 f   GuCookingConvexHullBuilder.obj
 0001:001b31e0       ??0BigConvexDataBuilder@physx@@QEAA@PEBUConvexHullData@Gu@1@PEAVBigConvexData@1@PEBV?$PxVec3T@M@1@@Z 00000001801b41e0 f   GuCookingBigConvexDataBuilder.obj
 0001:001b31f0       ?computeValencies@BigConvexDataBuilder@physx@@QEAA_NAEBVConvexHullBuilder@2@@Z 00000001801b41f0 f   GuCookingBigConvexDataBuilder.obj
 0001:001b35e0       ?precompute@BigConvexDataBuilder@physx@@QEAA_NI@Z 00000001801b45e0 f   GuCookingBigConvexDataBuilder.obj
 0001:001b41d0       ?save@BigConvexDataBuilder@physx@@QEBA_NAEAVPxOutputStream@2@_N@Z 00000001801b51d0 f   GuCookingBigConvexDataBuilder.obj
 0001:001b43be       __imp_load_PxGetFoundation 00000001801b53be f   PhysXFoundation_64:PhysXFoundation_64.dll
 0001:001b43ca       __tailMerge_physxfoundation_64_dll 00000001801b53ca     PhysXFoundation_64:PhysXFoundation_64.dll
 0001:001b4443       __imp_load_PxGetBroadcastAllocator 00000001801b5443 f   PhysXFoundation_64:PhysXFoundation_64.dll
 0001:001b444f       __imp_load_?PxAtomicIncrement@physx@@YAHPECH@Z 00000001801b544f f   PhysXFoundation_64:PhysXFoundation_64.dll
 0001:001b445b       __imp_load_??0PxMutexImpl@physx@@QEAA@XZ 00000001801b545b f   PhysXFoundation_64:PhysXFoundation_64.dll
 0001:001b4467       __imp_load_??1PxMutexImpl@physx@@QEAA@XZ 00000001801b5467 f   PhysXFoundation_64:PhysXFoundation_64.dll
 0001:001b4473       __imp_load_?lock@PxMutexImpl@physx@@QEAAXXZ 00000001801b5473 f   PhysXFoundation_64:PhysXFoundation_64.dll
 0001:001b447f       __imp_load_?unlock@PxMutexImpl@physx@@QEAAXXZ 00000001801b547f f   PhysXFoundation_64:PhysXFoundation_64.dll
 0001:001b448b       __imp_load_?getSize@PxMutexImpl@physx@@SAIXZ 00000001801b548b f   PhysXFoundation_64:PhysXFoundation_64.dll
 0001:001b4497       __imp_load_?PxTransformFromSegment@physx@@YA?AV?$PxTransformT@M@1@AEBV?$PxVec3T@M@1@0PEAM@Z 00000001801b5497 f   PhysXFoundation_64:PhysXFoundation_64.dll
 0001:001b44a3       __imp_load_?PxAtomicAdd@physx@@YAHPECHH@Z 00000001801b54a3 f   PhysXFoundation_64:PhysXFoundation_64.dll
 0001:001b44af       __imp_load_?getDefaultStackSize@PxThreadImpl@physx@@SAIXZ 00000001801b54af f   PhysXFoundation_64:PhysXFoundation_64.dll
 0001:001b44bb       __imp_load_??0PxThreadImpl@physx@@QEAA@P6APEAXPEAX@Z0PEBD@Z 00000001801b54bb f   PhysXFoundation_64:PhysXFoundation_64.dll
 0001:001b44c7       __imp_load_??1PxThreadImpl@physx@@QEAA@XZ 00000001801b54c7 f   PhysXFoundation_64:PhysXFoundation_64.dll
 0001:001b44d3       __imp_load_?start@PxThreadImpl@physx@@QEAAXIPEAVPxRunnable@2@@Z 00000001801b54d3 f   PhysXFoundation_64:PhysXFoundation_64.dll
 0001:001b44df       __imp_load_?waitForQuit@PxThreadImpl@physx@@QEAA_NXZ 00000001801b54df f   PhysXFoundation_64:PhysXFoundation_64.dll
 0001:001b44eb       __imp_load_?getSize@PxThreadImpl@physx@@SAIXZ 00000001801b54eb f   PhysXFoundation_64:PhysXFoundation_64.dll
 0001:001b44f7       __imp_load_?allocate@PxTempAllocator@physx@@QEAAPEAX_KPEBDH@Z 00000001801b54f7 f   PhysXFoundation_64:PhysXFoundation_64.dll
 0001:001b4503       __imp_load_?deallocate@PxTempAllocator@physx@@QEAAXPEAX@Z 00000001801b5503 f   PhysXFoundation_64:PhysXFoundation_64.dll
 0001:001b450f       __imp_load_?PxOptimizeBoundingBox@physx@@YA?AV?$PxVec3T@M@1@AEAV?$PxMat33T@M@1@@Z 00000001801b550f f   PhysXFoundation_64:PhysXFoundation_64.dll
 0001:001b451b       __imp_load_?Pxstrcmp@physx@@YAHPEBD0@Z 00000001801b551b f   PhysXFoundation_64:PhysXFoundation_64.dll
 0001:001b4527       __imp_load_?PxAtomicDecrement@physx@@YAHPECH@Z 00000001801b5527 f   PhysXFoundation_64:PhysXFoundation_64.dll
 0001:001b4533       __imp_load_??0PxFPUGuard@physx@@QEAA@XZ 00000001801b5533 f   PhysXFoundation_64:PhysXFoundation_64.dll
 0001:001b453f       __imp_load_??1PxFPUGuard@physx@@QEAA@XZ 00000001801b553f f   PhysXFoundation_64:PhysXFoundation_64.dll
 0001:001b454b       __imp_load_?PxDiagonalize@physx@@YA?AV?$PxVec3T@M@1@AEBV?$PxMat33T@M@1@AEAV?$PxQuatT@M@1@@Z 00000001801b554b f   PhysXFoundation_64:PhysXFoundation_64.dll
 0001:001b4558       ?DloadAcquireSectionWriteAccess@@YAXXZ 00000001801b5558 f i Delayimp:delayhlp.obj
 0001:001b4604       ?DloadGetSRWLockFunctionPointers@@YAEXZ 00000001801b5604 f i Delayimp:delayhlp.obj
 0001:001b46a4       ?DloadMakePermanentImageCommit@@YAXPEAX_K@Z 00000001801b56a4 f i Delayimp:delayhlp.obj
 0001:001b473c       ?DloadObtainSection@@YAPEAXPEAK0@Z 00000001801b573c f i Delayimp:delayhlp.obj
 0001:001b47d8       ?DloadProtectSection@@YAXKPEAK@Z 00000001801b57d8 f i Delayimp:delayhlp.obj
 0001:001b4868       ?DloadReleaseSectionWriteAccess@@YAXXZ 00000001801b5868 f i Delayimp:delayhlp.obj
 0001:001b48fc       __delayLoadHelper2         00000001801b58fc f   Delayimp:delayhlp.obj
 0001:001b4bd4       ??3@YAXPEAX_K@Z            00000001801b5bd4 f   LIBCMT:delete_scalar_size.obj
 0001:001b4bd4       ??_V@YAXPEAX@Z             00000001801b5bd4 f   LIBCMT:delete_array.obj
 0001:001b4bdc       ??_Etype_info@@UEAAPEAXI@Z 00000001801b5bdc f i LIBCMT:std_type_info_static.obj
 0001:001b4bdc       ??_Gtype_info@@UEAAPEAXI@Z 00000001801b5bdc f i LIBCMT:std_type_info_static.obj
 0001:001b4c08       ?__scrt_initialize_type_info@@YAXXZ 00000001801b5c08 f   LIBCMT:tncleanup.obj
 0001:001b4c18       ?__scrt_uninitialize_type_info@@YAXXZ 00000001801b5c18 f   LIBCMT:tncleanup.obj
 0001:001b4c40       __chkstk                   00000001801b5c40 f   LIBCMT:chkstk.obj
 0001:001b4c40       _alloca_probe              00000001801b5c40 f   LIBCMT:chkstk.obj
 0001:001b4c90       __vdecl_sinf4              00000001801b5c90 f   LIBCMT:svml_ssinf4_dispatch.obj
 0001:001b4cb0       __libm_sse2_sincosf_       00000001801b5cb0 f   LIBCMT:svml_ssinf4_dispatch.obj
 0001:001b4cf3       __libm_sse2_sincosf4_      00000001801b5cf3 f   LIBCMT:svml_ssinf4_dispatch.obj
 0001:001b4d00       ??3@YAXPEAX@Z              00000001801b5d00 f   LIBCMT:delete_scalar.obj
 0001:001b4d08       __scrt_acquire_startup_lock 00000001801b5d08 f   LIBCMT:utility.obj
 0001:001b4d44       __scrt_dllmain_after_initialize_c 00000001801b5d44 f   LIBCMT:utility.obj
 0001:001b4d78       __scrt_dllmain_before_initialize_c 00000001801b5d78 f   LIBCMT:utility.obj
 0001:001b4d90       __scrt_dllmain_crt_thread_attach 00000001801b5d90 f   LIBCMT:utility.obj
 0001:001b4db8       __scrt_dllmain_crt_thread_detach 00000001801b5db8 f   LIBCMT:utility.obj
 0001:001b4dd0       __scrt_dllmain_exception_filter 00000001801b5dd0 f   LIBCMT:utility.obj
 0001:001b4e30       __scrt_dllmain_uninitialize_c 00000001801b5e30 f   LIBCMT:utility.obj
 0001:001b4e60       __scrt_dllmain_uninitialize_critical 00000001801b5e60 f   LIBCMT:utility.obj
 0001:001b4e74       __scrt_initialize_crt      00000001801b5e74 f   LIBCMT:utility.obj
 0001:001b4ec0       __scrt_initialize_onexit_tables 00000001801b5ec0 f   LIBCMT:utility.obj
 0001:001b4f4c       __scrt_is_nonwritable_in_current_image 00000001801b5f4c f   LIBCMT:utility.obj
 0001:001b4fe4       __scrt_release_startup_lock 00000001801b5fe4 f   LIBCMT:utility.obj
 0001:001b5008       __scrt_uninitialize_crt    00000001801b6008 f   LIBCMT:utility.obj
 0001:001b5034       _onexit                    00000001801b6034 f   LIBCMT:utility.obj
 0001:001b5070       atexit                     00000001801b6070 f   LIBCMT:utility.obj
 0001:001b5088       __isa_available_init       00000001801b6088 f   LIBCMT:cpu_disp.obj
 0001:001b5554       _DllMainCRTStartup         00000001801b6554 f   LIBCMT:dll_dllmain.obj
 0001:001b55a0       __sse2_sinf4@@16           00000001801b65a0 f   LIBCMT:svml_ssinf4_sse2.obj
 0001:001b5ee0       __sse4_sinf4@@16           00000001801b6ee0 f   LIBCMT:svml_ssinf4_sse4.obj
 0001:001b6654       __scrt_is_ucrt_dll_in_use  00000001801b7654 f   LIBCMT:ucrt_detection.obj
 0001:001b6660       __crt_debugger_hook        00000001801b7660 f   LIBCMT:utility_desktop.obj
 0001:001b6668       __scrt_fastfail            00000001801b7668 f   LIBCMT:utility_desktop.obj
 0001:001b67b4       __security_init_cookie     00000001801b77b4 f   LIBCMT:gs_support.obj
 0001:001b6860       __local_stdio_scanf_options 00000001801b7860 f i LIBCMT:default_local_stdio_options.obj
 0001:001b6868       __scrt_initialize_default_local_stdio_options 00000001801b7868 f   LIBCMT:default_local_stdio_options.obj
 0001:001b6884       __scrt_get_dyn_tls_init_callback 00000001801b7884 f   LIBCMT:dyn_tls_init.obj
 0001:001b688c       _RTC_Initialize            00000001801b788c f   LIBCMT:initsect.obj
 0001:001b68c8       _RTC_Terminate             00000001801b78c8 f   LIBCMT:initsect.obj
 0001:001b6910       __common_ssin_cout_rare    00000001801b7910 f   LIBCMT:svml_s_sin_cout.obj
 0001:001b6990       memcpy_repmovs             00000001801b7990 f   libvcruntime:memcpy.obj
 0001:001b69b0       memcpy                     00000001801b79b0 f   libvcruntime:memcpy.obj
 0001:001b69b0       memmove                    00000001801b79b0 f   libvcruntime:memcpy.obj
 0001:001b7028       _get_purecall_handler      00000001801b8028 f   libvcruntime:purevirt.obj
 0001:001b7034       _purecall                  00000001801b8034 f   libvcruntime:purevirt.obj
 0001:001b7058       __std_type_info_compare    00000001801b8058 f   libvcruntime:std_type_info.obj
 0001:001b7080       __std_type_info_destroy_list 00000001801b8080 f   libvcruntime:std_type_info.obj
 0001:001b70ac       __std_type_info_name       00000001801b80ac f   libvcruntime:std_type_info.obj
 0001:001b71e0       memset_repstos             00000001801b81e0 f   libvcruntime:memset.obj
 0001:001b7200       memset                     00000001801b8200 f   libvcruntime:memset.obj
 0001:001b7588       strstr                     00000001801b8588 f   libvcruntime:strstr.obj
 0001:001b7780       __vcrt_initialize          00000001801b8780 f   libvcruntime:initialization.obj
 0001:001b77a8       __vcrt_thread_attach       00000001801b87a8 f   libvcruntime:initialization.obj
 0001:001b77bc       __vcrt_thread_detach       00000001801b87bc f   libvcruntime:initialization.obj
 0001:001b77d0       __vcrt_uninitialize        00000001801b87d0 f   libvcruntime:initialization.obj
 0001:001b77ec       __vcrt_uninitialize_critical 00000001801b87ec f   libvcruntime:initialization.obj
 0001:001b77fc       __C_specific_handler       00000001801b87fc f   libvcruntime:riscchandler.obj
 0001:001b79f4       __DestructExceptionObject  00000001801b89f4 f   libvcruntime:ehhelpers.obj
 0001:001b7a64       ?_CallMemberFunction0@@YAXQEAX0@Z 00000001801b8a64 f i libvcruntime:ehhelpers.obj
 0001:001b7a68       _IsExceptionObjectToBeDestroyed 00000001801b8a68 f   libvcruntime:ehhelpers.obj
 0001:001b7a98       __AdjustPointer            00000001801b8a98 f   libvcruntime:ehhelpers.obj
 0001:001b7abc       __FrameUnwindFilter        00000001801b8abc f   libvcruntime:ehhelpers.obj
 0001:001b7b24       ??$?0$00@DName@@QEAA@PEBDU?$StringLifeSelector@$00@@@Z 00000001801b8b24 f i libvcruntime:undname.obj
 0001:001b7b64       ??$?0$01@DName@@QEAA@PEBDU?$StringLifeSelector@$01@@@Z 00000001801b8b64 f i libvcruntime:undname.obj
 0001:001b7b64       ??$?0$0A@@DName@@QEAA@PEBDU?$StringLifeSelector@$0A@@@@Z 00000001801b8b64 f i libvcruntime:undname.obj
 0001:001b7ba4       ??$?0$01@pcharNode@@QEAA@PEBDHU?$StringLifeSelector@$01@@@Z 00000001801b8ba4 f i libvcruntime:undname.obj
 0001:001b7ba4       ??$?0$0A@@pcharNode@@QEAA@PEBDHU?$StringLifeSelector@$0A@@@@Z 00000001801b8ba4 f i libvcruntime:undname.obj
 0001:001b7c18       ??$append@VDNameNode@@@DName@@AEAAXPEBVDNameNode@@@Z 00000001801b8c18 f i libvcruntime:undname.obj
 0001:001b7c18       ??$append@VDNameStatusNode@@@DName@@AEAAXPEBVDNameStatusNode@@@Z 00000001801b8c18 f i libvcruntime:undname.obj
 0001:001b7c18       ??$append@VcharNode@@@DName@@AEAAXPEBVcharNode@@@Z 00000001801b8c18 f i libvcruntime:undname.obj
 0001:001b7c18       ??$append@VpcharNode@@@DName@@AEAAXPEBVpcharNode@@@Z 00000001801b8c18 f i libvcruntime:undname.obj
 0001:001b7c7c       ??$doPchar@$00@DName@@AEAAXPEBDH@Z 00000001801b8c7c f i libvcruntime:undname.obj
 0001:001b7d20       ??$doPchar@$01@DName@@AEAAXPEBDH@Z 00000001801b8d20 f i libvcruntime:undname.obj
 0001:001b7d20       ??$doPchar@$0A@@DName@@AEAAXPEBDH@Z 00000001801b8d20 f i libvcruntime:undname.obj
 0001:001b7db8       ??0DName@@QEAA@AEAPEBDD@Z  00000001801b8db8 f   libvcruntime:undname.obj
 0001:001b7e68       ??0DName@@QEAA@AEBUStringLiteral@@@Z 00000001801b8e68 f   libvcruntime:undname.obj
 0001:001b7e94       ??0DName@@QEAA@PEAV0@@Z    00000001801b8e94 f   libvcruntime:undname.obj
 0001:001b7f18       ??0DName@@QEAA@_J@Z        00000001801b8f18 f   libvcruntime:undname.obj
 0001:001b7fc0       ??0DName@@QEAA@_K@Z        00000001801b8fc0 f   libvcruntime:undname.obj
 0001:001b8050       ??2@YAPEAX_KAEAV_HeapManager@@H@Z 00000001801b9050 f   libvcruntime:undname.obj
 0001:001b807c       ??4DName@@QEAAAEAV0@W4DNameStatus@@@Z 00000001801b907c f   libvcruntime:undname.obj
 0001:001b80ac       ??AReplicator@@QEBA?AVDName@@H@Z 00000001801b90ac f   libvcruntime:undname.obj
 0001:001b80ec       ??HDName@@QEBA?AV0@AEBUStringLiteral@@@Z 00000001801b90ec f   libvcruntime:undname.obj
 0001:001b8118       ??HDName@@QEBA?AV0@AEBV0@@Z 00000001801b9118 f   libvcruntime:undname.obj
 0001:001b8144       ??HDName@@QEBA?AV0@D@Z     00000001801b9144 f   libvcruntime:undname.obj
 0001:001b8170       ??HDName@@QEBA?AV0@W4DNameStatus@@@Z 00000001801b9170 f   libvcruntime:undname.obj
 0001:001b819c       ??YDName@@QEAAAEAV0@AEBUStringLiteral@@@Z 00000001801b919c f   libvcruntime:undname.obj
 0001:001b821c       ??YDName@@QEAAAEAV0@AEBV0@@Z 00000001801b921c f   libvcruntime:undname.obj
 0001:001b8274       ??YDName@@QEAAAEAV0@D@Z    00000001801b9274 f   libvcruntime:undname.obj
 0001:001b82e0       ??YDName@@QEAAAEAV0@W4DNameStatus@@@Z 00000001801b92e0 f   libvcruntime:undname.obj
 0001:001b8338       ??YReplicator@@QEAAAEAV0@AEBVDName@@@Z 00000001801b9338 f   libvcruntime:undname.obj
 0001:001b8390       ?UScore@UnDecorator@@SA?AUStringLiteral@@W4Tokens@@@Z 00000001801b9390 f   libvcruntime:undname.obj
 0001:001b83dc       ?composeDeclaration@UnDecorator@@CA?AVDName@@AEBV2@@Z 00000001801b93dc f i libvcruntime:undname.obj
 0001:001b92d0       ?doPchar@DName@@AEAAXD@Z   00000001801ba2d0 f   libvcruntime:undname.obj
 0001:001b9320       ?getAddressOf@UnDecorator@@CA?AVDName@@XZ 00000001801ba320 f   libvcruntime:undname.obj
 0001:001b93b0       ?getArgumentList@UnDecorator@@CA?AVDName@@XZ 00000001801ba3b0 f   libvcruntime:undname.obj
 0001:001b9564       ?getArgumentTypes@UnDecorator@@CA?AVDName@@XZ 00000001801ba564 f   libvcruntime:undname.obj
 0001:001b96b0       ?getArrayAccess@UnDecorator@@CA?AVDName@@XZ 00000001801ba6b0 f   libvcruntime:undname.obj
 0001:001b974c       ?getArrayObject@UnDecorator@@CA?AVDName@@XZ 00000001801ba74c f   libvcruntime:undname.obj
 0001:001b9808       ?getArrayType@UnDecorator@@CA?AVDName@@AEBV2@@Z 00000001801ba808 f i libvcruntime:undname.obj
 0001:001b9a50       ?getBasedType@UnDecorator@@CA?AVDName@@XZ 00000001801baa50 f   libvcruntime:undname.obj
 0001:001b9b48       ?getBasicDataType@UnDecorator@@CA?AVDName@@AEBV2@@Z 00000001801bab48 f   libvcruntime:undname.obj
 0001:001ba14c       ?getCallingConvention@UnDecorator@@CA?AVDName@@XZ 00000001801bb14c f   libvcruntime:undname.obj
 0001:001ba284       ?getDataIndirectType@UnDecorator@@CA?AVDName@@AEBV2@W4IndirectionKind@@0H@Z 00000001801bb284 f   libvcruntime:undname.obj
 0001:001baba8       ?getDataType@UnDecorator@@CA?AVDName@@PEAV2@@Z 00000001801bbba8 f   libvcruntime:undname.obj
 0001:001bacbc       ?getDecoratedName@UnDecorator@@CA?AVDName@@XZ 00000001801bbcbc f   libvcruntime:undname.obj
 0001:001bafa4       ?getDimension@UnDecorator@@CA?AVDName@@_N@Z 00000001801bbfa4 f   libvcruntime:undname.obj
 0001:001bb0ec       ?getDispatchTarget@UnDecorator@@CA?AVDName@@XZ 00000001801bc0ec f   libvcruntime:undname.obj
 0001:001bb14c       ?getECSUDataType@UnDecorator@@CA?AVDName@@XZ 00000001801bc14c f   libvcruntime:undname.obj
 0001:001bb348       ?getEnumType@UnDecorator@@CA?AVDName@@XZ 00000001801bc348 f i libvcruntime:undname.obj
 0001:001bb478       ?getExtendedDataIndirectType@UnDecorator@@CA?AVDName@@AEAW4IndirectionKind@@AEA_NH@Z 00000001801bc478 f   libvcruntime:undname.obj
 0001:001bb67c       ?getExternalDataType@UnDecorator@@CA?AVDName@@AEBV2@@Z 00000001801bc67c f i libvcruntime:undname.obj
 0001:001bb73c       ?getFloatingPoint@UnDecorator@@CA?AVDName@@H@Z 00000001801bc73c f   libvcruntime:undname.obj
 0001:001bb8a4       ?getFunctionIndirectType@UnDecorator@@CA?AVDName@@AEBV2@@Z 00000001801bc8a4 f   libvcruntime:undname.obj
 0001:001bbdd8       ?getLastChar@DNameStatusNode@@UEBADXZ 00000001801bcdd8 f i libvcruntime:undname.obj
 0001:001bbde4       ?getLastChar@charNode@@UEBADXZ 00000001801bcde4 f i libvcruntime:undname.obj
 0001:001bbde8       ?getLastChar@pDNameNode@@UEBADXZ 00000001801bcde8 f i libvcruntime:undname.obj
 0001:001bbe14       ?getLastChar@pairNode@@UEBADXZ 00000001801bce14 f i libvcruntime:undname.obj
 0001:001bbe4c       ?getLastChar@pcharNode@@UEBADXZ 00000001801bce4c f i libvcruntime:undname.obj
 0001:001bbe60       ?getLexicalFrame@UnDecorator@@CA?AVDName@@XZ 00000001801bce60 f i libvcruntime:undname.obj
 0001:001bbec4       ?getMemberAccess@UnDecorator@@CA?AVDName@@XZ 00000001801bcec4 f   libvcruntime:undname.obj
 0001:001bbf58       ?getMemoryWithBuffer@_HeapManager@@QEAAPEAX_K@Z 00000001801bcf58 f   libvcruntime:undname.obj
 0001:001bbfe8       ?getNoexcept@UnDecorator@@CA?AVDName@@XZ 00000001801bcfe8 f   libvcruntime:undname.obj
 0001:001bc04c       ?getNumberOfDimensions@UnDecorator@@CAHXZ 00000001801bd04c f   libvcruntime:undname.obj
 0001:001bc0b4       ?getOperatorName@UnDecorator@@CA?AVDName@@_NPEA_N@Z 00000001801bd0b4 f i libvcruntime:undname.obj
 0001:001bca64       ?getPointerToMember@UnDecorator@@CA?AVDName@@XZ 00000001801bda64 f   libvcruntime:undname.obj
 0001:001bcb5c       ?getPrimaryDataType@UnDecorator@@CA?AVDName@@AEBV2@@Z 00000001801bdb5c f   libvcruntime:undname.obj
 0001:001bce14       ?getPtrRefDataType@UnDecorator@@CA?AVDName@@AEBV2@H@Z 00000001801bde14 f   libvcruntime:undname.obj
 0001:001bcfe0       ?getPtrRefType@UnDecorator@@CA?AVDName@@AEBV2@0W4IndirectionKind@@@Z 00000001801bdfe0 f   libvcruntime:undname.obj
 0001:001bd1b8       ?getRestrictionSpec@UnDecorator@@CA?AVDName@@XZ 00000001801be1b8 f   libvcruntime:undname.obj
 0001:001bd394       ?getReturnType@UnDecorator@@CA?AVDName@@PEAV2@@Z 00000001801be394 f   libvcruntime:undname.obj
 0001:001bd3c8       ?getScope@UnDecorator@@CA?AVDName@@XZ 00000001801be3c8 f   libvcruntime:undname.obj
 0001:001bd884       ?getScopedName@UnDecorator@@CA?AVDName@@XZ 00000001801be884 f   libvcruntime:undname.obj
 0001:001bd9c4       ?getSignedDimension@UnDecorator@@CA?AVDName@@XZ 00000001801be9c4 f   libvcruntime:undname.obj
 0001:001bda4c       ?getString@DNameStatusNode@@UEBAPEADPEAD0@Z 00000001801bea4c f i libvcruntime:undname.obj
 0001:001bda94       ?getString@charNode@@UEBAPEADPEAD0@Z 00000001801bea94 f i libvcruntime:undname.obj
 0001:001bdaa8       ?getString@pDNameNode@@UEBAPEADPEAD0@Z 00000001801beaa8 f i libvcruntime:undname.obj
 0001:001bdad8       ?getString@pairNode@@UEBAPEADPEAD0@Z 00000001801bead8 f i libvcruntime:undname.obj
 0001:001bdb24       ?getString@pcharNode@@UEBAPEADPEAD0@Z 00000001801beb24 f i libvcruntime:undname.obj
 0001:001bdb5c       ?getStringEncoding@UnDecorator@@CA?AVDName@@W4PrefixKind@@H@Z 00000001801beb5c f   libvcruntime:undname.obj
 0001:001bdc6c       ?getStringObject@UnDecorator@@CA?AVDName@@XZ 00000001801bec6c f   libvcruntime:undname.obj
 0001:001bdcd4       ?getSymbolName@UnDecorator@@CA?AVDName@@XZ 00000001801becd4 f i libvcruntime:undname.obj
 0001:001bdd20       ?getTemplateArgumentList@UnDecorator@@CA?AVDName@@XZ 00000001801bed20 f   libvcruntime:undname.obj
 0001:001bdf3c       ?getTemplateName@UnDecorator@@CA?AVDName@@_N@Z 00000001801bef3c f   libvcruntime:undname.obj
 0001:001be1d0       ?getTemplateNonTypeArgument@UnDecorator@@CA?AVDName@@XZ 00000001801bf1d0 f   libvcruntime:undname.obj
 0001:001be720       ?getTemplateTypeArgument@UnDecorator@@CA?AVDName@@XZ 00000001801bf720 f   libvcruntime:undname.obj
 0001:001be888       ?getThrowTypes@UnDecorator@@CA?AVDName@@XZ 00000001801bf888 f   libvcruntime:undname.obj
 0001:001be8ac       ?getTypeEncoding@UnDecorator@@CAHXZ 00000001801bf8ac f i libvcruntime:undname.obj
 0001:001bec68       ?getUndecoratedName@UnDecorator@@QEAAPEADPEADH@Z 00000001801bfc68 f i libvcruntime:undname.obj
 0001:001bedbc       ?getUnionObject@UnDecorator@@CA?AVDName@@XZ 00000001801bfdbc f   libvcruntime:undname.obj
 0001:001bee94       ?getVCallThunkType@UnDecorator@@CA?AVDName@@XZ 00000001801bfe94 f i libvcruntime:undname.obj
 0001:001bef0c       ?getValue@UnDecorator@@CA?AV?$optional@_K@std@@XZ 00000001801bff0c f   libvcruntime:undname.obj
 0001:001bef80       ?getValueObject@UnDecorator@@CA?AVDName@@XZ 00000001801bff80 f   libvcruntime:undname.obj
 0001:001bf0c0       ?getVdispMapType@UnDecorator@@CA?AVDName@@AEBV2@@Z 00000001801c00c0 f i libvcruntime:undname.obj
 0001:001bf13c       ?getVfTableType@UnDecorator@@CA?AVDName@@AEBV2@@Z 00000001801c013c f i libvcruntime:undname.obj
 0001:001bf348       ?getZName@UnDecorator@@CA?AVDName@@_N0@Z 00000001801c0348 f   libvcruntime:undname.obj
 0001:001bf61c       ?length@pDNameNode@@UEBAHXZ 00000001801c061c f i libvcruntime:undname.obj
 0001:001bf644       ?length@pairNode@@UEBAHXZ  00000001801c0644 f i libvcruntime:undname.obj
 0001:001bf68c       ?parseDecoratedName@UnDecorator@@CA?AVDName@@XZ 00000001801c068c f   libvcruntime:undname.obj
 0001:001bf7a4       ?raw_length@pDNameNode@@UEBAHXZ 00000001801c07a4 f i libvcruntime:undname.obj
 0001:001bf7a8       ?raw_length@pairNode@@UEBAHXZ 00000001801c07a8 f i libvcruntime:undname.obj
 0001:001bf7ac       __unDName                  00000001801c07ac f   libvcruntime:undname.obj
 0001:001bf7d4       __unDNameEx                00000001801c07d4 f   libvcruntime:undname.obj
 0001:001bf908       snprintf                   00000001801c0908 f i libvcruntime:undname.obj
 0001:001bf960       sprintf_s                  00000001801c0960 f i libvcruntime:undname.obj
 0001:001bf9b4       __vcrt_freefls             00000001801c09b4 f   libvcruntime:per_thread_data.obj
 0001:001bf9d4       __vcrt_freeptd             00000001801c09d4 f   libvcruntime:per_thread_data.obj
 0001:001bfa24       __vcrt_getptd              00000001801c0a24 f   libvcruntime:per_thread_data.obj
 0001:001bfa40       __vcrt_getptd_noexit       00000001801c0a40 f   libvcruntime:per_thread_data.obj
 0001:001bfb00       __vcrt_initialize_ptd      00000001801c0b00 f   libvcruntime:per_thread_data.obj
 0001:001bfb48       __vcrt_uninitialize_ptd    00000001801c0b48 f   libvcruntime:per_thread_data.obj
 0001:001bfb6c       __vcrt_initialize_locks    00000001801c0b6c f   libvcruntime:locks.obj
 0001:001bfbb4       __vcrt_lock                00000001801c0bb4 f   libvcruntime:locks.obj
 0001:001bfbd0       __vcrt_uninitialize_locks  00000001801c0bd0 f   libvcruntime:locks.obj
 0001:001bfc08       __vcrt_unlock              00000001801c0c08 f   libvcruntime:locks.obj
 0001:001bfc40       _NLG_Notify                00000001801c0c40 f   libvcruntime:notify.obj
 0001:001bfc60       __NLG_Dispatch2            00000001801c0c60 f   libvcruntime:notify.obj
 0001:001bfc70       __NLG_Return2              00000001801c0c70 f   libvcruntime:notify.obj
 0001:001bfc74       __except_validate_context_record 00000001801c0c74 f   libvcruntime:jbcxrval.obj
 0001:001bfcac       ??$_CallSETranslator@V__FrameHandler4@@@@YAHPEAUEHExceptionRecord@@PEA_KPEAU_CONTEXT@@PEAU_xDISPATCHER_CONTEXT@@PEAUFuncInfo4@FH4@@K1H@Z 00000001801c0cac f i libvcruntime:risctrnsctrl.obj
 0001:001bfd00       ?DecompFuncInfo@FH4@@YA_JPEAEAEAUFuncInfo4@1@_KH_N@Z 00000001801c0d00 f i libvcruntime:risctrnsctrl.obj
 0001:001bfe24       ?ExecutionInCatch@__FrameHandler4@@SA_NPEAU_xDISPATCHER_CONTEXT@@PEAUFuncInfo4@FH4@@@Z 00000001801c0e24 f   libvcruntime:risctrnsctrl.obj
 0001:001bfe2c       ?FrameUnwindToEmptyState@__FrameHandler4@@SAXPEA_KPEAU_xDISPATCHER_CONTEXT@@PEAUFuncInfo4@FH4@@@Z 00000001801c0e2c f   libvcruntime:risctrnsctrl.obj
 0001:001bfe60       ?GetEstablisherFrame@__FrameHandler4@@SAPEA_KPEA_KPEAU_xDISPATCHER_CONTEXT@@PEAUFuncInfo4@FH4@@0@Z 00000001801c0e60 f   libvcruntime:risctrnsctrl.obj
 0001:001bfe84       ?GetRangeOfTrysToCheck@__FrameHandler4@@SA?AU?$pair@Viterator@TryBlockMap4@FH4@@V123@@std@@AEAVTryBlockMap4@FH4@@HPEAU_xDISPATCHER_CONTEXT@@PEAUFuncInfo4@5@H@Z 00000001801c0e84 f   libvcruntime:risctrnsctrl.obj
 0001:001bfff0       ?UnwindNestedFrames@__FrameHandler4@@SAXPEA_KPEAUEHExceptionRecord@@PEAU_CONTEXT@@0PEAXPEAUFuncInfo4@FH4@@HHPEAUHandlerType4@5@PEAU_xDISPATCHER_CONTEXT@@E@Z 00000001801c0ff0 f   libvcruntime:risctrnsctrl.obj
 0001:001c0110       ?setBuffer@TryBlockMap4@FH4@@QEAAXViterator@12@@Z 00000001801c1110 f i libvcruntime:risctrnsctrl.obj
 0001:001c02d4       _CreateFrameInfo           00000001801c12d4 f   libvcruntime:risctrnsctrl.obj
 0001:001c0310       _FindAndUnlinkFrame        00000001801c1310 f   libvcruntime:risctrnsctrl.obj
 0001:001c0364       _GetImageBase              00000001801c1364 f   libvcruntime:risctrnsctrl.obj
 0001:001c0378       _GetThrowImageBase         00000001801c1378 f   libvcruntime:risctrnsctrl.obj
 0001:001c038c       _SetImageBase              00000001801c138c f   libvcruntime:risctrnsctrl.obj
 0001:001c03a4       _SetThrowImageBase         00000001801c13a4 f   libvcruntime:risctrnsctrl.obj
 0001:001c03bc       __CxxFrameHandler4         00000001801c13bc f   libvcruntime:risctrnsctrl.obj
 0001:001c05cc       __vcrt_FlsAlloc            00000001801c15cc f   libvcruntime:winapi_downlevel.obj
 0001:001c0614       __vcrt_FlsFree             00000001801c1614 f   libvcruntime:winapi_downlevel.obj
 0001:001c065c       __vcrt_FlsGetValue         00000001801c165c f   libvcruntime:winapi_downlevel.obj
 0001:001c06a4       __vcrt_FlsSetValue         00000001801c16a4 f   libvcruntime:winapi_downlevel.obj
 0001:001c06f8       __vcrt_InitializeCriticalSectionEx 00000001801c16f8 f   libvcruntime:winapi_downlevel.obj
 0001:001c075c       ?StateFromControlPc@__FrameHandler4@@SAHPEAUFuncInfo4@FH4@@PEAU_xDISPATCHER_CONTEXT@@@Z 00000001801c175c f   libvcruntime:ehstate.obj
 0001:001c0764       ?StateFromIp@__FrameHandler4@@SAHPEAUFuncInfo4@FH4@@PEAU_xDISPATCHER_CONTEXT@@_K@Z 00000001801c1764 f   libvcruntime:ehstate.obj
 0001:001c13dc       ??$TypeMatchHelper@V__FrameHandler3@@@@YAHPEBU_s_HandlerType@@PEBU_s_CatchableType@@PEBU_s_ThrowInfo@@@Z 00000001801c23dc f i libvcruntime:frame.obj
 0001:001c151c       ??$TypeMatchHelper@V__FrameHandler4@@@@YAHPEAUHandlerType4@FH4@@PEBU_s_CatchableType@@PEBU_s_ThrowInfo@@@Z 00000001801c251c f i libvcruntime:frame.obj
 0001:001c1660       ??$__InternalCxxFrameHandler@V__FrameHandler4@@@@YA?AW4_EXCEPTION_DISPOSITION@@PEAUEHExceptionRecord@@PEA_KPEAU_CONTEXT@@PEAU_xDISPATCHER_CONTEXT@@PEAUFuncInfo4@FH4@@H1E@Z 00000001801c2660 f i libvcruntime:frame.obj
 0001:001c18f4       ??$__InternalCxxFrameHandlerWrapper@V__FrameHandler4@@@@YA?AW4_EXCEPTION_DISPOSITION@@PEAUEHExceptionRecord@@PEA_KPEAU_CONTEXT@@PEAU_xDISPATCHER_CONTEXT@@PEAUFuncInfo4@FH4@@H1E@Z 00000001801c28f4 f i libvcruntime:frame.obj
 0001:001c1950       ??0HandlerMap4@FH4@@QEAA@PEBUTryBlockMapEntry4@1@_KH@Z 00000001801c2950 f i libvcruntime:frame.obj
 0001:001c19cc       ??0TryBlockMap4@FH4@@QEAA@PEBUFuncInfo4@1@_K@Z 00000001801c29cc f i libvcruntime:frame.obj
 0001:001c1aa4       ??0bad_exception@std@@QEAA@AEBV01@@Z 00000001801c2aa4 f i libvcruntime:frame.obj
 0001:001c1ae0       ??0bad_exception@std@@QEAA@XZ 00000001801c2ae0 f i libvcruntime:frame.obj
 0001:001c1b00       ??0exception@std@@QEAA@AEBV01@@Z 00000001801c2b00 f i libvcruntime:frame.obj
 0001:001c1b34       ??1bad_exception@std@@UEAA@XZ 00000001801c2b34 f i libvcruntime:frame.obj
 0001:001c1b48       ??_Ebad_exception@std@@UEAAPEAXI@Z 00000001801c2b48 f i libvcruntime:frame.obj
 0001:001c1b48       ??_Eexception@std@@UEAAPEAXI@Z 00000001801c2b48 f i libvcruntime:frame.obj
 0001:001c1b48       ??_Gbad_exception@std@@UEAAPEAXI@Z 00000001801c2b48 f i libvcruntime:frame.obj
 0001:001c1b48       ??_Gexception@std@@UEAAPEAXI@Z 00000001801c2b48 f i libvcruntime:frame.obj
 0001:001c1b8c       ?CxxCallCatchBlock@__FrameHandler4@@SAPEAXPEAU_EXCEPTION_RECORD@@@Z 00000001801c2b8c f   libvcruntime:frame.obj
 0001:001c1ddc       ?DecompHandler@HandlerMap4@FH4@@AEAAXXZ 00000001801c2ddc f i libvcruntime:frame.obj
 0001:001c2028       ?FrameUnwindToState@__FrameHandler4@@SAXPEA_KPEAU_xDISPATCHER_CONTEXT@@PEAUFuncInfo4@FH4@@H@Z 00000001801c3028 f   libvcruntime:frame.obj
 0001:001c249c       ?ReadEntry@UWMap4@FH4@@AEAAXPEAPEAE@Z 00000001801c349c f i libvcruntime:frame.obj
 0001:001c2538       ?_CallMemberFunction1@@YAXQEAX00@Z 00000001801c3538 f i libvcruntime:frame.obj
 0001:001c2544       ?_CallMemberFunction2@@YAXQEAX00H@Z 00000001801c3544 f i libvcruntime:frame.obj
 0001:001c2554       ?getStartStop@UWMap4@FH4@@QEAAXHHAEAViterator@12@0@Z 00000001801c3554 f i libvcruntime:frame.obj
 0001:001c2624       ?getStateFromIterators@UWMap4@FH4@@SAHAEBViterator@12@H0H0@Z 00000001801c3624 f i libvcruntime:frame.obj
 0001:001c26d4       ?what@exception@std@@UEBAPEBDXZ 00000001801c36d4 f i libvcruntime:frame.obj
 0001:001c2700       _CallSettingFrame          00000001801c3700 f   libvcruntime:handlers.obj
 0001:001c2750       _CallSettingFrame_LookupContinuationIndex 00000001801c3750 f   libvcruntime:handlers.obj
 0001:001c2780       _CallSettingFrame_NotifyContinuationAddr 00000001801c3780 f   libvcruntime:handlers.obj
 0001:001c27b0       _CallSettingFrameEncoded   00000001801c37b0 f   libvcruntime:handlers.obj
 0001:001c27f8       __std_exception_copy       00000001801c37f8 f   libvcruntime:std_exception.obj
 0001:001c2888       __std_exception_destroy    00000001801c3888 f   libvcruntime:std_exception.obj
 0001:001c28b0       _CxxThrowException         00000001801c38b0 f   libvcruntime:throw.obj
 0001:001c2950       _local_unwind              00000001801c3950 f   libvcruntime:jmpuwind.obj
 0001:001c2980       cosf                       00000001801c3980 f   libucrt:cosf.obj
 0001:001c2e80       sinf                       00000001801c3e80 f   libucrt:sinf.obj
 0001:001c3580       tanf                       00000001801c4580 f   libucrt:tanf.obj
 0001:001c3bf4       __acrt_initialize_stdio    00000001801c4bf4 f   libucrt:_file.obj
 0001:001c3d14       __acrt_iob_func            00000001801c4d14 f   libucrt:_file.obj
 0001:001c3d28       __acrt_uninitialize_stdio  00000001801c4d28 f   libucrt:_file.obj
 0001:001c3d84       _lock_file                 00000001801c4d84 f   libucrt:_file.obj
 0001:001c3d90       _unlock_file               00000001801c4d90 f   libucrt:_file.obj
 0001:001c4174       ??$ensure_buffer_is_big_enough@D@formatting_buffer@__crt_stdio_output@@QEAA_N_K@Z 00000001801c5174 f i libucrt:output.obj
 0001:001c421c       ??$type_case_integer_parse_into_buffer@I@?$output_processor@DV?$stream_output_adapter@D@__crt_stdio_output@@V?$standard_base@DV?$stream_output_adapter@D@__crt_stdio_output@@@2@@__crt_stdio_output@@AEAAXII_N@Z 00000001801c521c f i libucrt:output.obj
 0001:001c421c       ??$type_case_integer_parse_into_buffer@I@?$output_processor@DV?$string_output_adapter@D@__crt_stdio_output@@V?$format_validation_base@DV?$string_output_adapter@D@__crt_stdio_output@@@2@@__crt_stdio_output@@AEAAXII_N@Z 00000001801c521c f i libucrt:output.obj
 0001:001c421c       ??$type_case_integer_parse_into_buffer@I@?$output_processor@DV?$string_output_adapter@D@__crt_stdio_output@@V?$standard_base@DV?$string_output_adapter@D@__crt_stdio_output@@@2@@__crt_stdio_output@@AEAAXII_N@Z 00000001801c521c f i libucrt:output.obj
 0001:001c42a4       ??$type_case_integer_parse_into_buffer@_K@?$output_processor@DV?$stream_output_adapter@D@__crt_stdio_output@@V?$standard_base@DV?$stream_output_adapter@D@__crt_stdio_output@@@2@@__crt_stdio_output@@AEAAX_KI_N@Z 00000001801c52a4 f i libucrt:output.obj
 0001:001c42a4       ??$type_case_integer_parse_into_buffer@_K@?$output_processor@DV?$string_output_adapter@D@__crt_stdio_output@@V?$format_validation_base@DV?$string_output_adapter@D@__crt_stdio_output@@@2@@__crt_stdio_output@@AEAAX_KI_N@Z 00000001801c52a4 f i libucrt:output.obj
 0001:001c42a4       ??$type_case_integer_parse_into_buffer@_K@?$output_processor@DV?$string_output_adapter@D@__crt_stdio_output@@V?$standard_base@DV?$string_output_adapter@D@__crt_stdio_output@@@2@@__crt_stdio_output@@AEAAX_KI_N@Z 00000001801c52a4 f i libucrt:output.obj
 0001:001c4334       ??$write_multiple_characters@V?$stream_output_adapter@D@__crt_stdio_output@@D@__crt_stdio_output@@YAXAEBV?$stream_output_adapter@D@0@DHQEAH@Z 00000001801c5334 f i libucrt:output.obj
 0001:001c43c0       ??$write_multiple_characters@V?$string_output_adapter@D@__crt_stdio_output@@D@__crt_stdio_output@@YAXAEBV?$string_output_adapter@D@0@DHQEAH@Z 00000001801c53c0 f i libucrt:output.obj
 0001:001c4438       ??0_LocaleUpdate@@QEAA@QEAU__crt_locale_pointers@@@Z 00000001801c5438 f i libucrt:output.obj
 0001:001c4610       ?crop_zeroes@__crt_stdio_output@@YAXPEADQEAU__crt_locale_pointers@@@Z 00000001801c5610 f i libucrt:output.obj
 0001:001c46b0       ?force_decimal_point@__crt_stdio_output@@YAXPEADQEAU__crt_locale_pointers@@@Z 00000001801c56b0 f i libucrt:output.obj
 0001:001c4728       ?parse_int_from_format_string@?$output_processor@DV?$stream_output_adapter@D@__crt_stdio_output@@V?$standard_base@DV?$stream_output_adapter@D@__crt_stdio_output@@@2@@__crt_stdio_output@@AEAA_NQEAH@Z 00000001801c5728 f i libucrt:output.obj
 0001:001c4728       ?parse_int_from_format_string@?$output_processor@DV?$string_output_adapter@D@__crt_stdio_output@@V?$format_validation_base@DV?$string_output_adapter@D@__crt_stdio_output@@@2@@__crt_stdio_output@@AEAA_NQEAH@Z 00000001801c5728 f i libucrt:output.obj
 0001:001c4728       ?parse_int_from_format_string@?$output_processor@DV?$string_output_adapter@D@__crt_stdio_output@@V?$standard_base@DV?$string_output_adapter@D@__crt_stdio_output@@@2@@__crt_stdio_output@@AEAA_NQEAH@Z 00000001801c5728 f i libucrt:output.obj
 0001:001c47cc       ?process@?$output_processor@DV?$stream_output_adapter@D@__crt_stdio_output@@V?$standard_base@DV?$stream_output_adapter@D@__crt_stdio_output@@@2@@__crt_stdio_output@@QEAAHXZ 00000001801c57cc f i libucrt:output.obj
 0001:001c49e0       ?process@?$output_processor@DV?$string_output_adapter@D@__crt_stdio_output@@V?$format_validation_base@DV?$string_output_adapter@D@__crt_stdio_output@@@2@@__crt_stdio_output@@QEAAHXZ 00000001801c59e0 f i libucrt:output.obj
 0001:001c4bf4       ?process@?$output_processor@DV?$string_output_adapter@D@__crt_stdio_output@@V?$standard_base@DV?$string_output_adapter@D@__crt_stdio_output@@@2@@__crt_stdio_output@@QEAAHXZ 00000001801c5bf4 f i libucrt:output.obj
 0001:001c4dfc       ?state_case_normal@?$output_processor@DV?$stream_output_adapter@D@__crt_stdio_output@@V?$standard_base@DV?$stream_output_adapter@D@__crt_stdio_output@@@2@@__crt_stdio_output@@AEAA_NXZ 00000001801c5dfc f i libucrt:output.obj
 0001:001c4e6c       ?state_case_normal@?$output_processor@DV?$string_output_adapter@D@__crt_stdio_output@@V?$format_validation_base@DV?$string_output_adapter@D@__crt_stdio_output@@@2@@__crt_stdio_output@@AEAA_NXZ 00000001801c5e6c f i libucrt:output.obj
 0001:001c4e6c       ?state_case_normal@?$output_processor@DV?$string_output_adapter@D@__crt_stdio_output@@V?$standard_base@DV?$string_output_adapter@D@__crt_stdio_output@@@2@@__crt_stdio_output@@AEAA_NXZ 00000001801c5e6c f i libucrt:output.obj
 0001:001c4ee0       ?state_case_normal_tchar@?$output_processor@DV?$stream_output_adapter@D@__crt_stdio_output@@V?$standard_base@DV?$stream_output_adapter@D@__crt_stdio_output@@@2@@__crt_stdio_output@@AEAA_ND@Z 00000001801c5ee0 f i libucrt:output.obj
 0001:001c4f84       ?state_case_normal_tchar@?$output_processor@DV?$string_output_adapter@D@__crt_stdio_output@@V?$format_validation_base@DV?$string_output_adapter@D@__crt_stdio_output@@@2@@__crt_stdio_output@@AEAA_ND@Z 00000001801c5f84 f i libucrt:output.obj
 0001:001c4f84       ?state_case_normal_tchar@?$output_processor@DV?$string_output_adapter@D@__crt_stdio_output@@V?$standard_base@DV?$string_output_adapter@D@__crt_stdio_output@@@2@@__crt_stdio_output@@AEAA_ND@Z 00000001801c5f84 f i libucrt:output.obj
 0001:001c502c       ?state_case_size@?$output_processor@DV?$stream_output_adapter@D@__crt_stdio_output@@V?$standard_base@DV?$stream_output_adapter@D@__crt_stdio_output@@@2@@__crt_stdio_output@@AEAA_NXZ 00000001801c602c f i libucrt:output.obj
 0001:001c519c       ?state_case_size@?$output_processor@DV?$string_output_adapter@D@__crt_stdio_output@@V?$format_validation_base@DV?$string_output_adapter@D@__crt_stdio_output@@@2@@__crt_stdio_output@@AEAA_NXZ 00000001801c619c f i libucrt:output.obj
 0001:001c519c       ?state_case_size@?$output_processor@DV?$string_output_adapter@D@__crt_stdio_output@@V?$standard_base@DV?$string_output_adapter@D@__crt_stdio_output@@@2@@__crt_stdio_output@@AEAA_NXZ 00000001801c619c f i libucrt:output.obj
 0001:001c530c       ?state_case_type@?$output_processor@DV?$stream_output_adapter@D@__crt_stdio_output@@V?$standard_base@DV?$stream_output_adapter@D@__crt_stdio_output@@@2@@__crt_stdio_output@@AEAA_NXZ 00000001801c630c f i libucrt:output.obj
 0001:001c5590       ?state_case_type@?$output_processor@DV?$string_output_adapter@D@__crt_stdio_output@@V?$format_validation_base@DV?$string_output_adapter@D@__crt_stdio_output@@@2@@__crt_stdio_output@@AEAA_NXZ 00000001801c6590 f i libucrt:output.obj
 0001:001c5590       ?state_case_type@?$output_processor@DV?$string_output_adapter@D@__crt_stdio_output@@V?$standard_base@DV?$string_output_adapter@D@__crt_stdio_output@@@2@@__crt_stdio_output@@AEAA_NXZ 00000001801c6590 f i libucrt:output.obj
 0001:001c5800       ?to_integer_size@__crt_stdio_output@@YA_KW4length_modifier@1@@Z 00000001801c6800 f i libucrt:output.obj
 0001:001c5868       ?type_case_Z@?$output_processor@DV?$stream_output_adapter@D@__crt_stdio_output@@V?$standard_base@DV?$stream_output_adapter@D@__crt_stdio_output@@@2@@__crt_stdio_output@@AEAA_NXZ 00000001801c6868 f i libucrt:output.obj
 0001:001c5868       ?type_case_Z@?$output_processor@DV?$string_output_adapter@D@__crt_stdio_output@@V?$format_validation_base@DV?$string_output_adapter@D@__crt_stdio_output@@@2@@__crt_stdio_output@@AEAA_NXZ 00000001801c6868 f i libucrt:output.obj
 0001:001c5868       ?type_case_Z@?$output_processor@DV?$string_output_adapter@D@__crt_stdio_output@@V?$standard_base@DV?$string_output_adapter@D@__crt_stdio_output@@@2@@__crt_stdio_output@@AEAA_NXZ 00000001801c6868 f i libucrt:output.obj
 0001:001c58dc       ?type_case_a@?$output_processor@DV?$stream_output_adapter@D@__crt_stdio_output@@V?$standard_base@DV?$stream_output_adapter@D@__crt_stdio_output@@@2@@__crt_stdio_output@@AEAA_NXZ 00000001801c68dc f i libucrt:output.obj
 0001:001c58dc       ?type_case_a@?$output_processor@DV?$string_output_adapter@D@__crt_stdio_output@@V?$format_validation_base@DV?$string_output_adapter@D@__crt_stdio_output@@@2@@__crt_stdio_output@@AEAA_NXZ 00000001801c68dc f i libucrt:output.obj
 0001:001c58dc       ?type_case_a@?$output_processor@DV?$string_output_adapter@D@__crt_stdio_output@@V?$standard_base@DV?$string_output_adapter@D@__crt_stdio_output@@@2@@__crt_stdio_output@@AEAA_NXZ 00000001801c68dc f i libucrt:output.obj
 0001:001c5a98       ?type_case_c_tchar@?$output_processor@DV?$stream_output_adapter@D@__crt_stdio_output@@V?$standard_base@DV?$stream_output_adapter@D@__crt_stdio_output@@@2@@__crt_stdio_output@@AEAA_ND@Z 00000001801c6a98 f i libucrt:output.obj
 0001:001c5a98       ?type_case_c_tchar@?$output_processor@DV?$string_output_adapter@D@__crt_stdio_output@@V?$format_validation_base@DV?$string_output_adapter@D@__crt_stdio_output@@@2@@__crt_stdio_output@@AEAA_ND@Z 00000001801c6a98 f i libucrt:output.obj
 0001:001c5a98       ?type_case_c_tchar@?$output_processor@DV?$string_output_adapter@D@__crt_stdio_output@@V?$standard_base@DV?$string_output_adapter@D@__crt_stdio_output@@@2@@__crt_stdio_output@@AEAA_ND@Z 00000001801c6a98 f i libucrt:output.obj
 0001:001c5b60       ?type_case_integer@?$output_processor@DV?$stream_output_adapter@D@__crt_stdio_output@@V?$standard_base@DV?$stream_output_adapter@D@__crt_stdio_output@@@2@@__crt_stdio_output@@AEAA_NI_N@Z 00000001801c6b60 f i libucrt:output.obj
 0001:001c5b60       ?type_case_integer@?$output_processor@DV?$string_output_adapter@D@__crt_stdio_output@@V?$format_validation_base@DV?$string_output_adapter@D@__crt_stdio_output@@@2@@__crt_stdio_output@@AEAA_NI_N@Z 00000001801c6b60 f i libucrt:output.obj
 0001:001c5b60       ?type_case_integer@?$output_processor@DV?$string_output_adapter@D@__crt_stdio_output@@V?$standard_base@DV?$string_output_adapter@D@__crt_stdio_output@@@2@@__crt_stdio_output@@AEAA_NI_N@Z 00000001801c6b60 f i libucrt:output.obj
 0001:001c5ce0       ?type_case_n@?$output_processor@DV?$stream_output_adapter@D@__crt_stdio_output@@V?$standard_base@DV?$stream_output_adapter@D@__crt_stdio_output@@@2@@__crt_stdio_output@@AEAA_NXZ 00000001801c6ce0 f i libucrt:output.obj
 0001:001c5ce0       ?type_case_n@?$output_processor@DV?$string_output_adapter@D@__crt_stdio_output@@V?$format_validation_base@DV?$string_output_adapter@D@__crt_stdio_output@@@2@@__crt_stdio_output@@AEAA_NXZ 00000001801c6ce0 f i libucrt:output.obj
 0001:001c5ce0       ?type_case_n@?$output_processor@DV?$string_output_adapter@D@__crt_stdio_output@@V?$standard_base@DV?$string_output_adapter@D@__crt_stdio_output@@@2@@__crt_stdio_output@@AEAA_NXZ 00000001801c6ce0 f i libucrt:output.obj
 0001:001c5d68       ?type_case_s@?$output_processor@DV?$stream_output_adapter@D@__crt_stdio_output@@V?$standard_base@DV?$stream_output_adapter@D@__crt_stdio_output@@@2@@__crt_stdio_output@@AEAA_NXZ 00000001801c6d68 f i libucrt:output.obj
 0001:001c5d68       ?type_case_s@?$output_processor@DV?$string_output_adapter@D@__crt_stdio_output@@V?$format_validation_base@DV?$string_output_adapter@D@__crt_stdio_output@@@2@@__crt_stdio_output@@AEAA_NXZ 00000001801c6d68 f i libucrt:output.obj
 0001:001c5d68       ?type_case_s@?$output_processor@DV?$string_output_adapter@D@__crt_stdio_output@@V?$standard_base@DV?$string_output_adapter@D@__crt_stdio_output@@@2@@__crt_stdio_output@@AEAA_NXZ 00000001801c6d68 f i libucrt:output.obj
 0001:001c5e00       ?validate_stream_is_ansi_if_required@?$__acrt_stdio_char_traits@D@@SA_NQEAU_iobuf@@@Z 00000001801c6e00 f i libucrt:output.obj
 0001:001c5e9c       ?write_stored_string_tchar@?$output_processor@DV?$stream_output_adapter@D@__crt_stdio_output@@V?$standard_base@DV?$stream_output_adapter@D@__crt_stdio_output@@@2@@__crt_stdio_output@@AEAA_ND@Z 00000001801c6e9c f i libucrt:output.obj
 0001:001c5fc0       ?write_stored_string_tchar@?$output_processor@DV?$string_output_adapter@D@__crt_stdio_output@@V?$format_validation_base@DV?$string_output_adapter@D@__crt_stdio_output@@@2@@__crt_stdio_output@@AEAA_ND@Z 00000001801c6fc0 f i libucrt:output.obj
 0001:001c5fc0       ?write_stored_string_tchar@?$output_processor@DV?$string_output_adapter@D@__crt_stdio_output@@V?$standard_base@DV?$string_output_adapter@D@__crt_stdio_output@@@2@@__crt_stdio_output@@AEAA_ND@Z 00000001801c6fc0 f i libucrt:output.obj
 0001:001c609c       ?write_string@?$string_output_adapter@D@__crt_stdio_output@@QEBAXQEBDHQEAHAEAV__crt_deferred_errno_cache@@@Z 00000001801c709c f i libucrt:output.obj
 0001:001c6140       ?write_string_impl@?$output_adapter_common@DV?$stream_output_adapter@D@__crt_stdio_output@@@__crt_stdio_output@@IEBAXQEBDHQEAHAEAV__crt_deferred_errno_cache@@@Z 00000001801c7140 f i libucrt:output.obj
 0001:001c6238       __stdio_common_vfprintf    00000001801c7238 f   libucrt:output.obj
 0001:001c62c4       __stdio_common_vsprintf    00000001801c72c4 f   libucrt:output.obj
 0001:001c62cc       __stdio_common_vsprintf_s  00000001801c72cc f   libucrt:output.obj
 0001:001c6330       _fpclass                   00000001801c7330 f   libucrt:ieeemisc.obj
 0001:001c63c0       powf                       00000001801c73c0 f   libucrt:powf.obj
 0001:001c7288       atan2f                     00000001801c8288 f   libucrt:atan2f.obj
 0001:001c7678       acosf                      00000001801c8678 f   libucrt:acosf.obj
 0001:001c78a4       free                       00000001801c88a4 f   libucrt:free.obj
 0001:001c78b8       _seh_filter_dll            00000001801c88b8 f   libucrt:exception_filter.obj
 0001:001c78cc       _seh_filter_exe            00000001801c88cc f   libucrt:exception_filter.obj
 0001:001c7cbc       __acrt_initialize_thread_local_exit_callback 00000001801c8cbc f   libucrt:exit.obj
 0001:001c7cc4       _cexit                     00000001801c8cc4 f   libucrt:exit.obj
 0001:001c7cd4       _exit                      00000001801c8cd4 f   libucrt:exit.obj
 0001:001c7ce0       _is_c_termination_complete 00000001801c8ce0 f   libucrt:exit.obj
 0001:001c7ea8       __acrt_allocate_buffer_for_argv 00000001801c8ea8 f   libucrt:argv_parsing.obj
 0001:001c7f08       _configure_narrow_argv     00000001801c8f08 f   libucrt:argv_parsing.obj
 0001:001c8280       __dcrt_uninitialize_environments_nolock 00000001801c9280 f   libucrt:environment_initialization.obj
 0001:001c82b8       _initialize_narrow_environment 00000001801c92b8 f   libucrt:environment_initialization.obj
 0001:001c8600       _crt_atexit                00000001801c9600 f   libucrt:onexit.obj
 0001:001c8610       _execute_onexit_table      00000001801c9610 f   libucrt:onexit.obj
 0001:001c864c       _initialize_onexit_table   00000001801c964c f   libucrt:onexit.obj
 0001:001c8674       _register_onexit_function  00000001801c9674 f   libucrt:onexit.obj
 0001:001c86f4       __acrt_uninitialize_command_line 00000001801c96f4 f   libucrt:argv_data.obj
 0001:001c87ec       __acrt_initialize          00000001801c97ec f   libucrt:initialization.obj
 0001:001c8800       __acrt_thread_attach       00000001801c9800 f   libucrt:initialization.obj
 0001:001c8814       __acrt_thread_detach       00000001801c9814 f   libucrt:initialization.obj
 0001:001c8824       __acrt_uninitialize        00000001801c9824 f   libucrt:initialization.obj
 0001:001c885c       __acrt_uninitialize_critical 00000001801c985c f   libucrt:initialization.obj
 0001:001c886c       _initterm                  00000001801c986c f   libucrt:initterm.obj
 0001:001c88d0       _initterm_e                00000001801c98d0 f   libucrt:initterm.obj
 0001:001c8910       terminate                  00000001801c9910 f   libucrt:terminate.obj
 0001:001c8930       abort                      00000001801c9930 f   libucrt:abort.obj
 0001:001c8988       malloc                     00000001801c9988 f   libucrt:malloc.obj
 0001:001c8990       strcpy_s                   00000001801c9990 f   libucrt:strcpy_s.obj
 0001:001c89f0       ??$parse_integer@KV?$c_string_character_source@D@__crt_strtox@@@__crt_strtox@@YAKQEAU__crt_locale_pointers@@V?$c_string_character_source@D@0@H_N@Z 00000001801c99f0 f i libucrt:atox.obj
 0001:001c8cf4       _ischartype_l              00000001801c9cf4 f i libucrt:atox.obj
 0001:001c8d6c       atol                       00000001801c9d6c f   libucrt:atox.obj
 0001:001c8db0       strncmp                    00000001801c9db0 f   libucrt:strncmp.obj
 0001:001c8e30       calloc                     00000001801c9e30 f   libucrt:calloc.obj
 0001:001c8e38       wcsncmp                    00000001801c9e38 f   libucrt:wcsncmp.obj
 0001:001c8e70       __remainder_piby2d2f_forAsm 00000001801c9e70 f   libucrt:remainder_piby2f_forasm.obj
 0001:001c8fc0       __remainder_piby2_fma3     00000001801c9fc0 f   libucrt:remainder_piby2_forfma3.obj
 0001:001c91b0       __remainder_piby2_fma3_bdl 00000001801ca1b0 f   libucrt:remainder_piby2_forfma3.obj
 0001:001c9228       _cosf_special              00000001801ca228 f   libucrt:sincos_special.obj
 0001:001c92c8       _sinf_special              00000001801ca2c8 f   libucrt:sincos_special.obj
 0001:001c92dc       _tanf_special              00000001801ca2dc f   libucrt:sincos_special.obj
 0001:001c92f0       _clrfp                     00000001801ca2f0 f   libucrt:fpctrl.obj
 0001:001c9310       _ctrlfp                    00000001801ca310 f   libucrt:fpctrl.obj
 0001:001c938c       _set_statfp                00000001801ca38c f   libucrt:fpctrl.obj
 0001:001c93ac       _statfp                    00000001801ca3ac f   libucrt:fpctrl.obj
 0001:001c93c0       __acrt_initialize_fma3     00000001801ca3c0 f   libucrt:fma3_available.obj
 0001:001c9430       __remainder_piby2d2f_forC  00000001801ca430 f   libucrt:remainder_piby2f_forc.obj
 0001:001c95bc       __acrt_call_reportfault    00000001801ca5bc f   libucrt:invalid_parameter.obj
 0001:001c9718       __acrt_initialize_invalid_parameter_handler 00000001801ca718 f   libucrt:invalid_parameter.obj
 0001:001c9720       _invalid_parameter         00000001801ca720 f   libucrt:invalid_parameter.obj
 0001:001c97d0       _invalid_parameter_noinfo  00000001801ca7d0 f   libucrt:invalid_parameter.obj
 0001:001c97f0       _invoke_watson             00000001801ca7f0 f   libucrt:invalid_parameter.obj
 0001:001c9838       __acrt_errno_from_os_error 00000001801ca838 f   libucrt:errno.obj
 0001:001c9880       __acrt_errno_map_os_error  00000001801ca880 f   libucrt:errno.obj
 0001:001c98d0       __doserrno                 00000001801ca8d0 f   libucrt:errno.obj
 0001:001c98f0       _errno                     00000001801ca8f0 f   libucrt:errno.obj
 0001:001c9910       _calloc_base               00000001801ca910 f   libucrt:calloc_base.obj
 0001:001c9988       _free_base                 00000001801ca988 f   libucrt:free_base.obj
 0001:001c9ba0       __acrt_AppPolicyGetProcessTerminationMethodInternal 00000001801caba0 f   libucrt:winapi_thunks.obj
 0001:001c9bf0       __acrt_AreFileApisANSI     00000001801cabf0 f   libucrt:winapi_thunks.obj
 0001:001c9c2c       __acrt_FlsAlloc            00000001801cac2c f   libucrt:winapi_thunks.obj
 0001:001c9c74       __acrt_FlsFree             00000001801cac74 f   libucrt:winapi_thunks.obj
 0001:001c9cbc       __acrt_FlsGetValue         00000001801cacbc f   libucrt:winapi_thunks.obj
 0001:001c9d04       __acrt_FlsSetValue         00000001801cad04 f   libucrt:winapi_thunks.obj
 0001:001c9d58       __acrt_InitializeCriticalSectionEx 00000001801cad58 f   libucrt:winapi_thunks.obj
 0001:001c9dbc       __acrt_LCMapStringEx       00000001801cadbc f   libucrt:winapi_thunks.obj
 0001:001c9e98       __acrt_LocaleNameToLCID    00000001801cae98 f   libucrt:winapi_thunks.obj
 0001:001c9ee8       __acrt_initialize_winapi_thunks 00000001801caee8 f   libucrt:winapi_thunks.obj
 0001:001c9f1c       __acrt_uninitialize_winapi_thunks 00000001801caf1c f   libucrt:winapi_thunks.obj
 0001:001c9f60       _fcloseall                 00000001801caf60 f   libucrt:closeall.obj
 0001:001ca1f0       __acrt_stdio_flush_nolock  00000001801cb1f0 f   libucrt:fflush.obj
 0001:001ca26c       _fflush_nolock             00000001801cb26c f   libucrt:fflush.obj
 0001:001ca2b8       _flushall                  00000001801cb2b8 f   libucrt:fflush.obj
 0001:001ca2c0       __acrt_stdio_free_buffer_nolock 00000001801cb2c0 f   libucrt:_freebuf.obj
 0001:001ca4fc       __acrt_initialize_lowio    00000001801cb4fc f   libucrt:ioinit.obj
 0001:001ca538       __acrt_uninitialize_lowio  00000001801cb538 f   libucrt:ioinit.obj
 0001:001ca578       _malloc_base               00000001801cb578 f   libucrt:malloc_base.obj
 0001:001ca5d8       strtol                     00000001801cb5d8 f   libucrt:strtox.obj
 0001:001ca604       _mbtowc_l                  00000001801cb604 f   libucrt:mbtowc.obj
 0001:001ca784       mbtowc                     00000001801cb784 f   libucrt:mbtowc.obj
 0001:001ca78c       _wctomb_s_l                00000001801cb78c f   libucrt:wctomb.obj
 0001:001ca928       strnlen                    00000001801cb928 f   libucrt:strnlen.obj
 0001:001caa78       wcsnlen                    00000001801cba78 f   libucrt:strnlen.obj
 0001:001cafc8       __acrt_freeptd             00000001801cbfc8 f   libucrt:per_thread_data.obj
 0001:001cb00c       __acrt_getptd              00000001801cc00c f   libucrt:per_thread_data.obj
 0001:001cb0e0       __acrt_getptd_head         00000001801cc0e0 f   libucrt:per_thread_data.obj
 0001:001cb188       __acrt_getptd_noexit       00000001801cc188 f   libucrt:per_thread_data.obj
 0001:001cb254       __acrt_initialize_ptd      00000001801cc254 f   libucrt:per_thread_data.obj
 0001:001cb290       __acrt_uninitialize_ptd    00000001801cc290 f   libucrt:per_thread_data.obj
 0001:001cb2b4       __acrt_update_locale_info  00000001801cc2b4 f   libucrt:locale_update.obj
 0001:001cb2e8       __acrt_update_multibyte_info 00000001801cc2e8 f   libucrt:locale_update.obj
 0001:001cbd28       __acrt_fp_format           00000001801ccd28 f   libucrt:cvt.obj
 0001:001cc060       _fileno                    00000001801cd060 f   libucrt:fileno.obj
 0001:001cc088       _fputc_nolock              00000001801cd088 f   libucrt:fputc.obj
 0001:001cc0a0       _get_printf_count_output   00000001801cd0a0 f   libucrt:printf_count_output.obj
 0001:001cc0b8       __acrt_should_use_temporary_buffer 00000001801cd0b8 f   libucrt:_sftbuf.obj
 0001:001cc100       __acrt_stdio_begin_temporary_buffering_nolock 00000001801cd100 f   libucrt:_sftbuf.obj
 0001:001cc1c8       __acrt_stdio_end_temporary_buffering_nolock 00000001801cd1c8 f   libucrt:_sftbuf.obj
 0001:001cc274       __acrt_set_locale_changed  00000001801cd274 f   libucrt:wsetlocale.obj
 0001:001cc280       __acrt_uninitialize_locale 00000001801cd280 f   libucrt:wsetlocale.obj
 0001:001cc3d4       _handle_error              00000001801cd3d4 f   libucrt:libm_error.obj
 0001:001cc4fc       _handle_errorf             00000001801cd4fc f   libucrt:libm_error.obj
 0001:001cc630       _handle_nan                00000001801cd630 f   libucrt:libm_error.obj
 0001:001cc64c       _handle_nanf               00000001801cd64c f   libucrt:libm_error.obj
 0001:001cc660       _powf_special              00000001801cd660 f   libucrt:pow_special.obj
 0001:001cc7ec       __acrt_initialize_locks    00000001801cd7ec f   libucrt:locks.obj
 0001:001cc834       __acrt_lock                00000001801cd834 f   libucrt:locks.obj
 0001:001cc850       __acrt_uninitialize_locks  00000001801cd850 f   libucrt:locks.obj
 0001:001cc888       __acrt_unlock              00000001801cd888 f   libucrt:locks.obj
 0001:001cc8a4       __acrt_get_process_end_policy 00000001801cd8a4 f   libucrt:win_policies.obj
 0001:001cc8f4       ??$__acrt_mbs_to_wcs_cp@U__crt_win32_buffer_internal_dynamic_resizing@@@@YAHQEBDAEAV?$__crt_win32_buffer@_WU__crt_win32_buffer_internal_dynamic_resizing@@@@I@Z 00000001801cd8f4 f i libucrt:argv_wildcards.obj
 0001:001cca6c       ??$__acrt_wcs_to_mbs_cp@U__crt_win32_buffer_internal_dynamic_resizing@@@@YAHQEB_WAEAV?$__crt_win32_buffer@DU__crt_win32_buffer_internal_dynamic_resizing@@@@I@Z 00000001801cda6c f i libucrt:argv_wildcards.obj
 0001:001cd29c       __acrt_expand_narrow_argv_wildcards 00000001801ce29c f   libucrt:argv_wildcards.obj
 0001:001cd2a4       ??$__acrt_wcs_to_mbs_cp@U__crt_win32_buffer_no_resizing@@@@YAHQEB_WAEAV?$__crt_win32_buffer@DU__crt_win32_buffer_no_resizing@@@@I@Z 00000001801ce2a4 f i libucrt:getmodulefilenamea.obj
 0001:001cd3b8       __acrt_GetModuleFileNameA  00000001801ce3b8 f   libucrt:getmodulefilenamea.obj
 0001:001cdc00       __acrt_initialize_multibyte 00000001801cec00 f   libucrt:mbctype.obj
 0001:001cdc60       __acrt_update_thread_multibyte_data 00000001801cec60 f   libucrt:mbctype.obj
 0001:001cdc7c       _setmbcp_nolock            00000001801cec7c f   libucrt:mbctype.obj
 0001:001cdfb0       _ismbblead                 00000001801cefb0 f   libucrt:ismbbyte.obj
 0001:001cdfc4       __acrt_initialize_command_line 00000001801cefc4 f   libucrt:argv_data.obj
 0001:001cdfec       __acrt_MultiByteToWideChar 00000001801cefec f   libucrt:multibytetowidechar.obj
 0001:001ce048       __acrt_WideCharToMultiByte 00000001801cf048 f   libucrt:widechartomultibyte.obj
 0001:001ce0f8       __dcrt_get_narrow_environment_from_os 00000001801cf0f8 f   libucrt:get_environment_from_os.obj
 0001:001ce1fc       _recalloc_base             00000001801cf1fc f   libucrt:recalloc.obj
 0001:001ce294       __acrt_initialize_heap     00000001801cf294 f   libucrt:heap_handle.obj
 0001:001ce2b0       __acrt_uninitialize_heap   00000001801cf2b0 f   libucrt:heap_handle.obj
 0001:001ce2bc       __acrt_execute_initializers 00000001801cf2bc f   libucrt:shared_initialization.obj
 0001:001ce33c       __acrt_execute_uninitializers 00000001801cf33c f   libucrt:shared_initialization.obj
 0001:001ce378       __acrt_initialize_new_handler 00000001801cf378 f   libucrt:new_handler.obj
 0001:001ce380       _callnewh                  00000001801cf380 f   libucrt:new_handler.obj
 0001:001ce3b0       _query_new_handler         00000001801cf3b0 f   libucrt:new_handler.obj
 0001:001ce42c       __acrt_get_sigabrt_handler 00000001801cf42c f   libucrt:signal.obj
 0001:001ce45c       __acrt_initialize_signal_handlers 00000001801cf45c f   libucrt:signal.obj
 0001:001ce47c       raise                      00000001801cf47c f   libucrt:signal.obj
 0001:001ce6e8       __acrt_has_user_matherr    00000001801cf6e8 f   libucrt:matherr.obj
 0001:001ce708       __acrt_initialize_user_matherr 00000001801cf708 f   libucrt:matherr.obj
 0001:001ce710       __acrt_invoke_user_matherr 00000001801cf710 f   libucrt:matherr.obj
 0001:001ce740       __pctype_func              00000001801cf740 f   libucrt:ctype.obj
 0001:001ce770       _isctype_l                 00000001801cf770 f   libucrt:isctype.obj
 0001:001ce890       _get_fpsr                  00000001801cf890 f   libucrt:fpsr.obj
 0001:001ce8a0       _set_fpsr                  00000001801cf8a0 f   libucrt:fpsr.obj
 0001:001ce8aa       _fclrf                     00000001801cf8aa f   libucrt:fpsr.obj
 0001:001ce8be       _frnd                      00000001801cf8be f   libucrt:fpsr.obj
 0001:001ce8e0       _query_new_mode            00000001801cf8e0 f   libucrt:new_mode.obj
 0001:001ce8e8       __acrt_DownlevelLocaleNameToLCID 00000001801cf8e8 f   libucrt:lcidtoname_downlevel.obj
 0001:001ce998       _fclose_nolock             00000001801cf998 f   libucrt:fclose.obj
 0001:001cea1c       fclose                     00000001801cfa1c f   libucrt:fclose.obj
 0001:001ceb0c       _commit                    00000001801cfb0c f   libucrt:commit.obj
 0001:001cf41c       _write                     00000001801d041c f   libucrt:write.obj
 0001:001cf508       _write_nolock              00000001801d0508 f   libucrt:write.obj
 0001:001cf7ec       __acrt_lowio_create_handle_array 00000001801d07ec f   libucrt:osfinfo.obj
 0001:001cf894       __acrt_lowio_destroy_handle_array 00000001801d0894 f   libucrt:osfinfo.obj
 0001:001cf8e4       __acrt_lowio_ensure_fh_exists 00000001801d08e4 f   libucrt:osfinfo.obj
 0001:001cf98c       __acrt_lowio_lock_fh       00000001801d098c f   libucrt:osfinfo.obj
 0001:001cf9b4       __acrt_lowio_unlock_fh     00000001801d09b4 f   libucrt:osfinfo.obj
 0001:001cf9dc       _free_osfhnd               00000001801d09dc f   libucrt:osfinfo.obj
 0001:001cfa98       _get_osfhandle             00000001801d0a98 f   libucrt:osfinfo.obj
 0001:001cfb10       _isleadbyte_l              00000001801d0b10 f i libucrt:_wctype.obj
 0001:001cfb5c       ?__mbrtowc_utf8@__crt_mbstring@@YA_KPEA_WPEBD_KPEAU_Mbstatet@@@Z 00000001801d0b5c f   libucrt:mbrtowc.obj
 0001:001cfb98       ?__mbsrtowcs_utf8@__crt_mbstring@@YA_KPEA_WPEAPEBD_KPEAU_Mbstatet@@@Z 00000001801d0b98 f   libucrt:mbrtowc.obj
 0001:001cfd10       ?__c32rtomb_utf8@__crt_mbstring@@YA_KPEAD_UPEAU_Mbstatet@@@Z 00000001801d0d10 f   libucrt:c32rtomb.obj
 0001:001cfdc4       __acrt_add_locale_ref      00000001801d0dc4 f   libucrt:locale_refcounting.obj
 0001:001cfe50       __acrt_free_locale         00000001801d0e50 f   libucrt:locale_refcounting.obj
 0001:001cffc8       __acrt_locale_add_lc_time_reference 00000001801d0fc8 f   libucrt:locale_refcounting.obj
 0001:001cfff0       __acrt_locale_free_lc_time_if_unreferenced 00000001801d0ff0 f   libucrt:locale_refcounting.obj
 0001:001d0028       __acrt_locale_release_lc_time_reference 00000001801d1028 f   libucrt:locale_refcounting.obj
 0001:001d0050       __acrt_release_locale_ref  00000001801d1050 f   libucrt:locale_refcounting.obj
 0001:001d00f8       __acrt_update_thread_locale_data 00000001801d10f8 f   libucrt:locale_refcounting.obj
 0001:001d0168       _updatetlocinfoEx_nolock   00000001801d1168 f   libucrt:locale_refcounting.obj
 0001:001d01d0       __acrt_fp_strflt_to_string 00000001801d11d0 f   libucrt:_fptostr.obj
 0001:001d0330       ?divide@__crt_strtox@@YA_KAEAUbig_integer@1@AEBU21@@Z 00000001801d1330 f i libucrt:cfout.obj
 0001:001d075c       __acrt_fltout              00000001801d175c f   libucrt:cfout.obj
 0001:001d1a28       fegetround                 00000001801d2a28 f   libucrt:fegetround.obj
 0001:001d1b9c       __acrt_stdio_flush_and_write_narrow_nolock 00000001801d2b9c f   libucrt:_flsbuf.obj
 0001:001d1c54       _isatty                    00000001801d2c54 f   libucrt:isatty.obj
 0001:001d1cb4       __acrt_locale_free_monetary 00000001801d2cb4 f   libucrt:initmon.obj
 0001:001d1dc0       __acrt_locale_free_numeric 00000001801d2dc0 f   libucrt:initnum.obj
 0001:001d1e84       __acrt_locale_free_time    00000001801d2e84 f   libucrt:inittime.obj
 0001:001d1f8c       __acrt_GetStringTypeA      00000001801d2f8c f   libucrt:getstringtypea.obj
 0001:001d211c       _raise_exc                 00000001801d311c f   libucrt:fpexcept.obj
 0001:001d2144       _raise_exc_ex              00000001801d3144 f   libucrt:fpexcept.obj
 0001:001d2454       _raise_excf                00000001801d3454 f   libucrt:fpexcept.obj
 0001:001d2480       _set_errno_from_matherr    00000001801d3480 f   libucrt:fpexcept.obj
 0001:001d24b0       qsort                      00000001801d34b0 f   libucrt:qsort.obj
 0001:001d2850       strncpy_s                  00000001801d3850 f   libucrt:strncpy_s.obj
 0001:001d29d0       strpbrk                    00000001801d39d0 f   libucrt:strpbrk.obj
 0001:001d2d98       _mbsdec                    00000001801d3d98 f   libucrt:mbsdec.obj
 0001:001d2da0       _mbsdec_l                  00000001801d3da0 f   libucrt:mbsdec.obj
 0001:001d314c       __acrt_LCMapStringA        00000001801d414c f   libucrt:lcmapstringa.obj
 0001:001d31fc       _msize_base                00000001801d41fc f   libucrt:msize.obj
 0001:001d3238       _realloc_base              00000001801d4238 f   libucrt:realloc_base.obj
 0001:001d32b4       __ascii_wcsnicmp           00000001801d42b4 f   libucrt:wcsnicmp.obj
 0001:001d3374       _close                     00000001801d4374 f   libucrt:close.obj
 0001:001d3418       _close_nolock              00000001801d4418 f   libucrt:close.obj
 0001:001d34d8       ?__acrt_stdio_free_stream@@YAXV__crt_stdio_stream@@@Z 00000001801d44d8 f   libucrt:stream.obj
 0001:001d3680       _lseeki64                  00000001801d4680 f   libucrt:lseek.obj
 0001:001d3688       _lseeki64_nolock           00000001801d4688 f   libucrt:lseek.obj
 0001:001d3690       _putwch_nolock             00000001801d4690 f   libucrt:putwch.obj
 0001:001d36cc       _query_app_type            00000001801d46cc f   libucrt:report_runtime_error.obj
 0001:001d36d4       ?__mbrtoc32_utf8@__crt_mbstring@@YA_KPEA_UPEBD_KPEAU_Mbstatet@@@Z 00000001801d46d4 f   libucrt:mbrtoc32.obj
 0001:001d38ac       _controlfp_s               00000001801d48ac f   libucrt:contrlfp.obj
 0001:001d3910       fegetenv                   00000001801d4910 f   libucrt:fegetenv.obj
 0001:001d3930       fesetenv                   00000001801d4930 f   libucrt:fesetenv.obj
 0001:001d397c       feholdexcept               00000001801d497c f   libucrt:feholdexcept.obj
 0001:001d39cc       ceil                       00000001801d49cc f   libucrt:ceil.obj
 0001:001d3a90       log10                      00000001801d4a90 f   libucrt:log10.obj
 0001:001d403c       __acrt_fenv_get_common_round_control 00000001801d503c f   libucrt:_fenvutils.obj
 0001:001d4048       __acrt_fenv_get_control    00000001801d5048 f   libucrt:_fenvutils.obj
 0001:001d413c       __acrt_fenv_get_status     00000001801d513c f   libucrt:_fenvutils.obj
 0001:001d4190       __acrt_fenv_set_control    00000001801d5190 f   libucrt:_fenvutils.obj
 0001:001d42d8       __acrt_fenv_set_status     00000001801d52d8 f   libucrt:_fenvutils.obj
 0001:001d435c       __acrt_stdio_allocate_buffer_nolock 00000001801d535c f   libucrt:_getbuf.obj
 0001:001d43c8       __strncnt                  00000001801d53c8 f   libucrt:strncnt.obj
 0001:001d43e0       __dcrt_lowio_ensure_console_output_initialized 00000001801d53e0 f   libucrt:initcon.obj
 0001:001d4434       __dcrt_terminate_console_output 00000001801d5434 f   libucrt:initcon.obj
 0001:001d4450       __dcrt_write_console       00000001801d5450 f   libucrt:initcon.obj
 0001:001d4510       _clearfp                   00000001801d5510 f   libucrt:ieee.obj
 0001:001d4580       _control87                 00000001801d5580 f   libucrt:ieee.obj
 0001:001d4850       _log10_special             00000001801d5850 f   libucrt:log_special.obj
 0001:001d4910       _FindPESection             00000001801d5910 f   LIBCMT:pesect.obj
 0001:001d4960       _IsNonwritableInCurrentImage 00000001801d5960 f   LIBCMT:pesect.obj
 0001:001d49b0       _ValidateImageBase         00000001801d59b0 f   LIBCMT:pesect.obj
 0001:001d49dc       __GSHandlerCheck           00000001801d59dc f   LIBCMT:gshandler.obj
 0001:001d49fc       __GSHandlerCheckCommon     00000001801d59fc f   LIBCMT:gshandler.obj
 0001:001d4a70       __security_check_cookie    00000001801d5a70 f   LIBCMT:amdsecgs.obj
 0001:001d4a90       __GSHandlerCheck_SEH       00000001801d5a90 f   LIBCMT:gshandlerseh.obj
 0001:001d4b18       __raise_securityfailure    00000001801d5b18 f   LIBCMT:gs_report.obj
 0001:001d4b4c       __report_gsfailure         00000001801d5b4c f   LIBCMT:gs_report.obj
 0001:001d4c20       __report_rangecheckfailure 00000001801d5c20 f   LIBCMT:gs_report.obj
 0001:001d4c34       __report_securityfailure   00000001801d5c34 f   LIBCMT:gs_report.obj
 0001:001d4db4       strrchr                    00000001801d5db4 f   libvcruntime:strrchr.obj
 0001:001d4f00       memcmp                     00000001801d5f00 f   libvcruntime:memcmp.obj
 0001:001d4fe0       _guard_dispatch_icall_nop  00000001801d5fe0 f   LIBCMT:guard_dispatch.obj
 0001:001d5000       _guard_xfg_dispatch_icall_nop 00000001801d6000 f   LIBCMT:guard_xfg_dispatch.obj
 0002:00000000       __imp_GetLastError         00000001801d7000     kernel32:KERNEL32.dll
 0002:00000008       __imp_FreeLibrary          00000001801d7008     kernel32:KERNEL32.dll
 0002:00000010       __imp_GetProcAddress       00000001801d7010     kernel32:KERNEL32.dll
 0002:00000018       __imp_LoadLibraryA         00000001801d7018     kernel32:KERNEL32.dll
 0002:00000020       __imp_WriteConsoleW        00000001801d7020     kernel32:KERNEL32.dll
 0002:00000028       __imp_RaiseException       00000001801d7028     kernel32:KERNEL32.dll
 0002:00000030       __imp_GetSystemInfo        00000001801d7030     kernel32:KERNEL32.dll
 0002:00000038       __imp_VirtualProtect       00000001801d7038     kernel32:KERNEL32.dll
 0002:00000040       __imp_VirtualQuery         00000001801d7040     kernel32:KERNEL32.dll
 0002:00000048       __imp_GetModuleHandleW     00000001801d7048     kernel32:KERNEL32.dll
 0002:00000050       __imp_LoadLibraryExA       00000001801d7050     kernel32:KERNEL32.dll
 0002:00000058       __imp_InitializeSListHead  00000001801d7058     kernel32:KERNEL32.dll
 0002:00000060       __imp_RtlCaptureContext    00000001801d7060     kernel32:KERNEL32.dll
 0002:00000068       __imp_RtlLookupFunctionEntry 00000001801d7068     kernel32:KERNEL32.dll
 0002:00000070       __imp_RtlVirtualUnwind     00000001801d7070     kernel32:KERNEL32.dll
 0002:00000078       __imp_IsDebuggerPresent    00000001801d7078     kernel32:KERNEL32.dll
 0002:00000080       __imp_UnhandledExceptionFilter 00000001801d7080     kernel32:KERNEL32.dll
 0002:00000088       __imp_SetUnhandledExceptionFilter 00000001801d7088     kernel32:KERNEL32.dll
 0002:00000090       __imp_GetStartupInfoW      00000001801d7090     kernel32:KERNEL32.dll
 0002:00000098       __imp_IsProcessorFeaturePresent 00000001801d7098     kernel32:KERNEL32.dll
 0002:000000a0       __imp_QueryPerformanceCounter 00000001801d70a0     kernel32:KERNEL32.dll
 0002:000000a8       __imp_GetCurrentProcessId  00000001801d70a8     kernel32:KERNEL32.dll
 0002:000000b0       __imp_GetCurrentThreadId   00000001801d70b0     kernel32:KERNEL32.dll
 0002:000000b8       __imp_GetSystemTimeAsFileTime 00000001801d70b8     kernel32:KERNEL32.dll
 0002:000000c0       __imp_InterlockedPushEntrySList 00000001801d70c0     kernel32:KERNEL32.dll
 0002:000000c8       __imp_InterlockedFlushSList 00000001801d70c8     kernel32:KERNEL32.dll
 0002:000000d0       __imp_RtlUnwindEx          00000001801d70d0     kernel32:KERNEL32.dll
 0002:000000d8       __imp_SetLastError         00000001801d70d8     kernel32:KERNEL32.dll
 0002:000000e0       __imp_EnterCriticalSection 00000001801d70e0     kernel32:KERNEL32.dll
 0002:000000e8       __imp_LeaveCriticalSection 00000001801d70e8     kernel32:KERNEL32.dll
 0002:000000f0       __imp_DeleteCriticalSection 00000001801d70f0     kernel32:KERNEL32.dll
 0002:000000f8       __imp_InitializeCriticalSectionAndSpinCount 00000001801d70f8     kernel32:KERNEL32.dll
 0002:00000100       __imp_TlsAlloc             00000001801d7100     kernel32:KERNEL32.dll
 0002:00000108       __imp_TlsGetValue          00000001801d7108     kernel32:KERNEL32.dll
 0002:00000110       __imp_TlsSetValue          00000001801d7110     kernel32:KERNEL32.dll
 0002:00000118       __imp_TlsFree              00000001801d7118     kernel32:KERNEL32.dll
 0002:00000120       __imp_LoadLibraryExW       00000001801d7120     kernel32:KERNEL32.dll
 0002:00000128       __imp_EncodePointer        00000001801d7128     kernel32:KERNEL32.dll
 0002:00000130       __imp_RtlPcToFileHeader    00000001801d7130     kernel32:KERNEL32.dll
 0002:00000138       __imp_RtlUnwind            00000001801d7138     kernel32:KERNEL32.dll
 0002:00000140       __imp_GetCurrentProcess    00000001801d7140     kernel32:KERNEL32.dll
 0002:00000148       __imp_ExitProcess          00000001801d7148     kernel32:KERNEL32.dll
 0002:00000150       __imp_TerminateProcess     00000001801d7150     kernel32:KERNEL32.dll
 0002:00000158       __imp_GetModuleHandleExW   00000001801d7158     kernel32:KERNEL32.dll
 0002:00000160       __imp_GetModuleFileNameW   00000001801d7160     kernel32:KERNEL32.dll
 0002:00000168       __imp_HeapAlloc            00000001801d7168     kernel32:KERNEL32.dll
 0002:00000170       __imp_HeapFree             00000001801d7170     kernel32:KERNEL32.dll
 0002:00000178       __imp_LCMapStringW         00000001801d7178     kernel32:KERNEL32.dll
 0002:00000180       __imp_GetStdHandle         00000001801d7180     kernel32:KERNEL32.dll
 0002:00000188       __imp_GetFileType          00000001801d7188     kernel32:KERNEL32.dll
 0002:00000190       __imp_FindClose            00000001801d7190     kernel32:KERNEL32.dll
 0002:00000198       __imp_FindFirstFileExW     00000001801d7198     kernel32:KERNEL32.dll
 0002:000001a0       __imp_FindNextFileW        00000001801d71a0     kernel32:KERNEL32.dll
 0002:000001a8       __imp_IsValidCodePage      00000001801d71a8     kernel32:KERNEL32.dll
 0002:000001b0       __imp_GetACP               00000001801d71b0     kernel32:KERNEL32.dll
 0002:000001b8       __imp_GetOEMCP             00000001801d71b8     kernel32:KERNEL32.dll
 0002:000001c0       __imp_GetCPInfo            00000001801d71c0     kernel32:KERNEL32.dll
 0002:000001c8       __imp_GetCommandLineA      00000001801d71c8     kernel32:KERNEL32.dll
 0002:000001d0       __imp_GetCommandLineW      00000001801d71d0     kernel32:KERNEL32.dll
 0002:000001d8       __imp_MultiByteToWideChar  00000001801d71d8     kernel32:KERNEL32.dll
 0002:000001e0       __imp_WideCharToMultiByte  00000001801d71e0     kernel32:KERNEL32.dll
 0002:000001e8       __imp_GetEnvironmentStringsW 00000001801d71e8     kernel32:KERNEL32.dll
 0002:000001f0       __imp_FreeEnvironmentStringsW 00000001801d71f0     kernel32:KERNEL32.dll
 0002:000001f8       __imp_GetProcessHeap       00000001801d71f8     kernel32:KERNEL32.dll
 0002:00000200       __imp_FlushFileBuffers     00000001801d7200     kernel32:KERNEL32.dll
 0002:00000208       __imp_WriteFile            00000001801d7208     kernel32:KERNEL32.dll
 0002:00000210       __imp_GetConsoleOutputCP   00000001801d7210     kernel32:KERNEL32.dll
 0002:00000218       __imp_GetConsoleMode       00000001801d7218     kernel32:KERNEL32.dll
 0002:00000220       __imp_SetStdHandle         00000001801d7220     kernel32:KERNEL32.dll
 0002:00000228       __imp_GetFileSizeEx        00000001801d7228     kernel32:KERNEL32.dll
 0002:00000230       __imp_SetFilePointerEx     00000001801d7230     kernel32:KERNEL32.dll
 0002:00000238       __imp_GetStringTypeW       00000001801d7238     kernel32:KERNEL32.dll
 0002:00000240       __imp_HeapSize             00000001801d7240     kernel32:KERNEL32.dll
 0002:00000248       __imp_HeapReAlloc          00000001801d7248     kernel32:KERNEL32.dll
 0002:00000250       __imp_CloseHandle          00000001801d7250     kernel32:KERNEL32.dll
 0002:00000258       __imp_CreateFileW          00000001801d7258     kernel32:KERNEL32.dll
 0002:00000260       \177KERNEL32_NULL_THUNK_DATA 00000001801d7260     kernel32:KERNEL32.dll
 0002:00000268       __guard_check_icall_fptr   00000001801d7268     LIBCMT:guard_support.obj
 0002:00000270       __guard_xfg_check_icall_fptr 00000001801d7270     LIBCMT:guard_support.obj
 0002:00000278       __guard_dispatch_icall_fptr 00000001801d7278     LIBCMT:guard_support.obj
 0002:00000280       __guard_xfg_dispatch_icall_fptr 00000001801d7280     LIBCMT:guard_support.obj
 0002:00000288       __guard_xfg_table_dispatch_icall_fptr 00000001801d7288     LIBCMT:guard_support.obj
 0002:00000290       __castguard_check_failure_os_handled_fptr 00000001801d7290     LIBCMT:guard_support.obj
 0002:00000298       __guard_memcpy_fptr        00000001801d7298     libvcruntime:softmemtag.obj
 0002:000002a0       __xc_a                     00000001801d72a0     LIBCMT:initializers.obj
 0002:00001c78       __xc_z                     00000001801d8c78     LIBCMT:initializers.obj
 0002:00001c80       __xi_a                     00000001801d8c80     LIBCMT:initializers.obj
 0002:00001c88       __acrt_stdio_initializer   00000001801d8c88     libucrt:stdio_initializer.obj
 0002:00001c90       __acrt_tran_fma3_initializer 00000001801d8c90     libucrt:fma3_initializer.obj
 0002:00001c98       __acrt_multibyte_initializer 00000001801d8c98     libucrt:multibyte_initializer.obj
 0002:00001ca0       __xi_z                     00000001801d8ca0     LIBCMT:initializers.obj
 0002:00001ca8       __xp_a                     00000001801d8ca8     LIBCMT:initializers.obj
 0002:00001cb0       __acrt_locale_terminator   00000001801d8cb0     libucrt:locale_initializer.obj
 0002:00001cb8       __dcrt_console_output_terminator 00000001801d8cb8     libucrt:console_output_initializer.obj
 0002:00001cc0       __acrt_stdio_terminator    00000001801d8cc0     libucrt:stdio_initializer.obj
 0002:00001cc8       __xp_z                     00000001801d8cc8     LIBCMT:initializers.obj
 0002:00001cd0       __xt_a                     00000001801d8cd0     LIBCMT:initializers.obj
 0002:00001cd8       __xt_z                     00000001801d8cd8     LIBCMT:initializers.obj
 0002:00001ce0       ??_C@_08MDGMHCHN@PtrTable@ 00000001801d8ce0     CmPtrTable.obj
 0002:00001cec       ??_C@_04GKJNKENE@void@     00000001801d8cec     CmPtrTable.obj
 0002:00001cf8       ??_C@_07DFEBJDHE@mSingle@  00000001801d8cf8     CmPtrTable.obj
 0002:00001d00       ??_C@_05NLHHBMOH@PxU16@    00000001801d8d00     CmPtrTable.obj
 0002:00001d08       ??_C@_06EPKHJPIM@mCount@   00000001801d8d08     CmPtrTable.obj
 0002:00001d10       ??_C@_04DDKJGDCM@bool@     00000001801d8d10     CmPtrTable.obj
 0002:00001d18       ??_C@_0M@DAGELID@mOwnsMemory@ 00000001801d8d18     CmPtrTable.obj
 0002:00001d28       ??_C@_0M@MMPOMMLP@mBufferUsed@ 00000001801d8d28     CmPtrTable.obj
 0002:00001d34       ??_C@_05LMJPANIN@PxU32@    00000001801d8d34     CmPtrTable.obj
 0002:00001d40       ??_C@_09PMLNMEMN@mFreeSlot@ 00000001801d8d40     CmPtrTable.obj
 0002:00001d50       ??_7PxCollection@physx@@6B@ 00000001801d8d50     CmCollection.obj
 0002:00001dd0       ??_C@_00CNPNBAHC@@         00000001801d8dd0     CmCollection.obj
 0002:00001dd8       ??_7Collection@Cm@physx@@6B@ 00000001801d8dd8     CmCollection.obj
 0002:00001e60       ??_C@_0GE@GBACBMOC@PxCollection?3?3add?5called?5for?5an@ 00000001801d8e60     CmCollection.obj
 0002:00001ec8       ??_C@_0DL@FFKJACKE@E?3?2tmp?2PhysX?9main?2physx?2source?2@ 00000001801d8ec8     CmCollection.obj
 0002:00001f10       ??_C@_0EM@OMMGDOMK@PxCollection?3?3add?5called?5with?5a@ 00000001801d8f10     CmCollection.obj
 0002:00001f60       ??_C@_0DN@LKKFDGCO@E?3?2tmp?2PhysX?9main?2physx?2include@ 00000001801d8f60     CmCollection.obj
 0002:00001fa0       ??_C@_0BM@OIFKLHDN@?$DMallocation?5names?5disabled?$DO@ 00000001801d8fa0     CmCollection.obj
 0002:00001fc0       ??_7RadixSort@Cm@physx@@6B@ 00000001801d8fc0     CmRadixSort.obj
 0002:00001fc8       ??_7RadixSortBuffered@Cm@physx@@6B@ 00000001801d8fc8     CmRadixSort.obj
 0002:00001fd0       ??_C@_0DK@HELEOJIG@E?3?2tmp?2PhysX?9main?2physx?2source?2@ 00000001801d8fd0     CmRadixSort.obj
 0002:00002010       __xmm@00000001000000010000000100000001 00000001801d9010     CmRadixSort.obj
 0002:00002020       __xmm@00000003000000020000000100000000 00000001801d9020     CmRadixSort.obj
 0002:00002030       __real@3d4ccccd            00000001801d9030     CmVisualization.obj
 0002:00002034       __real@3e19999a            00000001801d9034     CmVisualization.obj
 0002:00002038       __real@3e490fdb            00000001801d9038     CmVisualization.obj
 0002:0000203c       __real@3e800000            00000001801d903c     CmVisualization.obj
 0002:00002040       __real@3e99999a            00000001801d9040     CmVisualization.obj
 0002:00002044       __real@3ea0d97c            00000001801d9044     CmVisualization.obj
 0002:00002048       __real@3eddb3d7            00000001801d9048     CmVisualization.obj
 0002:0000204c       __real@3f3504f3            00000001801d904c     CmVisualization.obj
 0002:00002050       __real@3f800000            00000001801d9050     CmVisualization.obj
 0002:00002054       __real@3fc00000            00000001801d9054     CmVisualization.obj
 0002:00002058       __real@3fddb3d7            00000001801d9058     CmVisualization.obj
 0002:0000205c       __real@40100000            00000001801d905c     CmVisualization.obj
 0002:00002060       __real@40c90fdb            00000001801d9060     CmVisualization.obj
 0002:00002064       __real@bfddb3d7            00000001801d9064     CmVisualization.obj
 0002:00002068       __real@c0000000            00000001801d9068     CmVisualization.obj
 0002:00002070       __xmm@3f800000000000000000000000000000 00000001801d9070     CmVisualization.obj
 0002:00002080       __xmm@7fffffff7fffffff7fffffff7fffffff 00000001801d9080     CmVisualization.obj
 0002:00002090       __xmm@80000000800000008000000080000000 00000001801d9090     CmVisualization.obj
 0002:000020a0       ??_C@_0BB@CPDDPFKD@GetUpdatedModule@ 00000001801d90a0     CmWindowsModuleUpdateLoader.obj
 0002:000020c0       ??_C@_0FC@MGIAGHOI@E?3?2tmp?2PhysX?9main?2physx?2source?2@ 00000001801d90c0     CmWindowsModuleUpdateLoader.obj
 0002:00002118       ??_C@_0CP@PGOIOJOO@?$CFs?3?$CFi?3?5loadLibrary?5error?5when?5l@ 00000001801d9118     CmWindowsModuleUpdateLoader.obj
 0002:00002148       ??_C@_0BA@EGLNOO@PhysXFoundation@ 00000001801d9148     CmWindowsDelayLoadHook.obj
 0002:00002158       ??_C@_0M@ILKNCJKN@PhysXCommon@ 00000001801d9158     CmWindowsDelayLoadHook.obj
 0002:00002190       __real@3f000000            00000001801d9190     GuBox.obj
 0002:00002194       __real@3f7ff972            00000001801d9194     GuBox.obj
 0002:000021a0       __xmm@000000003a83126f3a83126f3a83126f 00000001801d91a0     GuBox.obj
 0002:000021b0       __xmm@00000000ba83126fba83126fba83126f 00000001801d91b0     GuBox.obj
 0002:000021c0       __xmm@3a83126f3a83126f3a83126f3a83126f 00000001801d91c0     GuBox.obj
 0002:000021d0       __xmm@ba83126fba83126fba83126fba83126f 00000001801d91d0     GuBox.obj
 0002:00002200       ??_7EntityReport@Gu@physx@@6B@ 00000001801d9200     GuSweepsHF.obj
 0002:00002200       ??_7OverlapCallback@PxBVH@physx@@6B@ 00000001801d9200     GuQuerySystem.obj
 0002:00002200       ??_7OverlapReport@Gu@physx@@6B@ 00000001801d9200     GuCCTSweepTests.obj
 0002:00002200       ??_7RaycastCallback@PxBVH@physx@@6B@ 00000001801d9200     GuQuerySystem.obj
 0002:00002200       ??_7RemapCallback@RTreeCooker@physx@@6B@ 00000001801d9200     GuCookingTriangleMesh.obj
 0002:00002220       __real@3b03126f            00000001801d9220     GuCCTSweepTests.obj
 0002:00002224       __real@40000000            00000001801d9224     GuCCTSweepTests.obj
 0002:00002260       ??_7SupportLocal@Gu@physx@@6B@ 00000001801d9260     GuGeometryQuery.obj
 0002:00002280       ??_7?$SupportLocalImpl@VBoxV@Gu@physx@@@Gu@physx@@6B@ 00000001801d9280     GuGeometryQuery.obj
 0002:000022a0       ??_7?$SupportLocalImpl@VConvexHullV@Gu@physx@@@Gu@physx@@6B@ 00000001801d92a0     GuGeometryQuery.obj
 0002:000022c0       ??_C@_0DF@DIGCAGJO@E?3?2tmp?2PhysX?9main?2physx?2include@ 00000001801d92c0     GuGeometryQuery.obj
 0002:000022f8       __real@30d1b7e9            00000001801d92f8     GuGeometryQuery.obj
 0002:000022fc       __real@322bcc77            00000001801d92fc     GuGeometryQuery.obj
 0002:00002300       __real@358637bd            00000001801d9300     GuGeometryQuery.obj
 0002:00002304       __real@3a83126f            00000001801d9304     GuGeometryQuery.obj
 0002:00002308       __real@3ccccccd            00000001801d9308     GuGeometryQuery.obj
 0002:0000230c       __real@3dcccccd            00000001801d930c     GuGeometryQuery.obj
 0002:00002310       __real@49742400            00000001801d9310     GuGeometryQuery.obj
 0002:00002314       __real@7f7fffff            00000001801d9314     GuGeometryQuery.obj
 0002:00002318       __real@bf800000            00000001801d9318     GuGeometryQuery.obj
 0002:00002320       __xmm@0000000000000000000000003f800000 00000001801d9320     GuGeometryQuery.obj
 0002:00002330       __xmm@00000000000000003f80000000000000 00000001801d9330     GuGeometryQuery.obj
 0002:00002340       __xmm@00000000000000003f8000003f800000 00000001801d9340     GuGeometryQuery.obj
 0002:00002350       __xmm@000000003f8000000000000000000000 00000001801d9350     GuGeometryQuery.obj
 0002:00002360       __xmm@000000003f8000003f8000003f800000 00000001801d9360     GuGeometryQuery.obj
 0002:00002370       __xmm@00000000ffffffffffffffffffffffff 00000001801d9370     GuGeometryQuery.obj
 0002:00002380       __xmm@3d4ccccd3d4ccccd3d4ccccd3d4ccccd 00000001801d9380     GuGeometryQuery.obj
 0002:00002390       __xmm@3e19999a3e19999a3e19999a3e19999a 00000001801d9390     GuGeometryQuery.obj
 0002:000023a0       __xmm@3e4ccccd3e4ccccd3e4ccccd3e4ccccd 00000001801d93a0     GuGeometryQuery.obj
 0002:000023b0       __xmm@3e8000003e8000003e8000003e800000 00000001801d93b0     GuGeometryQuery.obj
 0002:000023c0       __xmm@3f7ef9db3f7ef9db3f7ef9db3f7ef9db 00000001801d93c0     GuGeometryQuery.obj
 0002:000023d0       __xmm@3f7ff2e53f7ff2e53f7ff2e53f7ff2e5 00000001801d93d0     GuGeometryQuery.obj
 0002:000023e0       __xmm@7f7fffff7f7fffff7f7fffff7f7fffff 00000001801d93e0     GuGeometryQuery.obj
 0002:000023f0       __xmm@bf000000bf000000bf000000bf000000 00000001801d93f0     GuGeometryQuery.obj
 0002:00002420       ??_C@_0DP@EGMLCEMC@E?3?2tmp?2PhysX?9main?2physx?2source?2@ 00000001801d9420     GuMeshFactory.obj
 0002:00002470       ??_C@_0EM@BDFDGBD@Inserting?5object?5failed?3?5Object@ 00000001801d9470     GuMeshFactory.obj
 0002:000024e0       ??_7CallbackRaycast@RTree@Gu@physx@@6B@ 00000001801d94e0     GuMidphaseRTree.obj
 0002:000024e0       ??_7CallbackRefit@RTree@Gu@physx@@6B@ 00000001801d94e0     GuTriangleMeshRTree.obj
 0002:000024e0       ??_7PxInsertionCallback@physx@@6B@ 00000001801d94e0     GuMeshFactory.obj
 0002:000024f0       ??_7PxCollisionMeshMappingData@physx@@6B@ 00000001801d94f0     GuMeshFactory.obj
 0002:00002500       ??_7MeshFactory@Gu@physx@@6B@ 00000001801d9500     GuMeshFactory.obj
 0002:00002508       ??_7MeshDataBase@Gu@physx@@6B@ 00000001801d9508     GuMeshFactory.obj
 0002:00002510       ??_C@_0DP@KIBNCKEF@E?3?2tmp?2PhysX?9main?2physx?2source?2@ 00000001801d9510     GuMeshFactory.obj
 0002:00002550       ??_7TriangleMeshData@Gu@physx@@6B@ 00000001801d9550     GuMeshFactory.obj
 0002:00002558       ??_7RTreeTriangleData@Gu@physx@@6B@ 00000001801d9558     GuMeshFactory.obj
 0002:00002560       ??_7BV4TriangleData@Gu@physx@@6B@ 00000001801d9560     GuMeshFactory.obj
 0002:00002568       ??_7SoftBodyCollisionData@Gu@physx@@6B@ 00000001801d9568     GuMeshFactory.obj
 0002:00002570       ??_7CollisionMeshMappingData@Gu@physx@@6B@ 00000001801d9570     GuMeshFactory.obj
 0002:00002580       ??_7SoftBodySimulationData@Gu@physx@@6B@ 00000001801d9580     GuMeshFactory.obj
 0002:00002590       ??_C@_0GP@NHELMDAL@Loading?5triangle?5mesh?5failed?3?5D@ 00000001801d9590     GuMeshFactory.obj
 0002:00002600       ??_C@_0BP@CDOKDACA@RTree?5binary?5image?5load?5error?4@ 00000001801d9600     GuMeshFactory.obj
 0002:00002620       ??_C@_0BN@MJPNIELF@BV4?5binary?5image?5load?5error?4@ 00000001801d9620     GuMeshFactory.obj
 0002:00002640       ??_C@_0BO@JDPABAOF@BV32?5binary?5image?5load?5error?4@ 00000001801d9640     GuMeshFactory.obj
 0002:00002660       ??_C@_0DF@DBAPAPOH@E?3?2tmp?2PhysX?9main?2physx?2include@ 00000001801d9660     GuMeshFactory.obj
 0002:000026a0       __xmm@fe7fffff7e7fffff7e7fffff7e7fffff 00000001801d96a0     GuMeshFactory.obj
 0002:000026d0       ??_C@_06EJKDJEDO@PxBase@   00000001801d96d0     GuMetaData.obj
 0002:000026d8       ??_C@_07GFCEJNGM@Valency@  00000001801d96d8     GuMetaData.obj
 0002:000026e0       ??_C@_07NHGKEEIN@mOffset@  00000001801d96e0     GuMetaData.obj
 0002:000026e8       ??_C@_0BB@BAGHBMNJ@BigConvexRawData@ 00000001801d96e8     GuMetaData.obj
 0002:00002700       ??_C@_07PBDEJAAC@mSubdiv@  00000001801d9700     GuMetaData.obj
 0002:00002708       ??_C@_0L@HNPACPGH@mNbSamples@ 00000001801d9708     GuMetaData.obj
 0002:00002714       ??_C@_04NCKNBPPK@PxU8@     00000001801d9714     GuMetaData.obj
 0002:00002720       ??_C@_08DEPEKJNI@mSamples@ 00000001801d9720     GuMetaData.obj
 0002:00002730       ??_C@_08IJDNJBMI@mNbVerts@ 00000001801d9730     GuMetaData.obj
 0002:00002740       ??_C@_0M@MMKMIJAF@mNbAdjVerts@ 00000001801d9740     GuMetaData.obj
 0002:00002750       ??_C@_0L@EOKMNILC@mValencies@ 00000001801d9750     GuMetaData.obj
 0002:00002760       ??_C@_0P@DLGEAMHJ@mAdjacentVerts@ 00000001801d9760     GuMetaData.obj
 0002:00002770       ??_C@_04GGOEHDKB@Dim3@     00000001801d9770     GuMetaData.obj
 0002:00002778       ??_C@_01FJMABOPO@x@        00000001801d9778     GuMetaData.obj
 0002:0000277c       ??_C@_01EANLCPLP@y@        00000001801d977c     GuMetaData.obj
 0002:00002780       ??_C@_01GLPGHMHM@z@        00000001801d9780     GuMetaData.obj
 0002:00002784       ??_C@_03NGLDENDA@SDF@      00000001801d9784     GuMetaData.obj
 0002:00002788       ??_C@_06KDGGGLIJ@PxVec3@   00000001801d9788     GuMetaData.obj
 0002:00002790       ??_C@_0L@COALOJDH@mMeshLower@ 00000001801d9790     GuMetaData.obj
 0002:0000279c       ??_C@_06GIEBFILM@PxReal@   00000001801d979c     GuMetaData.obj
 0002:000027a8       ??_C@_08LAPKNLAN@mSpacing@ 00000001801d97a8     GuMetaData.obj
 0002:000027b4       ??_C@_05FFBHHGJO@mDims@    00000001801d97b4     GuMetaData.obj
 0002:000027c0       ??_C@_08BEIPGJN@mNumSdfs@  00000001801d97c0     GuMetaData.obj
 0002:000027cc       ??_C@_04PNLOLEIP@mSdf@     00000001801d97cc     GuMetaData.obj
 0002:000027d8       ??_C@_0N@ILJLOAFB@mSubgridSize@ 00000001801d97d8     GuMetaData.obj
 0002:000027e8       ??_C@_0P@EMNLEPPL@mNumStartSlots@ 00000001801d97e8     GuMetaData.obj
 0002:000027f8       ??_C@_0BD@BIMMHJEO@mSubgridStartSlots@ 00000001801d97f8     GuMetaData.obj
 0002:00002810       ??_C@_0BA@OKNFKLGG@mNumSubgridSdfs@ 00000001801d9810     GuMetaData.obj
 0002:00002820       ??_C@_0M@PGCPOAID@mSubgridSdf@ 00000001801d9820     GuMetaData.obj
 0002:00002830       ??_C@_0BK@KJPHDIOI@mSdfSubgrids3DTexBlockDim@ 00000001801d9830     GuMetaData.obj
 0002:00002850       ??_C@_0BF@PONLKCNL@mSubgridsMinSdfValue@ 00000001801d9850     GuMetaData.obj
 0002:00002868       ??_C@_0BF@GOKILCDB@mSubgridsMaxSdfValue@ 00000001801d9868     GuMetaData.obj
 0002:00002880       ??_C@_0BF@NMEHBGBK@mBytesPerSparsePixel@ 00000001801d9880     GuMetaData.obj
 0002:00002898       ??_C@_0O@PFOPBKAM@BigConvexData@ 00000001801d9898     GuMetaData.obj
 0002:000028a8       ??_C@_05PLKALGFN@mData@    00000001801d98a8     GuMetaData.obj
 0002:000028b0       ??_C@_08PEMCLHEM@mVBuffer@ 00000001801d98b0     GuMetaData.obj
 0002:000028c0       ??_C@_09FBMAGD@Alignment@  00000001801d98c0     GuMetaData.obj
 0002:000028d0       ??_C@_0BE@KFHIBEEA@InternalObjectsData@ 00000001801d98d0     GuMetaData.obj
 0002:000028e8       ??_C@_07NKGFFIBH@mRadius@  00000001801d98e8     GuMetaData.obj
 0002:000028f0       ??_C@_08EHFCACAE@mExtents@ 00000001801d98f0     GuMetaData.obj
 0002:00002900       ??_C@_0BA@LFMGGCBK@HullPolygonData@ 00000001801d9900     GuMetaData.obj
 0002:00002910       ??_C@_06BOHHGLB@mPlane@    00000001801d9910     GuMetaData.obj
 0002:00002918       ??_C@_06EHMLHGLN@mVRef8@   00000001801d9918     GuMetaData.obj
 0002:00002920       ??_C@_09BAHHHINI@mMinIndex@ 00000001801d9920     GuMetaData.obj
 0002:00002930       ??_C@_0P@GBLBPIPB@ConvexHullData@ 00000001801d9930     GuMetaData.obj
 0002:00002940       ??_C@_09JDCJAPKD@PxBounds3@ 00000001801d9940     GuMetaData.obj
 0002:0000294c       ??_C@_05NDNHIFA@mAABB@     00000001801d994c     GuMetaData.obj
 0002:00002958       ??_C@_0O@LNOGEMJI@mCenterOfMass@ 00000001801d9958     GuMetaData.obj
 0002:00002968       ??_C@_09CNMCBBKH@mPolygons@ 00000001801d9968     GuMetaData.obj
 0002:00002978       ??_C@_0BC@KKPDCFJC@mBigConvexRawData@ 00000001801d9978     GuMetaData.obj
 0002:00002990       ??_C@_08MPNAAJLD@mSdfData@ 00000001801d9990     GuMetaData.obj
 0002:000029a0       ??_C@_08ELDMKGKH@mNbEdges@ 00000001801d99a0     GuMetaData.obj
 0002:000029b0       ??_C@_0BA@CGLOHBAC@mNbHullVertices@ 00000001801d99b0     GuMetaData.obj
 0002:000029c0       ??_C@_0M@HGFFLLDM@mNbPolygons@ 00000001801d99c0     GuMetaData.obj
 0002:000029d0       ??_C@_09BHJEMDGO@mInternal@ 00000001801d99d0     GuMetaData.obj
 0002:000029e0       ??_C@_0L@GMFHOMKA@ConvexMesh@ 00000001801d99e0     GuMetaData.obj
 0002:000029f0       ??_C@_09ILEBDLJH@mHullData@ 00000001801d99f0     GuMetaData.obj
 0002:000029fc       ??_C@_03DKDIKGNC@mNb@      00000001801d99fc     GuMetaData.obj
 0002:00002a00       ??_C@_0P@ENLHFHMD@mBigConvexData@ 00000001801d9a00     GuMetaData.obj
 0002:00002a10       ??_C@_05ILALLCHK@mMass@    00000001801d9a10     GuMetaData.obj
 0002:00002a18       ??_C@_07DBPDADGB@PxMat33@  00000001801d9a18     GuMetaData.obj
 0002:00002a20       ??_C@_08FNBHNDBI@mInertia@ 00000001801d9a20     GuMetaData.obj
 0002:00002a30       ??_C@_0O@FCKNKLMJ@GuMeshFactory@ 00000001801d9a30     GuMetaData.obj
 0002:00002a40       ??_C@_0N@EGBCLMAK@mMeshFactory@ 00000001801d9a40     GuMetaData.obj
 0002:00002a50       ??_C@_0BE@CJJAMAMK@PxHeightFieldSample@ 00000001801d9a50     GuMetaData.obj
 0002:00002a64       ??_C@_05MBLIPEMA@PxI16@    00000001801d9a64     GuMetaData.obj
 0002:00002a6c       ??_C@_06LNLHEAAG@height@   00000001801d9a6c     GuMetaData.obj
 0002:00002a78       ??_C@_0N@HHDGHJN@PxBitAndByte@ 00000001801d9a78     GuMetaData.obj
 0002:00002a88       ??_C@_0P@MBBMLBO@materialIndex0@ 00000001801d9a88     GuMetaData.obj
 0002:00002a98       ??_C@_0P@BFAKPKFP@materialIndex1@ 00000001801d9a98     GuMetaData.obj
 0002:00002aa8       ??_C@_0BD@EBLPJEOE@PxHeightFieldFlags@ 00000001801d9aa8     GuMetaData.obj
 0002:00002ac0       ??_C@_0BK@FNNCFFCN@PxHeightFieldFormat?3?3Enum@ 00000001801d9ac0     GuMetaData.obj
 0002:00002ae0       ??_C@_0BA@CLNFMAAA@HeightFieldData@ 00000001801d9ae0     GuMetaData.obj
 0002:00002af0       ??_C@_04IMCGAIPI@rows@     00000001801d9af0     GuMetaData.obj
 0002:00002af8       ??_C@_07HIFEPIJN@columns@  00000001801d9af8     GuMetaData.obj
 0002:00002b00       ??_C@_08MOAGOABI@rowLimit@ 00000001801d9b00     GuMetaData.obj
 0002:00002b10       ??_C@_08BAGEHOBO@colLimit@ 00000001801d9b10     GuMetaData.obj
 0002:00002b20       ??_C@_09LKDBLADF@nbColumns@ 00000001801d9b20     GuMetaData.obj
 0002:00002b30       ??_C@_07ODIFGGLK@samples@  00000001801d9b30     GuMetaData.obj
 0002:00002b38       ??_C@_0BE@POHEGOJG@convexEdgeThreshold@ 00000001801d9b38     GuMetaData.obj
 0002:00002b4c       ??_C@_05GECEPKB@flags@     00000001801d9b4c     GuMetaData.obj
 0002:00002b54       ??_C@_06DLEPGFEF@format@   00000001801d9b54     GuMetaData.obj
 0002:00002b60       ??_C@_0BF@MOGDNMPL@PxMaterialTableIndex@ 00000001801d9b60     GuMetaData.obj
 0002:00002b78       ??_C@_0M@JMJICJJO@HeightField@ 00000001801d9b78     GuMetaData.obj
 0002:00002b88       ??_C@_0O@ENGHMLJP@mSampleStride@ 00000001801d9b88     GuMetaData.obj
 0002:00002b98       ??_C@_0L@EBEEMFFB@mMinHeight@ 00000001801d9b98     GuMetaData.obj
 0002:00002ba8       ??_C@_0L@EAEIFPOF@mMaxHeight@ 00000001801d9ba8     GuMetaData.obj
 0002:00002bb8       ??_C@_0N@FEFJOKKE@mModifyCount@ 00000001801d9bb8     GuMetaData.obj
 0002:00002bc8       ??_C@_09PHDKHCK@RTreePage@ 00000001801d9bc8     GuMetaData.obj
 0002:00002bd4       ??_C@_04LLPOBGED@minx@     00000001801d9bd4     GuMetaData.obj
 0002:00002bdc       ??_C@_04KCOFCHAC@miny@     00000001801d9bdc     GuMetaData.obj
 0002:00002be4       ??_C@_04IJMIHEMB@minz@     00000001801d9be4     GuMetaData.obj
 0002:00002bec       ??_C@_04GGOBOBGO@maxx@     00000001801d9bec     GuMetaData.obj
 0002:00002bf4       ??_C@_04HPPKNACP@maxy@     00000001801d9bf4     GuMetaData.obj
 0002:00002bfc       ??_C@_04FENHIDOM@maxz@     00000001801d9bfc     GuMetaData.obj
 0002:00002c04       ??_C@_04HHDFEJON@ptrs@     00000001801d9c04     GuMetaData.obj
 0002:00002c0c       ??_C@_05FFEIGAJF@RTree@    00000001801d9c0c     GuMetaData.obj
 0002:00002c14       ??_C@_06OMCHPNEO@PxVec4@   00000001801d9c14     GuMetaData.obj
 0002:00002c20       ??_C@_0L@NBIFEFLN@mBoundsMin@ 00000001801d9c20     GuMetaData.obj
 0002:00002c30       ??_C@_0L@MDAOKBNC@mBoundsMax@ 00000001801d9c30     GuMetaData.obj
 0002:00002c40       ??_C@_0N@NJEHLCOF@mInvDiagonal@ 00000001801d9c40     GuMetaData.obj
 0002:00002c50       ??_C@_0BA@BEFIGPFG@mDiagonalScaler@ 00000001801d9c50     GuMetaData.obj
 0002:00002c60       ??_C@_09DICGGKGO@mPageSize@ 00000001801d9c60     GuMetaData.obj
 0002:00002c70       ??_C@_0O@BOFFCNOL@mNumRootPages@ 00000001801d9c70     GuMetaData.obj
 0002:00002c80       ??_C@_0L@JKLGBKAE@mNumLevels@ 00000001801d9c80     GuMetaData.obj
 0002:00002c90       ??_C@_0M@PHDOHJGK@mTotalNodes@ 00000001801d9c90     GuMetaData.obj
 0002:00002ca0       ??_C@_0M@GDGHALAO@mTotalPages@ 00000001801d9ca0     GuMetaData.obj
 0002:00002cac       ??_C@_06MHCBBJGP@mFlags@   00000001801d9cac     GuMetaData.obj
 0002:00002cb4       ??_C@_06MMNBLHOK@mPages@   00000001801d9cb4     GuMetaData.obj
 0002:00002cc0       ??_C@_0P@JNLGHJNH@SourceMeshBase@ 00000001801d9cc0     GuMetaData.obj
 0002:00002cd0       ??_C@_06JFCLJMNN@mVerts@   00000001801d9cd0     GuMetaData.obj
 0002:00002cd8       ??_C@_05GNIIDDHH@mType@    00000001801d9cd8     GuMetaData.obj
 0002:00002ce0       ??_C@_06DHAAKLFK@mRemap@   00000001801d9ce0     GuMetaData.obj
 0002:00002ce8       ??_C@_0L@LEOGNOEC@SourceMesh@ 00000001801d9ce8     GuMetaData.obj
 0002:00002cf8       ??_C@_07MPIKOOAP@mNbTris@  00000001801d9cf8     GuMetaData.obj
 0002:00002d00       ??_C@_0N@FBMOMEHF@mTriangles32@ 00000001801d9d00     GuMetaData.obj
 0002:00002d10       ??_C@_0N@DGCGNFBP@mTriangles16@ 00000001801d9d10     GuMetaData.obj
 0002:00002d20       ??_C@_0O@NLNHFNO@QuantizedAABB@ 00000001801d9d20     GuMetaData.obj
 0002:00002d30       ??_C@_0BC@OOGBEMHH@mData?$FL0?$FN?4mExtents@ 00000001801d9d30     GuMetaData.obj
 0002:00002d48       ??_C@_0BB@OCEDKIEF@mData?$FL0?$FN?4mCenter@ 00000001801d9d48     GuMetaData.obj
 0002:00002d60       ??_C@_0BC@HFMEAABI@mData?$FL1?$FN?4mExtents@ 00000001801d9d60     GuMetaData.obj
 0002:00002d78       ??_C@_0BB@CDMNHHIF@mData?$FL1?$FN?4mCenter@ 00000001801d9d78     GuMetaData.obj
 0002:00002d90       ??_C@_0BC@CFKNCOI@mData?$FL2?$FN?4mExtents@ 00000001801d9d90     GuMetaData.obj
 0002:00002da8       ??_C@_0BB@LKCPBBIE@mData?$FL2?$FN?4mCenter@ 00000001801d9da8     GuMetaData.obj
 0002:00002dc0       ??_C@_0O@MJJKKPFN@BVDataPackedQ@ 00000001801d9dc0     GuMetaData.obj
 0002:00002dd0       ??_C@_0O@JFMLAIPJ@CenterExtents@ 00000001801d9dd0     GuMetaData.obj
 0002:00002de0       ??_C@_07GNKDIIKJ@mCenter@  00000001801d9de0     GuMetaData.obj
 0002:00002de8       ??_C@_0P@KBMJDPLO@BVDataPackedNQ@ 00000001801d9de8     GuMetaData.obj
 0002:00002df8       ??_C@_0M@PNCEBOG@LocalBounds@ 00000001801d9df8     GuMetaData.obj
 0002:00002e04       ??_C@_05KNFBNCOH@float@    00000001801d9e04     GuMetaData.obj
 0002:00002e10       ??_C@_0BC@LADJKHPL@mExtentsMagnitude@ 00000001801d9e10     GuMetaData.obj
 0002:00002e28       ??_C@_07HELIOLAF@BV4Tree@  00000001801d9e28     GuMetaData.obj
 0002:00002e30       ??_C@_0P@EMMDNPMH@mMeshInterface@ 00000001801d9e30     GuMetaData.obj
 0002:00002e40       ??_C@_0N@DCKMHLCL@mLocalBounds@ 00000001801d9e40     GuMetaData.obj
 0002:00002e50       ??_C@_08EEJOMIJL@mNbNodes@ 00000001801d9e50     GuMetaData.obj
 0002:00002e5c       ??_C@_06FIIIMFIO@mNodes@   00000001801d9e5c     GuMetaData.obj
 0002:00002e68       ??_C@_09FGKNPI@mInitData@  00000001801d9e68     GuMetaData.obj
 0002:00002e78       ??_C@_0BC@CLDEHKCO@mCenterOrMinCoeff@ 00000001801d9e78     GuMetaData.obj
 0002:00002e90       ??_C@_0BD@LAOLBNJ@mExtentsOrMaxCoeff@ 00000001801d9e90     GuMetaData.obj
 0002:00002ea8       ??_C@_0P@JEECKKBL@mUserAllocated@ 00000001801d9ea8     GuMetaData.obj
 0002:00002eb8       ??_C@_0L@GLIMNECG@mQuantized@ 00000001801d9eb8     GuMetaData.obj
 0002:00002ec8       ??_C@_0L@CCOJDAID@mIsEdgeSet@ 00000001801d9ec8     GuMetaData.obj
 0002:00002ed8       ??_C@_08BNDBAGDH@mPadding@ 00000001801d9ed8     GuMetaData.obj
 0002:00002ee8       ??_C@_0N@OJNNNLIB@TriangleMesh@ 00000001801d9ee8     GuMetaData.obj
 0002:00002ef8       ??_C@_0M@OGEDMEAL@mNbVertices@ 00000001801d9ef8     GuMetaData.obj
 0002:00002f08       ??_C@_0N@MGGDNHNI@mNbTriangles@ 00000001801d9f08     GuMetaData.obj
 0002:00002f18       ??_C@_09LNNEGOJA@mVertices@ 00000001801d9f18     GuMetaData.obj
 0002:00002f28       ??_C@_0L@KBOFAKLO@mTriangles@ 00000001801d9f28     GuMetaData.obj
 0002:00002f38       ??_C@_0P@MHDFIHLD@mExtraTrigData@ 00000001801d9f38     GuMetaData.obj
 0002:00002f48       ??_C@_0N@MGIKKCI@mGeomEpsilon@ 00000001801d9f48     GuMetaData.obj
 0002:00002f58       ??_C@_0BB@IFLOOCNA@mMaterialIndices@ 00000001801d9f58     GuMetaData.obj
 0002:00002f70       ??_C@_0L@OPJMBFMI@mFaceRemap@ 00000001801d9f70     GuMetaData.obj
 0002:00002f80       ??_C@_0N@BIOECAPM@mAdjacencies@ 00000001801d9f80     GuMetaData.obj
 0002:00002f90       ??_C@_09CICJHLPI@mEdgeList@ 00000001801d9f90     GuMetaData.obj
 0002:00002fa0       ??_C@_0BD@IPKCNNIK@mLocalCenterOfMass@ 00000001801d9fa0     GuMetaData.obj
 0002:00002fb8       ??_C@_0BA@OCOIGPII@mGRB_triIndices@ 00000001801d9fb8     GuMetaData.obj
 0002:00002fc8       ??_C@_0BE@JPINNDAH@mGRB_triAdjacencies@ 00000001801d9fc8     GuMetaData.obj
 0002:00002fe0       ??_C@_0P@EDFJJHEF@mGRB_faceRemap@ 00000001801d9fe0     GuMetaData.obj
 0002:00002ff0       ??_C@_0BG@EEALPPCP@mGRB_faceRemapInverse@ 00000001801d9ff0     GuMetaData.obj
 0002:00003008       ??_C@_0N@NAKPIGJP@Gu?3?3BV32Tree@ 00000001801da008     GuMetaData.obj
 0002:00003018       ??_C@_0O@CKMBAIFN@mGRB_BV32Tree@ 00000001801da018     GuMetaData.obj
 0002:00003028       ??_C@_0BJ@LEBGJKBE@mAccumulatedTrianglesRef@ 00000001801da028     GuMetaData.obj
 0002:00003048       ??_C@_0BF@OJMCNCDP@mTrianglesReferences@ 00000001801da048     GuMetaData.obj
 0002:00003060       ??_C@_0BH@LDGPOFA@mNbTrianglesReferences@ 00000001801da060     GuMetaData.obj
 0002:00003078       ??_C@_0BC@IFGECKF@RTreeTriangleMesh@ 00000001801da078     GuMetaData.obj
 0002:0000308c       ??_C@_06JDIHDDGN@mRTree@   00000001801da08c     GuMetaData.obj
 0002:00003098       ??_C@_0BA@LNNFPOKA@BV4TriangleMesh@ 00000001801da098     GuMetaData.obj
 0002:000030a8       ??_C@_08FKLPEGDB@mBV4Tree@ 00000001801da0a8     GuMetaData.obj
 0002:000030b8       ??_7?$SupportLocalImpl@VConvexHullNoScaleV@Gu@physx@@@Gu@physx@@6B@ 00000001801da0b8     GuMTD.obj
 0002:00003100       ?absMask@?1??FAbs@aos@physx@@YA?AT__m128@@T4@@Z@4QBIB 00000001801da100     GuMTD.obj
 0002:00003110       ??_7GjkConvex@Gu@physx@@6B@ 00000001801da110     GuMTD.obj
 0002:00003140       ??_7?$LocalConvex@VCapsuleV@Gu@physx@@@Gu@physx@@6B@ 00000001801da140     GuMTD.obj
 0002:00003170       ??_7?$LocalConvex@VConvexHullV@Gu@physx@@@Gu@physx@@6B@ 00000001801da170     GuMTD.obj
 0002:000031a0       __real@2edbe6ff            00000001801da1a0     GuMTD.obj
 0002:000031a4       __real@34000000            00000001801da1a4     GuMTD.obj
 0002:000031a8       __real@ff7fffff            00000001801da1a8     GuMTD.obj
 0002:000031b0       __xmm@34000000340000003400000034000000 00000001801da1b0     GuMTD.obj
 0002:000031c0       __xmm@358637bd358637bd358637bd358637bd 00000001801da1c0     GuMTD.obj
 0002:000031d0       __xmm@3dcccccd3dcccccd3dcccccd3dcccccd 00000001801da1d0     GuMTD.obj
 0002:000031e0       __xmm@3f7ff1413f7ff1413f7ff1413f7ff141 00000001801da1e0     GuMTD.obj
 0002:000031f0       __xmm@3f8000003f8000003f8000003f800000 00000001801da1f0     GuMTD.obj
 0002:00003220       ??_7?$RelativeConvex@VBoxV@Gu@physx@@@Gu@physx@@6B@ 00000001801da220     GuOverlapTests.obj
 0002:00003250       ??_7?$RelativeConvex@VConvexHullV@Gu@physx@@@Gu@physx@@6B@ 00000001801da250     GuOverlapTests.obj
 0002:000032b0       __real@1e3ce508            00000001801da2b0     GuRaycastTests.obj
 0002:000032b4       __real@28800000            00000001801da2b4     GuRaycastTests.obj
 0002:000032b8       __real@33d6bf95            00000001801da2b8     GuRaycastTests.obj
 0002:000032bc       __real@3727c5ac            00000001801da2bc     GuRaycastTests.obj
 0002:000032c0       __real@38d1b717            00000001801da2c0     GuRaycastTests.obj
 0002:000032c4       __real@3f0147ae            00000001801da2c4     GuRaycastTests.obj
 0002:000032c8       __real@3f7ffffe            00000001801da2c8     GuRaycastTests.obj
 0002:000032cc       __real@3f800347            00000001801da2cc     GuRaycastTests.obj
 0002:000032d0       __real@41200000            00000001801da2d0     GuRaycastTests.obj
 0002:000032d4       __real@80000000            00000001801da2d4     GuRaycastTests.obj
 0002:000032d8       __real@b3d6bf95            00000001801da2d8     GuRaycastTests.obj
 0002:000032dc       __real@b8d1b717            00000001801da2dc     GuRaycastTests.obj
 0002:000032e0       __real@c1200000            00000001801da2e0     GuRaycastTests.obj
 0002:00003320       ??_7?$MeshHitCallback@UPxGeomRaycastHit@physx@@@Gu@physx@@6B@ 00000001801da320     GuSweepMTD.obj
 0002:00003330       ??_7MeshMTDGenerationCallback@@6B@ 00000001801da330     GuSweepMTD.obj
 0002:00003340       ??_7MidPhaseQueryLocalReport@@6B@ 00000001801da340     GuSweepMTD.obj
 0002:00003350       __real@3f8147ae            00000001801da350     GuSweepMTD.obj
 0002:00003354       __real@3f933333            00000001801da354     GuSweepMTD.obj
 0002:00003380       __real@3c23d70a            00000001801da380     GuSweepSharedTests.obj
 0002:00003384       __real@42c80000            00000001801da384     GuSweepSharedTests.obj
 0002:00003390       __xmm@ffffffffffffffffffffffffffffffff 00000001801da390     GuSweepSharedTests.obj
 0002:000033c0       ??_7?$LocalConvex@VBoxV@Gu@physx@@@Gu@physx@@6B@ 00000001801da3c0     GuSweepTests.obj
 0002:000033f0       ??_7?$LocalConvex@VTriangleV@Gu@physx@@@Gu@physx@@6B@ 00000001801da3f0     GuSweepTests.obj
 0002:00003420       __real@00000000            00000001801da420     GuSweepTests.obj
 0002:00003430       __xmm@00000002000000020000000200000002 00000001801da430     GuSweepTests.obj
 0002:00003440       __xmm@3eaaaa9f3eaaaa9f3eaaaa9f3eaaaa9f 00000001801da440     GuSweepTests.obj
 0002:000034f8       ??_7PxRunnable@physx@@6B@  00000001801da4f8     GuSDF.obj
 0002:00003508       ??_C@_0DH@HHAPNAPK@E?3?2tmp?2PhysX?9main?2physx?2source?2@ 00000001801da508     GuSDF.obj
 0002:00003540       ??_7PointOntoTriangleMeshProjector@Gu@physx@@6B@ 00000001801da540     GuSDF.obj
 0002:00003558       ??_7?$PxThreadT@V?$PxReflectionAllocator@VPxThreadImpl@physx@@@physx@@@physx@@6B@ 00000001801da558     GuSDF.obj
 0002:00003568       ??_C@_06FJHNOCKE@thread@   00000001801da568     GuSDF.obj
 0002:00003570       ??_C@_0BAK@OPLLKLNG@SDF?5creation?3?5Mesh?5is?5not?5suita@ 00000001801da570     GuSDF.obj
 0002:00003680       ??_C@_0FB@OMEANACP@SDF?5creation?3?5Input?5mesh?5is?5not@ 00000001801da680     GuSDF.obj
 0002:000036d8       ??_C@_0DG@PKDIMAEJ@E?3?2tmp?2PhysX?9main?2physx?2include@ 00000001801da6d8     GuSDF.obj
 0002:00003710       ??_C@_0DE@BOLDFIHB@E?3?2tmp?2PhysX?9main?2physx?2include@ 00000001801da710     GuSDF.obj
 0002:00003748       ??_C@_0DN@FIJIMFCP@E?3?2tmp?2PhysX?9main?2physx?2include@ 00000001801da748     GuSDF.obj
 0002:00003788       __real@37800080            00000001801da788     GuSDF.obj
 0002:0000378c       __real@3b808081            00000001801da78c     GuSDF.obj
 0002:00003790       __real@3e2aaaab            00000001801da790     GuSDF.obj
 0002:00003794       __real@3eaaaaab            00000001801da794     GuSDF.obj
 0002:00003798       __real@3f400000            00000001801da798     GuSDF.obj
 0002:0000379c       __real@3f7d70a4            00000001801da79c     GuSDF.obj
 0002:000037a0       __real@4996b438            00000001801da7a0     GuSDF.obj
 0002:000037a4       __real@7e7fffff            00000001801da7a4     GuSDF.obj
 0002:000037a8       __real@bf000000            00000001801da7a8     GuSDF.obj
 0002:000037ac       __real@fe7fffff            00000001801da7ac     GuSDF.obj
 0002:000037b0       __xmm@00000001000000010000000100000000 00000001801da7b0     GuSDF.obj
 0002:000037c0       __real@437f0000            00000001801da7c0     GuCookingSDF.obj
 0002:000037c4       __real@477fff00            00000001801da7c4     GuCookingSDF.obj
 0002:000037f0       ??_7?$RelativeConvex@UCustomConvexV@@@Gu@physx@@6B@ 00000001801da7f0     GuGjkQuery.obj
 0002:00003820       ??_7?$LocalConvex@UCustomConvexV@@@Gu@physx@@6B@ 00000001801da820     GuGjkQuery.obj
 0002:00003850       ??_7?$LocalConvex@UPointConvexV@@@Gu@physx@@6B@ 00000001801da850     GuGjkQuery.obj
 0002:00003880       __xmm@3f0000003f0000003f0000003f000000 00000001801da880     GuGjkQuery.obj
 0002:000038b0       __real@3da2f983            00000001801da8b0     GuWindingNumber.obj
 0002:000038b4       __real@3e22f983            00000001801da8b4     GuWindingNumber.obj
 0002:000038b8       __real@3f99999a            00000001801da8b8     GuWindingNumber.obj
 0002:00003920       __real@3c343958            00000001801da920     GuCCDSweepConvexMesh.obj
 0002:00003924       __real@3ca3d70a            00000001801da924     GuCCDSweepConvexMesh.obj
 0002:00003928       __real@3f0ccccd            00000001801da928     GuCCDSweepConvexMesh.obj
 0002:0000392c       __real@3f8ccccd            00000001801da92c     GuCCDSweepConvexMesh.obj
 0002:00003930       __real@b58637bd            00000001801da930     GuCCDSweepConvexMesh.obj
 0002:00003960       ??_7?$RelativeConvex@VCapsuleV@Gu@physx@@@Gu@physx@@6B@ 00000001801da960     GuCCDSweepPrimitives.obj
 0002:00003990       ??_7?$RelativeConvex@VTriangleV@Gu@physx@@@Gu@physx@@6B@ 00000001801da990     GuCCDSweepPrimitives.obj
 0002:000039c0       __real@3ba3d70a            00000001801da9c0     GuCCDSweepPrimitives.obj
 0002:000039c4       __real@501502f9            00000001801da9c4     GuCCDSweepPrimitives.obj
 0002:000039f0       ??_C@_0EG@KFJAJLBH@E?3?2tmp?2PhysX?9main?2physx?2source?2@ 00000001801da9f0     GuAdjacencies.obj
 0002:00003a38       ??_C@_0DA@FMEHLBKI@Adjacencies?3?3UpdateLink?3?5invali@ 00000001801daa38     GuAdjacencies.obj
 0002:00003a70       ??_C@_0EA@CPHOACLK@Adjacencies?3?3CreateDatabase?3?5ca@ 00000001801daa70     GuAdjacencies.obj
 0002:00003ab0       ??_C@_0ED@IGHLFDCB@E?3?2tmp?2PhysX?9main?2physx?2source?2@ 00000001801daab0     GuEdgeList.obj
 0002:00003af8       ??_C@_0CO@GBNJFPN@EdgeList?3?3CreateFacesToEdges?3?5N@ 00000001801daaf8     GuEdgeList.obj
 0002:00003b28       ??_C@_0CO@EHJBBMNK@EdgeList?3?3ComputeActiveEdges?3?5N@ 00000001801dab28     GuEdgeList.obj
 0002:00003b58       ??_C@_0DI@GBHLFOFP@ActiveEdges?3?3ComputeConvexEdges@ 00000001801dab58     GuEdgeList.obj
 0002:00003b90       ??_C@_0DM@JOGBLHDI@ActiveEdges?3?3ComputeConvexEdges@ 00000001801dab90     GuEdgeList.obj
 0002:00003bd0       ??_C@_0ED@FEMJKPEL@ActiveEdges?3?3ComputeConvexEdges@ 00000001801dabd0     GuEdgeList.obj
 0002:00003c20       ??_C@_0EB@BFDPMFCD@ActiveEdges?3?3ComputeConvexEdges@ 00000001801dac20     GuEdgeList.obj
 0002:00003c64       __real@bf7fbe77            00000001801dac64     GuEdgeList.obj
 0002:00003c68       ??_7Quantizer@Gu@physx@@6B@ 00000001801dac68     GuQuantizer.obj
 0002:00003c90       ??_7QuantizerImpl@@6B@     00000001801dac90     GuQuantizer.obj
 0002:00003cc0       ??_C@_0EE@IFACBOOP@E?3?2tmp?2PhysX?9main?2physx?2source?2@ 00000001801dacc0     GuQuantizer.obj
 0002:00003d04       __real@3f0020c5            00000001801dad04     GuQuantizer.obj
 0002:00003d08       __real@3f8020c5            00000001801dad08     GuQuantizer.obj
 0002:00003d10       ??_C@_0EG@IAMLLGED@E?3?2tmp?2PhysX?9main?2physx?2source?2@ 00000001801dad10     GuMeshCleaner.obj
 0002:00003d58       __real@40800000            00000001801dad58     GuMeshCleaner.obj
 0002:00003d60       ??_C@_0EI@CPJJNKBO@E?3?2tmp?2PhysX?9main?2physx?2source?2@ 00000001801dad60     GuVertexReducer.obj
 0002:00003ea0       __real@3f7fbe77            00000001801daea0     GuContactBoxBox.obj
 0002:00003ef0       __real@3f7ff2e5            00000001801daef0     GuContactCapsuleCapsule.obj
 0002:00003f80       __real@358637be            00000001801daf80     GuContactCapsuleMesh.obj
 0002:00003f84       __real@ba83126f            00000001801daf84     GuContactCapsuleMesh.obj
 0002:00003fe0       ??_7ConvexMeshContactGenerationCallback@@6B@ 00000001801dafe0     GuContactConvexMesh.obj
 0002:00004060       __real@3ec90fdb            00000001801db060     GuContactPolygonPolygon.obj
 0002:00004064       __real@3f490fdb            00000001801db064     GuContactPolygonPolygon.obj
 0002:00004068       __real@3f96cbe4            00000001801db068     GuContactPolygonPolygon.obj
 0002:0000406c       __real@3fc90fdb            00000001801db06c     GuContactPolygonPolygon.obj
 0002:00004070       __real@3ffb53d2            00000001801db070     GuContactPolygonPolygon.obj
 0002:00004074       __real@4016cbe4            00000001801db074     GuContactPolygonPolygon.obj
 0002:00004078       __real@402feddf            00000001801db078     GuContactPolygonPolygon.obj
 0002:000040e0       ??_C@_0EI@HNBKLODK@E?3?2tmp?2PhysX?9main?2physx?2source?2@ 00000001801db0e0     GuBigConvexData.obj
 0002:00004150       ??_C@_0N@CDGINLLF@PxConvexMesh@ 00000001801db150     GuConvexMesh.obj
 0002:00004160       ??_7PxBase@physx@@6B@      00000001801db160     GuConvexMesh.obj
 0002:00004188       ??_C@_0CE@IDAGNPDH@isKindOf?5called?5with?5invalid?5st@ 00000001801db188     GuConvexMesh.obj
 0002:000041b0       ??_C@_0N@OPPDBGAG@PxRefCounted@ 00000001801db1b0     GuConvexMesh.obj
 0002:000041c0       ??_C@_0DI@LOAEPOJH@E?3?2tmp?2PhysX?9main?2physx?2include@ 00000001801db1c0     GuConvexMesh.obj
 0002:000041f8       ??_7ConvexMesh@Gu@physx@@6B@ 00000001801db1f8     GuConvexMesh.obj
 0002:00004290       ??_C@_0EF@OPAMHMIL@E?3?2tmp?2PhysX?9main?2physx?2source?2@ 00000001801db290     GuConvexMesh.obj
 0002:000042d8       ??_C@_0DM@NEJKOFIP@Loading?5convex?5mesh?5failed?3?5Dep@ 00000001801db2d8     GuConvexMesh.obj
 0002:00004318       ??_C@_0DB@PAHEPIEL@PxConvexMesh?3?3release?3?5double?5d@ 00000001801db318     GuConvexMesh.obj
 0002:00004350       ??_C@_0DN@EODLHFKE@E?3?2tmp?2PhysX?9main?2physx?2source?2@ 00000001801db350     GuConvexMesh.obj
 0002:000043b0       __xmm@000000000000000000000000ffffffff 00000001801db3b0     GuConvexSupportTable.obj
 0002:000043c0       __xmm@0000000000000000ffffffff00000000 00000001801db3c0     GuConvexSupportTable.obj
 0002:000043d0       __xmm@0000000000000000ffffffffffffffff 00000001801db3d0     GuConvexSupportTable.obj
 0002:000043e0       __xmm@00000000ffffffff0000000000000000 00000001801db3e0     GuConvexSupportTable.obj
 0002:000043f0       __xmm@00000000ffffffff00000000ffffffff 00000001801db3f0     GuConvexSupportTable.obj
 0002:00004400       __xmm@00000000ffffffffffffffff00000000 00000001801db400     GuConvexSupportTable.obj
 0002:00004490       __xmm@2b8cbccc2b8cbccc2b8cbccc2b8cbccc 00000001801db490     GuDistancePointTriangle.obj
 0002:00004500       __real@2b8cbccc            00000001801db500     GuDistanceSegmentTriangle.obj
 0002:00004510       __xmm@3f8000013f8000013f8000013f800001 00000001801db510     GuDistanceSegmentTriangle.obj
 0002:00004520       __xmm@b4000000b4000000b4000000b4000000 00000001801db520     GuDistanceSegmentTriangle.obj
 0002:00004550       __real@26901d7d            00000001801db550     GuDistanceTriangleTriangle.obj
 0002:000045d0       __xmm@38d1b71738d1b71738d1b71738d1b717 00000001801db5d0     GuGJKSimplex.obj
 0002:00004600       ??_C@_0O@PBAKPCEC@PxHeightField@ 00000001801db600     GuHeightField.obj
 0002:00004610       ??_C@_0DJ@IEMHEMBC@E?3?2tmp?2PhysX?9main?2physx?2include@ 00000001801db610     GuHeightField.obj
 0002:00004650       ??_7HeightField@Gu@physx@@6B@ 00000001801db650     GuHeightField.obj
 0002:00004708       ??_C@_0DC@BDMMBOKH@PxHeightField?3?3release?3?5double?5@ 00000001801db708     GuHeightField.obj
 0002:00004740       ??_C@_0EC@DLDNCFMD@E?3?2tmp?2PhysX?9main?2physx?2source?2@ 00000001801db740     GuHeightField.obj
 0002:00004788       ??_C@_0CI@DMKEKGNK@Gu?3?3HeightField?3?3load?3?5PX_ALLOC@ 00000001801db788     GuHeightField.obj
 0002:000047b0       ??_C@_0DG@LOBMIJIF@E?3?2tmp?2PhysX?9main?2physx?2include@ 00000001801db7b0     GuHeightField.obj
 0002:00004810       __real@3a03126f            00000001801db810     GuHeightFieldUtil.obj
 0002:00004814       __real@3f19999a            00000001801db814     GuHeightFieldUtil.obj
 0002:00004820       __xmm@40000000000000000000000000000000 00000001801db820     GuHeightFieldUtil.obj
 0002:000048b0       ??_7HeightFieldTraceSegmentReport@@6B@ 00000001801db8b0     GuSweepsHF.obj
 0002:000048c0       ??_7CapsuleTraceSegmentReport@@6B@ 00000001801db8c0     GuSweepsHF.obj
 0002:000048d0       ??_7ConvexTraceSegmentReport@@6B@ 00000001801db8d0     GuSweepsHF.obj
 0002:000048e0       ??_7BoxTraceSegmentReport@@6B@ 00000001801db8e0     GuSweepsHF.obj
 0002:000048f0       __real@aedbe6ff            00000001801db8f0     GuSweepsHF.obj
 0002:00004920       __real@3089705f            00000001801db920     GuIntersectionRayBox.obj
 0002:00004924       __real@b4000000            00000001801db924     GuIntersectionRayBox.obj
 0002:00004930       __xmm@000000003089705f3089705f3089705f 00000001801db930     GuIntersectionRayBox.obj
 0002:00004940       __xmm@00000000bf800000bf800000bf800000 00000001801db940     GuIntersectionRayBox.obj
 0002:00004990       ??_7SourceMeshBase@Gu@physx@@6B@ 00000001801db990     GuBV4.obj
 0002:000049b8       ??_7SourceMesh@Gu@physx@@6B@ 00000001801db9b8     GuBV4.obj
 0002:000049e0       ??_7TetrahedronSourceMesh@Gu@physx@@6B@ 00000001801db9e0     GuBV4.obj
 0002:00004a08       ??_C@_0DM@OHMLGDM@E?3?2tmp?2PhysX?9main?2physx?2source?2@ 00000001801dba08     GuBV4.obj
 0002:00004a50       __xmm@ff7fffffff7fffffff7fffffff7fffff 00000001801dba50     GuBV4.obj
 0002:00004a80       ??_C@_0EB@PHOCGOKG@E?3?2tmp?2PhysX?9main?2physx?2source?2@ 00000001801dba80     GuBV4Build.obj
 0002:00004ac4       __real@38000100            00000001801dbac4     GuBV4Build.obj
 0002:00004ac8       __real@3e93cd3a            00000001801dbac8     GuBV4Build.obj
 0002:00004acc       __real@46fffe00            00000001801dbacc     GuBV4Build.obj
 0002:00004ad0       __real@be93cd3a            00000001801dbad0     GuBV4Build.obj
 0002:00004b00       __xmm@0000ffff0000ffff0000ffff0000ffff 00000001801dbb00     GuBV4_AABBSweep.obj
 0002:00004b10       __xmm@3089705f3089705f3089705f3089705f 00000001801dbb10     GuBV4_AABBSweep.obj
 0002:00004b20       __xmm@33d6bf9533d6bf9533d6bf9533d6bf95 00000001801dbb20     GuBV4_AABBSweep.obj
 0002:00004b30       __xmm@40000000400000004000000040000000 00000001801dbb30     GuBV4_AABBSweep.obj
 0002:00004bc0       __xmm@322bcc77322bcc77322bcc77322bcc77 00000001801dbbc0     GuBV4_MeshMeshOverlap.obj
 0002:00004c30       __real@4f7fffff            00000001801dbc30     GuBV4_SphereOverlap.obj
 0002:00004c80       __xmm@000000007f7fffff0000000000000000 00000001801dbc80     GuMidphaseBV4.obj
 0002:00004cf0       ??_C@_0FD@EHCCILIF@Adjacency?5information?5not?5creat@ 00000001801dbcf0     GuMeshQuery.obj
 0002:00004d50       ??_C@_0EC@DINFNNKI@E?3?2tmp?2PhysX?9main?2physx?2source?2@ 00000001801dbd50     GuMeshQuery.obj
 0002:00004da0       ??_C@_0FL@BKNMAHIA@PxMeshQuery?3?3findOverlapTriangl@ 00000001801dbda0     GuMeshQuery.obj
 0002:00004dfc       __real@4cbebc20            00000001801dbdfc     GuMeshQuery.obj
 0002:00004e20       ??_7Callback@RTree@Gu@physx@@6B@ 00000001801dbe20     GuMidphaseRTree.obj
 0002:00004e38       ??_7?$RayRTreeCallback@$00$0A@@@6BCallbackRaycast@RTree@Gu@physx@@@ 00000001801dbe38     GuMidphaseRTree.obj
 0002:00004e38       ??_7?$RayRTreeCallback@$0A@$0A@@@6BCallbackRaycast@RTree@Gu@physx@@@ 00000001801dbe38     GuMidphaseRTree.obj
 0002:00004e48       ??_7?$RayRTreeCallback@$00$0A@@@6BCallback@RTree@Gu@physx@@@ 00000001801dbe48     GuMidphaseRTree.obj
 0002:00004e48       ??_7?$RayRTreeCallback@$0A@$0A@@@6BCallback@RTree@Gu@physx@@@ 00000001801dbe48     GuMidphaseRTree.obj
 0002:00004e60       ??_7RayMeshColliderCallback@@6B@ 00000001801dbe60     GuMidphaseRTree.obj
 0002:00004e70       ??_C@_0EN@DPPFLBLF@Point?9mesh?5distance?5query?5not?5s@ 00000001801dbe70     GuMidphaseRTree.obj
 0002:00004ec0       ??_C@_0EG@OBEIHFGF@E?3?2tmp?2PhysX?9main?2physx?2source?2@ 00000001801dbec0     GuMidphaseRTree.obj
 0002:00004f08       ??_7?$RayRTreeCallback@$0A@$00@@6BCallbackRaycast@RTree@Gu@physx@@@ 00000001801dbf08     GuMidphaseRTree.obj
 0002:00004f18       ??_7?$RayRTreeCallback@$0A@$00@@6BCallback@RTree@Gu@physx@@@ 00000001801dbf18     GuMidphaseRTree.obj
 0002:00004f30       ??_7?$RayRTreeCallback@$00$00@@6BCallbackRaycast@RTree@Gu@physx@@@ 00000001801dbf30     GuMidphaseRTree.obj
 0002:00004f40       ??_7?$RayRTreeCallback@$00$00@@6BCallback@RTree@Gu@physx@@@ 00000001801dbf40     GuMidphaseRTree.obj
 0002:00004fc0       __xmm@7f7fffff000000000000000000000000 00000001801dbfc0     GuMidphaseRTree.obj
 0002:00005040       ??_7?$PxReportCallback@UPxGeomIndexPair@physx@@@physx@@6B@ 00000001801dc040     GuOverlapTestsMesh.obj
 0002:00005060       ??_C@_0EP@CEFGCJKJ@PxGeometryQuery?3?3overlap?$CI?$CJ?3?5onl@ 00000001801dc060     GuOverlapTestsMesh.obj
 0002:000050b0       ??_C@_0EJ@FOAJKMNI@E?3?2tmp?2PhysX?9main?2physx?2source?2@ 00000001801dc0b0     GuOverlapTestsMesh.obj
 0002:00005120       ?MN@RTreePage@Gu@physx@@2MB 00000001801dc120     GuRTree.obj
 0002:00005124       ?MX@RTreePage@Gu@physx@@2MB 00000001801dc124     GuRTree.obj
 0002:00005128       ??_C@_0DO@JJEPFJNN@E?3?2tmp?2PhysX?9main?2physx?2source?2@ 00000001801dc128     GuRTree.obj
 0002:000051e0       ??_7SweepShapeMeshHitCallback@Gu@physx@@6B@ 00000001801dc1e0     GuSweepsMesh.obj
 0002:000051f0       ??_7SweepCapsuleMeshHitCallback@Gu@physx@@6B@ 00000001801dc1f0     GuSweepsMesh.obj
 0002:00005200       ??_7SweepBoxMeshHitCallback@Gu@physx@@6B@ 00000001801dc200     GuSweepsMesh.obj
 0002:00005210       ??_7SweepConvexMeshHitCallback@Gu@physx@@6B@ 00000001801dc210     GuSweepsMesh.obj
 0002:00005240       ??_C@_0P@GGNFNHKF@PxTriangleMesh@ 00000001801dc240     GuTriangleMesh.obj
 0002:00005250       ??_C@_0DK@BEGFCEKE@E?3?2tmp?2PhysX?9main?2physx?2include@ 00000001801dc250     GuTriangleMesh.obj
 0002:00005290       ??_7TriangleMesh@Gu@physx@@6B@ 00000001801dc290     GuTriangleMesh.obj
 0002:00005368       ??_C@_0DD@LOOPMCGG@PxTriangleMesh?3?3release?3?5double@ 00000001801dc368     GuTriangleMesh.obj
 0002:000053a0       ??_C@_0FH@PMPAJDGI@PxTriangleMesh?3?3getVerticesForM@ 00000001801dc3a0     GuTriangleMesh.obj
 0002:00005400       ??_C@_0EF@NBFMNDGK@E?3?2tmp?2PhysX?9main?2physx?2source?2@ 00000001801dc400     GuTriangleMesh.obj
 0002:00005450       ??_C@_0EF@GMNFLDH@PxTriangleMesh?3?3refitBVH?$CI?$CJ?5is?5n@ 00000001801dc450     GuTriangleMesh.obj
 0002:000054a0       __xmm@38383838383838383838383838383838 00000001801dc4a0     GuTriangleMesh.obj
 0002:000054d0       ??_C@_0BE@CNJKIINO@PxBVH34TriangleMesh@ 00000001801dc4d0     GuTriangleMeshBV4.obj
 0002:000054e8       ??_7BV4TriangleMesh@Gu@physx@@6B@ 00000001801dc4e8     GuTriangleMeshBV4.obj
 0002:000055c0       ??_C@_0EF@JLFNNPLP@BVH34?5trees?3?5refit?5operation?5on@ 00000001801dc5c0     GuTriangleMeshBV4.obj
 0002:00005610       ??_C@_0EI@LBCAIKLO@E?3?2tmp?2PhysX?9main?2physx?2source?2@ 00000001801dc610     GuTriangleMeshBV4.obj
 0002:00005658       __real@3951b717            00000001801dc658     GuTriangleMeshBV4.obj
 0002:00005680       ??_C@_0BE@EIFHCCBO@PxBVH33TriangleMesh@ 00000001801dc680     GuTriangleMeshRTree.obj
 0002:00005698       ??_7RTreeTriangleMesh@Gu@physx@@6B@ 00000001801dc698     GuTriangleMeshRTree.obj
 0002:00005770       ??_7?$RefitCallback@G@physx@@6B@ 00000001801dc770     GuTriangleMeshRTree.obj
 0002:00005780       ??_7?$RefitCallback@I@physx@@6B@ 00000001801dc780     GuTriangleMeshRTree.obj
 0002:000057b0       ??_C@_0DN@FDCCOBCA@E?3?2tmp?2PhysX?9main?2physx?2source?2@ 00000001801dc7b0     GuBV32.obj
 0002:00005810       ??_C@_0EC@GNBPADJN@E?3?2tmp?2PhysX?9main?2physx?2source?2@ 00000001801dc810     GuBV32Build.obj
 0002:00005880       ??_C@_0BC@FDAIDHBP@PxTetrahedronMesh@ 00000001801dc880     GuTetrahedronMesh.obj
 0002:00005898       ??_C@_0DN@NHBEABPD@E?3?2tmp?2PhysX?9main?2physx?2include@ 00000001801dc898     GuTetrahedronMesh.obj
 0002:000058d8       ??_C@_0BC@FBICGJIB@PxSoftBodyAuxData@ 00000001801dc8d8     GuTetrahedronMesh.obj
 0002:000058f0       ??_C@_0P@CLLFGFAA@PxSoftBodyMesh@ 00000001801dc8f0     GuTetrahedronMesh.obj
 0002:00005900       ??_7SoftBodyAuxData@Gu@physx@@6B@ 00000001801dc900     GuTetrahedronMesh.obj
 0002:00005948       ??_7TetrahedronMesh@Gu@physx@@6B@ 00000001801dc948     GuTetrahedronMesh.obj
 0002:000059c0       ??_7BVTetrahedronMesh@Gu@physx@@6B@ 00000001801dc9c0     GuTetrahedronMesh.obj
 0002:00005a38       ??_7SoftBodyMesh@Gu@physx@@6B@ 00000001801dca38     GuTetrahedronMesh.obj
 0002:00005ab8       ??_C@_0DG@JJNMDPMD@PxTetrahedronMesh?3?3release?3?5dou@ 00000001801dcab8     GuTetrahedronMesh.obj
 0002:00005af0       ??_C@_0DD@GGFGEPII@PxSoftBodyMesh?3?3release?3?5double@ 00000001801dcaf0     GuTetrahedronMesh.obj
 0002:00005b30       ??_C@_0EI@FDGDGACK@E?3?2tmp?2PhysX?9main?2physx?2source?2@ 00000001801dcb30     GuTetrahedronMesh.obj
 0002:00005bc0       __xmm@00000000358637bd358637bd358637bd 00000001801dcbc0     GuPCMContactBoxBox.obj
 0002:00005bd0       __xmm@3f4ccccd3f4ccccd3f4ccccd3f4ccccd 00000001801dcbd0     GuPCMContactBoxBox.obj
 0002:00005be0       __xmm@3f8003473f8003473f8003473f800347 00000001801dcbe0     GuPCMContactBoxBox.obj
 0002:00005bf0       __xmm@ffffffff00000000ffffffffffffffff 00000001801dcbf0     GuPCMContactBoxBox.obj
 0002:00005c20       ??_7?$LocalConvex@VConvexHullNoScaleV@Gu@physx@@@Gu@physx@@6B@ 00000001801dcc20     GuPCMContactBoxConvex.obj
 0002:00005c50       __xmm@3f3504f33f3504f33f3504f33f3504f3 00000001801dcc50     GuPCMContactBoxConvex.obj
 0002:00005ca0       __xmm@ffffffffffffffffffffffff00000000 00000001801dcca0     GuPCMContactCapsuleCapsule.obj
 0002:00005cd0       __xmm@3fa000003fa000003fa000003fa00000 00000001801dccd0     GuPCMContactCapsuleConvex.obj
 0002:00005d00       ??_7PCMCapsuleVsHeightfieldContactGenerationCallback@@6B@ 00000001801dcd00     GuPCMContactCapsuleHeightField.obj
 0002:00005d10       __real@3f7f3b64            00000001801dcd10     GuPCMContactCapsuleHeightField.obj
 0002:00005d60       __xmm@3f7ff9723f7ff9723f7ff9723f7ff972 00000001801dcd60     GuPCMContactCapsuleMesh.obj
 0002:00005d70       __xmm@3f7fffef3f7fffef3f7fffef3f7fffef 00000001801dcd70     GuPCMContactCapsuleMesh.obj
 0002:00005d80       __xmm@60ad78ec60ad78ec60ad78ec60ad78ec 00000001801dcd80     GuPCMContactCapsuleMesh.obj
 0002:00005db0       ??_7?$SupportLocalImpl@VTriangleV@Gu@physx@@@Gu@physx@@6B@ 00000001801dcdb0     GuPCMContactConvexCommon.obj
 0002:00005dd0       __xmm@3cf5c2803cf5c2803cf5c2803cf5c280 00000001801dcdd0     GuPCMContactConvexCommon.obj
 0002:00005de0       __xmm@3f7851ec3f7851ec3f7851ec3f7851ec 00000001801dcde0     GuPCMContactConvexCommon.obj
 0002:00005e10       ??_7?$RelativeConvex@VConvexHullNoScaleV@Gu@physx@@@Gu@physx@@6B@ 00000001801dce10     GuPCMContactConvexConvex.obj
 0002:00005e70       __xmm@3f19999a3f19999a3f19999a3f19999a 00000001801dce70     GuPCMContactConvexHeightField.obj
 0002:00005ee0       __xmm@3f34fdf43f34fdf43f34fdf43f34fdf4 00000001801dcee0     GuPCMContactGenBoxConvex.obj
 0002:00005f10       __xmm@3f80a3d73f80a3d73f80a3d73f80a3d7 00000001801dcf10     GuPCMContactGenSphereCapsule.obj
 0002:00005f20       __xmm@bba3d70abba3d70abba3d70abba3d70a 00000001801dcf20     GuPCMContactGenSphereCapsule.obj
 0002:00005f50       __xmm@3f7ffd613f7ffd613f7ffd613f7ffd61 00000001801dcf50     GuPCMContactPlaneBox.obj
 0002:00005f80       __real@3b23d70b            00000001801dcf80     GuPCMContactPlaneCapsule.obj
 0002:00005f90       __xmm@3ca3d70a3ca3d70a3ca3d70a3ca3d70a 00000001801dcf90     GuPCMContactPlaneCapsule.obj
 0002:00005fc0       __xmm@3a03126f3a03126f3a03126f3a03126f 00000001801dcfc0     GuPCMContactPlaneConvex.obj
 0002:000060e0       __xmm@3727c5ac3727c5ac3727c5ac3727c5ac 00000001801dd0e0     GuPCMContactSphereSphere.obj
 0002:00006110       __xmm@3f7f06f73f7f06f73f7f06f73f7f06f7 00000001801dd110     GuPCMContactCustomGeometry.obj
 0002:00006120       ?gPCMBoxPolygonData@Gu@physx@@3QBEB 00000001801dd120     GuPCMShapeConvex.obj
 0002:000061a0       ?invalidateThresholds@Gu@physx@@3QBMB 00000001801dd1a0     GuPersistentContactManifold.obj
 0002:000061b8       ?invalidateQuatThresholds@Gu@physx@@3QBMB 00000001801dd1b8     GuPersistentContactManifold.obj
 0002:000061d0       ?invalidateThresholds2@Gu@physx@@3QBMB 00000001801dd1d0     GuPersistentContactManifold.obj
 0002:000061e0       ?invalidateQuatThresholds2@Gu@physx@@3QBMB 00000001801dd1e0     GuPersistentContactManifold.obj
 0002:000061f0       __xmm@00000000340000003400000034000000 00000001801dd1f0     GuPersistentContactManifold.obj
 0002:00006200       __xmm@000000003f8000003f80000000000000 00000001801dd200     GuPersistentContactManifold.obj
 0002:00006210       __xmm@00000000bf8000003f80000000000000 00000001801dd210     GuPersistentContactManifold.obj
 0002:00006220       __xmm@ffffffffffffffff00000000ffffffff 00000001801dd220     GuPersistentContactManifold.obj
 0002:00006250       __xmm@c1200000c1200000c1200000c1200000 00000001801dd250     GuPCMContactGenUtil.obj
 0002:000062a0       __real@b727c5ac            00000001801dd2a0     GuSweepBoxSphere.obj
 0002:00006310       ??_C@_0EJ@JMCDMJIK@E?3?2tmp?2PhysX?9main?2physx?2source?2@ 00000001801dd310     GuSweepCapsuleBox.obj
 0002:000063a0       __real@3f7fff58            00000001801dd3a0     GuSweepCapsuleTriangle.obj
 0002:00006410       ??_C@_0CH@DHJGKCPD@Gu?3?3computeBounds?3?5Unknown?5shap@ 00000001801dd410     GuBounds.obj
 0002:00006438       ??_C@_0DK@NJHNIHOI@E?3?2tmp?2PhysX?9main?2physx?2source?2@ 00000001801dd438     GuBounds.obj
 0002:00006474       __real@34800000            00000001801dd474     GuBounds.obj
 0002:00006478       __real@3f7fffef            00000001801dd478     GuBounds.obj
 0002:00006480       __xmm@3f8147ae3f8147ae3f8147ae3f8147ae 00000001801dd480     GuBounds.obj
 0002:000064b0       ??_C@_0DM@DBAOPFFM@E?3?2tmp?2PhysX?9main?2physx?2source?2@ 00000001801dd4b0     GuAABBTree.obj
 0002:000064f0       __xmm@5a60b17f5a60b17f5a60b17f5a60b17f 00000001801dd4f0     GuAABBTree.obj
 0002:00006500       __xmm@da60b17fda60b17fda60b17fda60b17f 00000001801dd500     GuAABBTree.obj
 0002:00006570       ??_C@_0EH@ELKEKGGM@E?3?2tmp?2PhysX?9main?2physx?2source?2@ 00000001801dd570     GuIncrementalAABBTree.obj
 0002:000065b8       ??_C@_0DE@CCIGGOKP@E?3?2tmp?2PhysX?9main?2physx?2include@ 00000001801dd5b8     GuIncrementalAABBTree.obj
 0002:000065ec       __real@40400000            00000001801dd5ec     GuIncrementalAABBTree.obj
 0002:000065f0       ??_C@_0DH@BPDNJOCN@E?3?2tmp?2PhysX?9main?2physx?2source?2@ 00000001801dd5f0     GuSAH.obj
 0002:00006650       ??_7PxBVH@physx@@6B@       00000001801dd650     GuBVH.obj
 0002:000066c8       ??_C@_05OKJNPKBM@PxBVH@    00000001801dd6c8     GuBVH.obj
 0002:000066d0       ??_C@_0DB@IGGGPDIM@E?3?2tmp?2PhysX?9main?2physx?2include@ 00000001801dd6d0     GuBVH.obj
 0002:00006708       ??_7RefCountable@Cm@physx@@6B@ 00000001801dd708     GuBVH.obj
 0002:00006718       ??_7BVH@Gu@physx@@6BPxBVH@2@@ 00000001801dd718     GuBVH.obj
 0002:00006790       ??_7BVH@Gu@physx@@6BRefCountable@Cm@2@@ 00000001801dd790     GuBVH.obj
 0002:000067a0       ??_C@_0DH@NFFANNI@E?3?2tmp?2PhysX?9main?2physx?2source?2@ 00000001801dd7a0     GuBVH.obj
 0002:000067d8       ??_C@_0CK@HAIOEINI@PxBVH?3?3release?3?5double?5deletion@ 00000001801dd7d8     GuBVH.obj
 0002:00006830       ??_C@_0EN@PBDOACPL@E?3?2tmp?2PhysX?9main?2physx?2source?2@ 00000001801dd830     GuIncrementalAABBPrunerCore.obj
 0002:00006880       __real@3f80a3d7            00000001801dd880     GuIncrementalAABBPrunerCore.obj
 0002:000068b0       ??_7BasePruner@Gu@physx@@6B@ 00000001801dd8b0     GuIncrementalAABBPruner.obj
 0002:000068c8       ??_7IncrementalAABBPruner@Gu@physx@@6B@ 00000001801dd8c8     GuIncrementalAABBPruner.obj
 0002:00006950       ??_C@_0EJ@IHEJCMLH@E?3?2tmp?2PhysX?9main?2physx?2source?2@ 00000001801dd950     GuIncrementalAABBPruner.obj
 0002:000069c0       ??_C@_0DP@FEFLPBIH@E?3?2tmp?2PhysX?9main?2physx?2source?2@ 00000001801dd9c0     GuPruningPool.obj
 0002:00006a40       ??_7BucketPruner@Gu@physx@@6B@ 00000001801dda40     GuBucketPruner.obj
 0002:00006ad0       ??_C@_0EA@EPCLPACI@E?3?2tmp?2PhysX?9main?2physx?2source?2@ 00000001801ddad0     GuBucketPruner.obj
 0002:00006b10       __real@bf13cd3a            00000001801ddb10     GuBucketPruner.obj
 0002:00006b20       __xmm@000000007e7fffff7e7fffff7e7fffff 00000001801ddb20     GuBucketPruner.obj
 0002:00006b30       __xmm@00000000fe7ffffffe7ffffffe7fffff 00000001801ddb30     GuBucketPruner.obj
 0002:00006b40       __xmm@3f13cd3a3f13cd3a3f13cd3a3f13cd3a 00000001801ddb40     GuBucketPruner.obj
 0002:00006b50       __xmm@bf13cd3abf13cd3abf13cd3a3f13cd3a 00000001801ddb50     GuBucketPruner.obj
 0002:00006b60       __xmm@bf8000003f8000003f800000bf800000 00000001801ddb60     GuBucketPruner.obj
 0002:00006b70       __xmm@bf8000003f800000bf8000003f800000 00000001801ddb70     GuBucketPruner.obj
 0002:00006b80       __xmm@bf800000bf8000003f8000003f800000 00000001801ddb80     GuBucketPruner.obj
 0002:00006b90       __xmm@bf800000bf800000bf8000003f800000 00000001801ddb90     GuBucketPruner.obj
 0002:00006ba0       ?mIndices@MaverickNode@Gu@physx@@2QBIB 00000001801ddba0     GuMaverickNode.obj
 0002:00006c00       ??_C@_0EI@HCJKDMH@E?3?2tmp?2PhysX?9main?2physx?2source?2@ 00000001801ddc00     GuExtendedBucketPruner.obj
 0002:00006c70       ??_7CompanionPruner@Gu@physx@@6B@ 00000001801ddc70     GuSecondaryPruner.obj
 0002:00006cf0       ??_7CompanionPrunerBucket@@6B@ 00000001801ddcf0     GuSecondaryPruner.obj
 0002:00006d70       ??_7CompanionPrunerIncremental@@6B@ 00000001801ddd70     GuSecondaryPruner.obj
 0002:00006df0       ??_7CompanionPrunerAABBTree@@6B@ 00000001801dddf0     GuSecondaryPruner.obj
 0002:00006e70       ??_C@_0ED@EPCLCGIC@E?3?2tmp?2PhysX?9main?2physx?2source?2@ 00000001801dde70     GuSecondaryPruner.obj
 0002:00006ee0       ??_7AABBPruner@Gu@physx@@6B@ 00000001801ddee0     GuAABBPruner.obj
 0002:00006f80       ??_C@_0LA@IHBEIKND@SceneQuery?5static?5AABB?5Tree?5reb@ 00000001801ddf80     GuAABBPruner.obj
 0002:00007030       ??_C@_0DO@KKGNGAKA@E?3?2tmp?2PhysX?9main?2physx?2source?2@ 00000001801de030     GuAABBPruner.obj
 0002:00007070       ??_C@_0EB@PFFFDEHF@E?3?2tmp?2PhysX?9main?2physx?2source?2@ 00000001801de070     GuActorShapeMap.obj
 0002:000070e0       ??_C@_0BF@DNABLJAF@Invalid?5pruner?5index@ 00000001801de0e0     GuQuerySystem.obj
 0002:000070f8       ??_C@_0DP@KDNAJAN@E?3?2tmp?2PhysX?9main?2physx?2source?2@ 00000001801de0f8     GuQuerySystem.obj
 0002:00007190       ??_C@_0DL@MLEAAMCG@E?3?2tmp?2PhysX?9main?2physx?2source?2@ 00000001801de190     GuFactory.obj
 0002:000071d0       ?reductionFactors@SubSortQuick@physx@@2QBMB 00000001801de1d0     GuRTreeCooking.obj
 0002:000071e0       ?stopAtTrisPerLeaf1@SubSortQuick@physx@@2QBIB 00000001801de1e0     GuRTreeCooking.obj
 0002:000072b0       ??_C@_0EI@OBPNOJDC@E?3?2tmp?2PhysX?9main?2physx?2source?2@ 00000001801de2b0     GuRTreeCooking.obj
 0002:000072f8       __real@41100000            00000001801de2f8     GuRTreeCooking.obj
 0002:000072fc       __real@41700000            00000001801de2fc     GuRTreeCooking.obj
 0002:00007300       __real@42200000            00000001801de300     GuRTreeCooking.obj
 0002:00007310       __xmm@00000004000000030000000200000001 00000001801de310     GuRTreeCooking.obj
 0002:00007340       ??_C@_0EG@CHDJAMBF@E?3?2tmp?2PhysX?9main?2physx?2source?2@ 00000001801de340     GuCookingBVH.obj
 0002:00007388       ??_C@_0DL@JHPKHGFA@Cooking?3?3cookBVH?3?5user?9provided@ 00000001801de388     GuCookingBVH.obj
 0002:000073c8       ??_C@_0DN@PLNPGFEB@Cooking?3?3createBVH?3?5user?9provid@ 00000001801de3c8     GuCookingBVH.obj
 0002:00007410       ??_C@_0EL@JCJBAPHL@Cooking?3?3cookHeightField?3?5user?9@ 00000001801de410     GuCookingHF.obj
 0002:00007460       ??_C@_0EF@KNICIMLM@E?3?2tmp?2PhysX?9main?2physx?2source?2@ 00000001801de460     GuCookingHF.obj
 0002:000074b0       ??_C@_0EN@FCEPCAFC@Cooking?3?3createHeightField?3?5use@ 00000001801de4b0     GuCookingHF.obj
 0002:00007500       ??_C@_0EK@EKAIJEBL@Cooking?3?3cookConvexMesh?3?5user?9p@ 00000001801de500     GuCookingConvexMesh.obj
 0002:00007550       ??_C@_0FA@GFFGAPML@Cooking?3?3cookConvexMesh?3?5provid@ 00000001801de550     GuCookingConvexMesh.obj
 0002:000075a0       ??_C@_0EP@PKDCPNNO@Cooking?3?3cookConvexMesh?3?5provid@ 00000001801de5a0     GuCookingConvexMesh.obj
 0002:000075f0       ??_C@_0EO@LKFMMDE@Cooking?3?3cookConvexMesh?3?5user?9p@ 00000001801de5f0     GuCookingConvexMesh.obj
 0002:00007640       ??_C@_0EL@KJEPJALG@Cooking?3?3cookConvexMesh?3?5user?9p@ 00000001801de640     GuCookingConvexMesh.obj
 0002:00007690       ??_C@_0FM@LHMEBKMM@Cooking?3?3cookConvexMesh?3?5GPU?9co@ 00000001801de690     GuCookingConvexMesh.obj
 0002:000076f0       ??_C@_0FJ@FHCFFABE@Cooking?3?3cookConvexMesh?3?5GPU?9co@ 00000001801de6f0     GuCookingConvexMesh.obj
 0002:00007750       ??_C@_0LM@CHONPBFM@Cooking?3?3cookConvexMesh?3?5GPU?9co@ 00000001801de750     GuCookingConvexMesh.obj
 0002:00007810       ??_C@_0EN@OPPLHKOG@E?3?2tmp?2PhysX?9main?2physx?2source?2@ 00000001801de810     GuCookingConvexMesh.obj
 0002:00007880       ??_7TriangleMeshBuilder@physx@@6B@ 00000001801de880     GuCookingTriangleMesh.obj
 0002:000078a8       ??_7RTreeTriangleMeshBuilder@physx@@6B@ 00000001801de8a8     GuCookingTriangleMesh.obj
 0002:000078d0       ??_7BV4TriangleMeshBuilder@physx@@6B@ 00000001801de8d0     GuCookingTriangleMesh.obj
 0002:00007900       ??_C@_0EP@MNABFAJF@E?3?2tmp?2PhysX?9main?2physx?2source?2@ 00000001801de900     GuCookingTriangleMesh.obj
 0002:00007950       ??_C@_0EM@DBPINPE@TriangleMeshBuilder?3?3cleanMesh?3@ 00000001801de950     GuCookingTriangleMesh.obj
 0002:000079a0       ??_C@_0EF@MLNDPEDJ@TriangleMeshBuilder?3?3cleanMesh?3@ 00000001801de9a0     GuCookingTriangleMesh.obj
 0002:000079f0       ??_C@_0FJ@HHJLKGDF@TriangleMesh?3?5triangles?5are?5too@ 00000001801de9f0     GuCookingTriangleMesh.obj
 0002:00007a50       ??_C@_0CN@KGPHHHLK@TriangleMesh?3?5mesh?5is?5too?5big?5f@ 00000001801dea50     GuCookingTriangleMesh.obj
 0002:00007a80       ??_C@_0DD@CMJGDCNN@TriangleMesh?3?3loadFromDesc?3?5des@ 00000001801dea80     GuCookingTriangleMesh.obj
 0002:00007ac0       ??_C@_0ED@ILJJNHIP@TriangleMesh?3?3loadFromDesc?3?5mPa@ 00000001801deac0     GuCookingTriangleMesh.obj
 0002:00007b08       ??_C@_0BK@JIDHMMCE@BV4?5tree?5failed?5to?5build?4@ 00000001801deb08     GuCookingTriangleMesh.obj
 0002:00007b28       ??_C@_0BL@DHNECNBE@BV32?5tree?5failed?5to?5build?4@ 00000001801deb28     GuCookingTriangleMesh.obj
 0002:00007b48       ??_7RTreeCookerRemap@@6B@  00000001801deb48     GuCookingTriangleMesh.obj
 0002:00007b60       ??_C@_0FC@PJIHAFK@Cooking?3?3validateTriangleMesh?3?5@ 00000001801deb60     GuCookingTriangleMesh.obj
 0002:00007c40       ??_7PxCollisionTetrahedronMeshData@physx@@6B@ 00000001801dec40     GuCookingTetrahedronMesh.obj
 0002:00007c70       ??_7PxSimulationTetrahedronMeshData@physx@@6B@ 00000001801dec70     GuCookingTetrahedronMesh.obj
 0002:00007c90       ??_7CollisionTetrahedronMeshData@Gu@physx@@6B@ 00000001801dec90     GuCookingTetrahedronMesh.obj
 0002:00007cc0       ??_7SimulationTetrahedronMeshData@Gu@physx@@6B@ 00000001801decc0     GuCookingTetrahedronMesh.obj
 0002:00007ce0       ??_C@_0FC@OIIPLCBK@E?3?2tmp?2PhysX?9main?2physx?2source?2@ 00000001801dece0     GuCookingTetrahedronMesh.obj
 0002:00007d38       ??_7?$LocalConvex@VTetrahedronV@Gu@physx@@@Gu@physx@@6B@ 00000001801ded38     GuCookingTetrahedronMesh.obj
 0002:00007d68       ??_C@_0CD@OJGNHLOE@BV4_AABBTree?5tree?5failed?5to?5bui@ 00000001801ded68     GuCookingTetrahedronMesh.obj
 0002:00007d90       ??_C@_0DG@NCNIEEHB@TetrahedronMesh?3?3loadFromDesc?3?5@ 00000001801ded90     GuCookingTetrahedronMesh.obj
 0002:00007dd0       ??_C@_0EG@CJIFGLMC@TetrahedronMesh?3?3loadFromDesc?3?5@ 00000001801dedd0     GuCookingTetrahedronMesh.obj
 0002:00007e18       __real@be2aaaab            00000001801dee18     GuCookingTetrahedronMesh.obj
 0002:00007e20       __xmm@00000003000000030000000300000003 00000001801dee20     GuCookingTetrahedronMesh.obj
 0002:00007e50       __real@3bc79ca10c924223    00000001801dee50     GuCookingVolumeIntegration.obj
 0002:00007e58       __real@3f91111111111111    00000001801dee58     GuCookingVolumeIntegration.obj
 0002:00007e60       __real@3fa5555555555555    00000001801dee60     GuCookingVolumeIntegration.obj
 0002:00007e68       __real@3fa999999999999a    00000001801dee68     GuCookingVolumeIntegration.obj
 0002:00007e70       __real@3fb5555555555555    00000001801dee70     GuCookingVolumeIntegration.obj
 0002:00007e78       __real@3fc5555555555555    00000001801dee78     GuCookingVolumeIntegration.obj
 0002:00007e80       __real@3fe0000000000000    00000001801dee80     GuCookingVolumeIntegration.obj
 0002:00007e88       __real@3ff0000000000000    00000001801dee88     GuCookingVolumeIntegration.obj
 0002:00007e90       __real@4008000000000000    00000001801dee90     GuCookingVolumeIntegration.obj
 0002:00007e98       __real@4010000000000000    00000001801dee98     GuCookingVolumeIntegration.obj
 0002:00007ea0       __real@bf91111111111111    00000001801deea0     GuCookingVolumeIntegration.obj
 0002:00007ea8       __real@bfa999999999999a    00000001801deea8     GuCookingVolumeIntegration.obj
 0002:00007eb0       __real@bfb5555555555555    00000001801deeb0     GuCookingVolumeIntegration.obj
 0002:00007eb8       __real@bfc5555555555555    00000001801deeb8     GuCookingVolumeIntegration.obj
 0002:00007ec0       __xmm@3c0888893c0888893c0888893c088889 00000001801deec0     GuCookingVolumeIntegration.obj
 0002:00007ed0       __xmm@3c8888893c8888893c8888893c888889 00000001801deed0     GuCookingVolumeIntegration.obj
 0002:00007ee0       __xmm@3d2aaaab3d2aaaab3d2aaaab3d2aaaab 00000001801deee0     GuCookingVolumeIntegration.obj
 0002:00007ef0       __xmm@3e2aaaab3e2aaaab3e2aaaab3e2aaaab 00000001801deef0     GuCookingVolumeIntegration.obj
 0002:00007f00       __xmm@3f811111111111113f81111111111111 00000001801def00     GuCookingVolumeIntegration.obj
 0002:00007f10       __xmm@3f811111111111113f91111111111111 00000001801def10     GuCookingVolumeIntegration.obj
 0002:00007f20       __xmm@3f911111111111113f91111111111111 00000001801def20     GuCookingVolumeIntegration.obj
 0002:00007f30       __xmm@3fa55555555555553fa5555555555555 00000001801def30     GuCookingVolumeIntegration.obj
 0002:00007f40       __xmm@3fa55555555555553fc5555555555555 00000001801def40     GuCookingVolumeIntegration.obj
 0002:00007f50       __xmm@3fd55555555555553fd5555555555555 00000001801def50     GuCookingVolumeIntegration.obj
 0002:00007f60       __xmm@3fe00000000000003fe0000000000000 00000001801def60     GuCookingVolumeIntegration.obj
 0002:00007f70       __xmm@7fffffffffffffff7fffffffffffffff 00000001801def70     GuCookingVolumeIntegration.obj
 0002:00007f80       __xmm@80000000000000008000000000000000 00000001801def80     GuCookingVolumeIntegration.obj
 0002:00007f90       ??_7ConvexHullLib@physx@@6B@ 00000001801def90     GuCookingQuickHullConvexHullLib.obj
 0002:00007fb0       ??_7QuickHullConvexHullLib@physx@@6B@ 00000001801defb0     GuCookingQuickHullConvexHullLib.obj
 0002:00007fd0       ??_C@_0FJ@IJNKNFKG@E?3?2tmp?2PhysX?9main?2physx?2source?2@ 00000001801defd0     GuCookingQuickHullConvexHullLib.obj
 0002:00008030       ??_C@_0GA@EPPAEJPM@QuickHullConvexHullLib?3?3findSim@ 00000001801df030     GuCookingQuickHullConvexHullLib.obj
 0002:00008090       ??_C@_0FB@NEBIJMML@QuickHullConvexHullLib?3?3findSim@ 00000001801df090     GuCookingQuickHullConvexHullLib.obj
 0002:000080f0       ??_C@_0FB@CLLCBEMM@QuickHullConvexHullLib?3?3findSim@ 00000001801df0f0     GuCookingQuickHullConvexHullLib.obj
 0002:00008144       __real@34c00000            00000001801df144     GuCookingQuickHullConvexHullLib.obj
 0002:00008148       ??_C@_0DP@PJBJBEGF@Meshmerizer?3?3extractHullPolygon@ 00000001801df148     GuCookingConvexPolygonsBuilder.obj
 0002:00008190       ??_C@_0FI@IGODGNFM@E?3?2tmp?2PhysX?9main?2physx?2source?2@ 00000001801df190     GuCookingConvexPolygonsBuilder.obj
 0002:000081e8       ??_C@_0DL@IAFKOCCK@ConvexHullBuilder?3?5convex?5hull?5@ 00000001801df1e8     GuCookingConvexPolygonsBuilder.obj
 0002:00008230       ??_C@_0GF@OJLJHAMH@ConvexHullBuilder?3?3CreateTriang@ 00000001801df230     GuCookingConvexPolygonsBuilder.obj
 0002:000082c0       ??_C@_0DF@LLFJIJGM@Gu?3?3ConvexMesh?3?3loadFromDesc?3?5d@ 00000001801df2c0     GuCookingConvexMeshBuilder.obj
 0002:00008300       ??_C@_0HK@JOGKIEAA@Gu?3?3ConvexMesh?3?5Mesh?5has?5a?5nega@ 00000001801df300     GuCookingConvexMeshBuilder.obj
 0002:00008380       ??_C@_0DH@NJPPHFFD@Gu?3?3ConvexMesh?3?5Error?5computing@ 00000001801df380     GuCookingConvexMeshBuilder.obj
 0002:000083b8       ??_C@_0DJ@LJDLGLDJ@Gu?3?3ConvexMesh?3?3loadConvexHull?3@ 00000001801df3b8     GuCookingConvexMeshBuilder.obj
 0002:00008400       ??_C@_0HJ@KJANPPOE@ConvexMeshBuilder?3?3computeHullP@ 00000001801df400     GuCookingConvexMeshBuilder.obj
 0002:00008480       ??_C@_0FE@GGAMAAAJ@E?3?2tmp?2PhysX?9main?2physx?2source?2@ 00000001801df480     GuCookingConvexMeshBuilder.obj
 0002:000084d8       ??_C@_0O@JMAGMMGG@PxHullPolygon@ 00000001801df4d8     GuCookingConvexMeshBuilder.obj
 0002:000084e8       __real@3f13cd3a            00000001801df4e8     GuCookingConvexMeshBuilder.obj
 0002:00008510       ??_C@_0FC@JJAIOCAB@E?3?2tmp?2PhysX?9main?2physx?2source?2@ 00000001801df510     GuCookingConvexHullUtils.obj
 0002:00008564       __real@3e20d97c            00000001801df564     GuCookingConvexHullUtils.obj
 0002:00008570       ??_C@_0FA@ECBCENFO@E?3?2tmp?2PhysX?9main?2physx?2source?2@ 00000001801df570     GuCookingConvexHullLib.obj
 0002:000085c0       ??_C@_0JE@PABBNGEL@ConvexHullLib?3?3cleanupVertices?3@ 00000001801df5c0     GuCookingConvexHullLib.obj
 0002:00008680       ??_C@_0FE@KIKIKAFM@E?3?2tmp?2PhysX?9main?2physx?2source?2@ 00000001801df680     GuCookingConvexHullBuilder.obj
 0002:000086e0       ??_C@_0EB@DCEIFDGC@ConvexHullBuilder?3?3init?3?5convex@ 00000001801df6e0     GuCookingConvexHullBuilder.obj
 0002:00008730       ??_C@_0FM@KICBLCBH@Gu?3?3ConvexMesh?3?3checkHullPolygo@ 00000001801df730     GuCookingConvexHullBuilder.obj
 0002:00008790       ??_C@_0GO@HBFIOGLL@Gu?3?3ConvexMesh?3?3checkHullPolygo@ 00000001801df790     GuCookingConvexHullBuilder.obj
 0002:00008800       ??_C@_0HF@OLJFBIEL@ConvexHullBuilder?3?5convex?5hull?5@ 00000001801df800     GuCookingConvexHullBuilder.obj
 0002:00008880       ??_C@_0OG@JNHFOIL@ConvexHullBuilder?3?5convex?5hull?5@ 00000001801df880     GuCookingConvexHullBuilder.obj
 0002:00008970       ??_C@_0EJ@NIOIBAKH@Cooking?3?3cookConvexMesh?3?5non?9ma@ 00000001801df970     GuCookingConvexHullBuilder.obj
 0002:000089e0       ??_C@_0FH@CAEGBJMD@E?3?2tmp?2PhysX?9main?2physx?2source?2@ 00000001801df9e0     GuCookingBigConvexDataBuilder.obj
 0002:00008a40       __sz_PhysXFoundation_64_dll 00000001801dfa40     PhysXFoundation_64:PhysXFoundation_64.dll
 0002:00008a58       ??_C@_1BK@DBDEIDLH@?$AAK?$AAE?$AAR?$AAN?$AAE?$AAL?$AA3?$AA2?$AA?4?$AAD?$AAL?$AAL@ 00000001801dfa58     Delayimp:delayhlp.obj
 0002:00008a78       ??_C@_0BI@OMNLIJDB@AcquireSRWLockExclusive@ 00000001801dfa78     Delayimp:delayhlp.obj
 0002:00008a90       ??_C@_0BI@HMIEPCNJ@ReleaseSRWLockExclusive@ 00000001801dfa90     Delayimp:delayhlp.obj
 0002:00008aa8       __pfnDliFailureHook2       00000001801dfaa8     Delayimp:delayhk1.obj
 0002:00008ab8       ??_7type_info@@6B@         00000001801dfab8     LIBCMT:std_type_info_static.obj
 0002:00008b20       _pDefaultRawDllMain        00000001801dfb20     LIBCMT:dll_dllmain.obj
 0002:00008b20       _pRawDllMain               00000001801dfb20     LIBCMT:dll_dllmain.obj
 0002:00008b30       _load_config_used          00000001801dfb30     LIBCMT:loadcfg.obj
 0002:00008c70       _pDestructExceptionObject  00000001801dfc70     libvcruntime:ehhelpers.obj
 0002:00009390       ??_C@_08EHJDFFNH@__based?$CI@ 00000001801e0390     libvcruntime:undname.obj
 0002:000093a0       ??_C@_07KOLFKCDI@__cdecl@  00000001801e03a0     libvcruntime:undname.obj
 0002:000093a8       ??_C@_08GHMPAG@__pascal@   00000001801e03a8     libvcruntime:undname.obj
 0002:000093b8       ??_C@_09IFJBGAPI@__stdcall@ 00000001801e03b8     libvcruntime:undname.obj
 0002:000093c8       ??_C@_0L@NPHFGOKO@__thiscall@ 00000001801e03c8     libvcruntime:undname.obj
 0002:000093d8       ??_C@_0L@JMKHOMEK@__fastcall@ 00000001801e03d8     libvcruntime:undname.obj
 0002:000093e8       ??_C@_0N@BCKKPABJ@__vectorcall@ 00000001801e03e8     libvcruntime:undname.obj
 0002:000093f8       ??_C@_09HIJEGCPM@__clrcall@ 00000001801e03f8     libvcruntime:undname.obj
 0002:00009404       ??_C@_06GHPCKEAG@__eabi@   00000001801e0404     libvcruntime:undname.obj
 0002:00009410       ??_C@_09IOPIDJLG@__swift_1@ 00000001801e0410     libvcruntime:undname.obj
 0002:00009420       ??_C@_09KFNFGKHF@__swift_2@ 00000001801e0420     libvcruntime:undname.obj
 0002:00009430       ??_C@_09LMMOFLDE@__swift_3@ 00000001801e0430     libvcruntime:undname.obj
 0002:00009440       ??_C@_07JOMMBBKO@__ptr64@  00000001801e0440     libvcruntime:undname.obj
 0002:00009448       ??_C@_0L@PILCLIHE@__restrict@ 00000001801e0448     libvcruntime:undname.obj
 0002:00009458       ??_C@_0M@GFIIJFMG@__unaligned@ 00000001801e0458     libvcruntime:undname.obj
 0002:00009468       ??_C@_09DHDLOLLB@restrict?$CI@ 00000001801e0468     libvcruntime:undname.obj
 0002:00009474       ??_C@_04NIHEBCM@?5new@     00000001801e0474     libvcruntime:undname.obj
 0002:00009480       ??_C@_07FPCDHGMM@?5delete@ 00000001801e0480     libvcruntime:undname.obj
 0002:00009488       ??_C@_01NEMOKFLO@?$DN@     00000001801e0488     libvcruntime:undname.obj
 0002:0000948c       ??_C@_02GPIOPFAK@?$DO?$DO@ 00000001801e048c     libvcruntime:undname.obj
 0002:00009490       ??_C@_02FODMEDOG@?$DM?$DM@ 00000001801e0490     libvcruntime:undname.obj
 0002:00009494       ??_C@_01DCLJPIOD@?$CB@     00000001801e0494     libvcruntime:undname.obj
 0002:00009498       ??_C@_02EGOFBIJA@?$DN?$DN@ 00000001801e0498     libvcruntime:undname.obj
 0002:0000949c       ??_C@_02FDNJECIE@?$CB?$DN@ 00000001801e049c     libvcruntime:undname.obj
 0002:000094a0       ??_C@_02GPECMEKF@?$FL?$FN@ 00000001801e04a0     libvcruntime:undname.obj
 0002:000094a8       ??_C@_08LHJFAFGD@operator@ 00000001801e04a8     libvcruntime:undname.obj
 0002:000094b4       ??_C@_02HBOOOICD@?9?$DO@   00000001801e04b4     libvcruntime:undname.obj
 0002:000094b8       ??_C@_01NBENCBCI@?$CK@     00000001801e04b8     libvcruntime:undname.obj
 0002:000094bc       ??_C@_02ECNGHCIF@?$CL?$CL@ 00000001801e04bc     libvcruntime:undname.obj
 0002:000094c0       ??_C@_02BAABKJLB@?9?9@     00000001801e04c0     libvcruntime:undname.obj
 0002:000094c4       ??_C@_01JOAMLHOP@?9@       00000001801e04c4     libvcruntime:undname.obj
 0002:000094c8       ??_C@_01MIFGBAGJ@?$CL@     00000001801e04c8     libvcruntime:undname.obj
 0002:000094cc       ??_C@_01HNPIGOCE@?$CG@     00000001801e04cc     libvcruntime:undname.obj
 0002:000094d0       ??_C@_03MNHNFDLC@?9?$DO?$CK@ 00000001801e04d0     libvcruntime:undname.obj
 0002:000094d4       ??_C@_01KMDKNFGN@?1@       00000001801e04d4     libvcruntime:undname.obj
 0002:000094d8       ??_C@_01FGNFDNOH@?$CF@     00000001801e04d8     libvcruntime:undname.obj
 0002:000094dc       ??_C@_01MNNFJEPP@?$DM@     00000001801e04dc     libvcruntime:undname.obj
 0002:000094e0       ??_C@_02EHCHHCKH@?$DM?$DN@ 00000001801e04e0     libvcruntime:undname.obj
 0002:000094e4       ??_C@_01PPODPGHN@?$DO@     00000001801e04e4     libvcruntime:undname.obj
 0002:000094e8       ??_C@_02EEKDKGMJ@?$DO?$DN@ 00000001801e04e8     libvcruntime:undname.obj
 0002:000094ec       ??_C@_01IHBHIGKO@?0@       00000001801e04ec     libvcruntime:undname.obj
 0002:000094f0       ??_C@_02HCKGKOFO@?$CI?$CJ@ 00000001801e04f0     libvcruntime:undname.obj
 0002:000094f4       ??_C@_01PJKLJHI@?$HO@      00000001801e04f4     libvcruntime:undname.obj
 0002:000094f8       ??_C@_01JKBOJNNK@?$FO@     00000001801e04f8     libvcruntime:undname.obj
 0002:000094fc       ??_C@_01DNKMNLPK@?$HM@     00000001801e04fc     libvcruntime:undname.obj
 0002:00009500       ??_C@_02PPKAJPJL@?$CG?$CG@ 00000001801e0500     libvcruntime:undname.obj
 0002:00009504       ??_C@_02NONPIBCD@?$HM?$HM@ 00000001801e0504     libvcruntime:undname.obj
 0002:00009508       ??_C@_02FPIMKNGF@?$CK?$DN@ 00000001801e0508     libvcruntime:undname.obj
 0002:0000950c       ??_C@_02FOEOMHFC@?$CL?$DN@ 00000001801e050c     libvcruntime:undname.obj
 0002:00009510       ??_C@_02FKMDLLOA@?9?$DN@   00000001801e0510     libvcruntime:undname.obj
 0002:00009514       ??_C@_02FJEHGPIO@?1?$DN@   00000001801e0514     libvcruntime:undname.obj
 0002:00009518       ??_C@_02FENAOKFI@?$CF?$DN@ 00000001801e0518     libvcruntime:undname.obj
 0002:0000951c       ??_C@_03IKFCCPFF@?$DO?$DO?$DN@ 00000001801e051c     libvcruntime:undname.obj
 0002:00009520       ??_C@_03CDNPDDLA@?$DM?$DM?$DN@ 00000001801e0520     libvcruntime:undname.obj
 0002:00009524       ??_C@_02FGJGFEAB@?$CG?$DN@ 00000001801e0524     libvcruntime:undname.obj
 0002:00009528       ??_C@_02DHLNPPGH@?$HM?$DN@ 00000001801e0528     libvcruntime:undname.obj
 0002:0000952c       ??_C@_02MHEGNOJ@?$FO?$DN@  00000001801e052c     libvcruntime:undname.obj
 0002:00009530       ??_C@_09IFPLHPGF@?$GAvftable?8@ 00000001801e0530     libvcruntime:undname.obj
 0002:00009540       ??_C@_09BLBHBJP@?$GAvbtable?8@ 00000001801e0540     libvcruntime:undname.obj
 0002:00009550       ??_C@_07FEEIOKP@?$GAvcall?8@ 00000001801e0550     libvcruntime:undname.obj
 0002:00009558       ??_C@_08LLFFHHDJ@?$GAtypeof?8@ 00000001801e0558     libvcruntime:undname.obj
 0002:00009568       ??_C@_0BF@KDPPACIK@?$GAlocal?5static?5guard?8@ 00000001801e0568     libvcruntime:undname.obj
 0002:00009580       ??_C@_08OBABFOLI@?$GAstring?8@ 00000001801e0580     libvcruntime:undname.obj
 0002:00009590       ??_C@_0BD@JDLKDPAB@?$GAvbase?5destructor?8@ 00000001801e0590     libvcruntime:undname.obj
 0002:000095a8       ??_C@_0BN@DEGPLNFK@?$GAvector?5deleting?5destructor?8@ 00000001801e05a8     libvcruntime:undname.obj
 0002:000095c8       ??_C@_0BO@OBMKPJIG@?$GAdefault?5constructor?5closure?8@ 00000001801e05c8     libvcruntime:undname.obj
 0002:000095e8       ??_C@_0BN@IMDCHIKM@?$GAscalar?5deleting?5destructor?8@ 00000001801e05e8     libvcruntime:undname.obj
 0002:00009608       ??_C@_0BO@PFGOCPJJ@?$GAvector?5constructor?5iterator?8@ 00000001801e0608     libvcruntime:undname.obj
 0002:00009628       ??_C@_0BN@LFPFMEDL@?$GAvector?5destructor?5iterator?8@ 00000001801e0628     libvcruntime:undname.obj
 0002:00009648       ??_C@_0CE@IKBNEHA@?$GAvector?5vbase?5constructor?5itera@ 00000001801e0648     libvcruntime:undname.obj
 0002:00009670       ??_C@_0BL@NILFHHPC@?$GAvirtual?5displacement?5map?8@ 00000001801e0670     libvcruntime:undname.obj
 0002:00009690       ??_C@_0CB@JONCMFFK@?$GAeh?5vector?5constructor?5iterator@ 00000001801e0690     libvcruntime:undname.obj
 0002:000096b8       ??_C@_0CA@GCEOPDGL@?$GAeh?5vector?5destructor?5iterator?8@ 00000001801e06b8     libvcruntime:undname.obj
 0002:000096d8       ??_C@_0CH@OOJPLCPH@?$GAeh?5vector?5vbase?5constructor?5it@ 00000001801e06d8     libvcruntime:undname.obj
 0002:00009700       ??_C@_0BL@LLKPOHJI@?$GAcopy?5constructor?5closure?8@ 00000001801e0700     libvcruntime:undname.obj
 0002:00009720       ??_C@_0BA@KBCDOMBN@?$GAudt?5returning?8@ 00000001801e0720     libvcruntime:undname.obj
 0002:00009730       ??_C@_03KLGMFNMG@?$GAEH@   00000001801e0730     libvcruntime:undname.obj
 0002:00009734       ??_C@_05KHLCHHI@?$GARTTI@  00000001801e0734     libvcruntime:undname.obj
 0002:00009740       ??_C@_0BA@KKLDJDLB@?$GAlocal?5vftable?8@ 00000001801e0740     libvcruntime:undname.obj
 0002:00009750       ??_C@_0CE@IIHCMGGL@?$GAlocal?5vftable?5constructor?5clos@ 00000001801e0750     libvcruntime:undname.obj
 0002:00009774       ??_C@_06FHBGPFGH@?5new?$FL?$FN@ 00000001801e0774     libvcruntime:undname.obj
 0002:00009780       ??_C@_09LBNFPBCA@?5delete?$FL?$FN@ 00000001801e0780     libvcruntime:undname.obj
 0002:00009790       ??_C@_0P@HJKNJFNN@?$GAomni?5callsig?8@ 00000001801e0790     libvcruntime:undname.obj
 0002:000097a0       ??_C@_0BL@CNOONJFP@?$GAplacement?5delete?5closure?8@ 00000001801e07a0     libvcruntime:undname.obj
 0002:000097c0       ??_C@_0BN@CKNJLHMB@?$GAplacement?5delete?$FL?$FN?5closure?8@ 00000001801e07c0     libvcruntime:undname.obj
 0002:000097e0       ??_C@_0CG@CFDHKGGD@?$GAmanaged?5vector?5constructor?5ite@ 00000001801e07e0     libvcruntime:undname.obj
 0002:00009808       ??_C@_0CF@IMGKMJNO@?$GAmanaged?5vector?5destructor?5iter@ 00000001801e0808     libvcruntime:undname.obj
 0002:00009830       ??_C@_0CG@HLDDJMAG@?$GAeh?5vector?5copy?5constructor?5ite@ 00000001801e0830     libvcruntime:undname.obj
 0002:00009858       ??_C@_0CM@FCBBDIGB@?$GAeh?5vector?5vbase?5copy?5construct@ 00000001801e0858     libvcruntime:undname.obj
 0002:00009888       ??_C@_0BL@CLIPGLGB@?$GAdynamic?5initializer?5for?5?8@ 00000001801e0888     libvcruntime:undname.obj
 0002:000098a8       ??_C@_0CB@PDBIFEP@?$GAdynamic?5atexit?5destructor?5for?5@ 00000001801e08a8     libvcruntime:undname.obj
 0002:000098d0       ??_C@_0CD@CGAJBKEJ@?$GAvector?5copy?5constructor?5iterat@ 00000001801e08d0     libvcruntime:undname.obj
 0002:000098f8       ??_C@_0CJ@GJELGAMM@?$GAvector?5vbase?5copy?5constructor?5@ 00000001801e08f8     libvcruntime:undname.obj
 0002:00009928       ??_C@_0CL@FGIJHLCE@?$GAmanaged?5vector?5copy?5constructo@ 00000001801e0928     libvcruntime:undname.obj
 0002:00009958       ??_C@_0BM@PMGGMLDN@?$GAlocal?5static?5thread?5guard?8@ 00000001801e0958     libvcruntime:undname.obj
 0002:00009978       ??_C@_0N@BDNMDMOL@operator?5?$CC?$CC?5@ 00000001801e0978     libvcruntime:undname.obj
 0002:00009988       ??_C@_0BC@GGEBGALA@operator?5co_await@ 00000001801e0988     libvcruntime:undname.obj
 0002:000099a0       ??_C@_0M@GAAIMMOH@operator?$DM?$DN?$DO@ 00000001801e09a0     libvcruntime:undname.obj
 0002:000099b0       ??_C@_0BC@DAFEJGAK@?5Type?5Descriptor?8@ 00000001801e09b0     libvcruntime:undname.obj
 0002:000099c8       ??_C@_0BM@LDKODKLH@?5Base?5Class?5Descriptor?5at?5?$CI@ 00000001801e09c8     libvcruntime:undname.obj
 0002:000099e8       ??_C@_0BD@LGICGFMM@?5Base?5Class?5Array?8@ 00000001801e09e8     libvcruntime:undname.obj
 0002:00009a00       ??_C@_0BN@MECKDCOJ@?5Class?5Hierarchy?5Descriptor?8@ 00000001801e0a00     libvcruntime:undname.obj
 0002:00009a20       ??_C@_0BK@CFCOFLF@?5Complete?5Object?5Locator?8@ 00000001801e0a20     libvcruntime:undname.obj
 0002:00009a40       ??_C@_0BG@JNJLAMPM@?$GAanonymous?5namespace?8@ 00000001801e0a40     libvcruntime:undname.obj
 0002:00009a58       ??_C@_04HEJADOOB@CV?3?5@   00000001801e0a58     libvcruntime:undname.obj
 0002:00009a60       ??_C@_02MOLJINC@?3?3@      00000001801e0a60     libvcruntime:undname.obj
 0002:00009a68       ??_C@_0BE@JAEOCHPE@template?9parameter?9@ 00000001801e0a68     libvcruntime:undname.obj
 0002:00009a80       ??_C@_0BF@LNLGBBNL@?$GAtemplate?9parameter?9@ 00000001801e0a80     libvcruntime:undname.obj
 0002:00009a98       ??_C@_0O@KHGCOMHP@generic?9type?9@ 00000001801e0a98     libvcruntime:undname.obj
 0002:00009aa8       ??_C@_0P@ODDENDLM@?$GAgeneric?9type?9@ 00000001801e0aa8     libvcruntime:undname.obj
 0002:00009ab8       ??_C@_02OHHJMEON@?8?8@     00000001801e0ab8     libvcruntime:undname.obj
 0002:00009ac0       ??_C@_0BN@IBLMMFAP@?$GAnon?9type?9template?9parameter@ 00000001801e0ac0     libvcruntime:undname.obj
 0002:00009ae0       ??_C@_03DLDNIBIK@?$CFlf@   00000001801e0ae0     libvcruntime:undname.obj
 0002:00009ae4       ??_C@_04OFALKAJ@?$DP?$DP_C@ 00000001801e0ae4     libvcruntime:undname.obj
 0002:00009aec       ??_C@_03KHICJKCI@?4?4?4@   00000001801e0aec     libvcruntime:undname.obj
 0002:00009af0       ??_C@_04HIBGFPH@NULL@      00000001801e0af0     libvcruntime:undname.obj
 0002:00009af8       ??_C@_02DPKJAMEF@?$CFd@    00000001801e0af8     libvcruntime:undname.obj
 0002:00009b00       ??_C@_0BK@IHCCFNEL@?$GAtemplate?9type?9parameter?9@ 00000001801e0b00     libvcruntime:undname.obj
 0002:00009b20       ??_C@_0BK@OFCNNNKO@?$GAgeneric?9class?9parameter?9@ 00000001801e0b20     libvcruntime:undname.obj
 0002:00009b40       ??_C@_0BL@NGJBLFIL@?$GAgeneric?9method?9parameter?9@ 00000001801e0b40     libvcruntime:undname.obj
 0002:00009b60       ??_C@_07OHNGEDJK@nullptr@  00000001801e0b60     libvcruntime:undname.obj
 0002:00009b68       ??_C@_06COJIGPIB@lambda@   00000001801e0b68     libvcruntime:undname.obj
 0002:00009b70       ??_C@_0BE@EODMJLIF@?$GAtemplate?9parameter@ 00000001801e0b70     libvcruntime:undname.obj
 0002:00009b84       ??_C@_03OPGICMGF@?$HN?8?5@ 00000001801e0b84     libvcruntime:undname.obj
 0002:00009b88       ??_C@_02IGFCGPIL@?$HN?8@   00000001801e0b88     libvcruntime:undname.obj
 0002:00009b90       ??_C@_0N@CBHHHENL@?$GAvtordispex?$HL@ 00000001801e0b90     libvcruntime:undname.obj
 0002:00009ba0       ??_C@_0L@GHPFDFH@?$GAvtordisp?$HL@ 00000001801e0ba0     libvcruntime:undname.obj
 0002:00009bb0       ??_C@_0L@HNGCOGAE@?$GAadjustor?$HL@ 00000001801e0bb0     libvcruntime:undname.obj
 0002:00009bc0       ??_C@_0CB@KJDOOODE@?$GAlocal?5static?5destructor?5helper@ 00000001801e0bc0     libvcruntime:undname.obj
 0002:00009be8       ??_C@_0DB@ILEFOCIJ@?$GAtemplate?5static?5data?5member?5co@ 00000001801e0be8     libvcruntime:undname.obj
 0002:00009c20       ??_C@_0DA@HGFJFBBE@?$GAtemplate?5static?5data?5member?5de@ 00000001801e0c20     libvcruntime:undname.obj
 0002:00009c50       ??_C@_07PGOEDBHP@static?5@ 00000001801e0c50     libvcruntime:undname.obj
 0002:00009c58       ??_C@_08NIEOINHE@virtual?5@ 00000001801e0c58     libvcruntime:undname.obj
 0002:00009c68       ??_C@_09LAPHOOG@private?3?5@ 00000001801e0c68     libvcruntime:undname.obj
 0002:00009c78       ??_C@_0M@GAIFPFIP@protected?3?5@ 00000001801e0c78     libvcruntime:undname.obj
 0002:00009c88       ??_C@_08GPDDCMKI@public?3?5@ 00000001801e0c88     libvcruntime:undname.obj
 0002:00009c98       ??_C@_08KJLFOPNE@?$FLthunk?$FN?3@ 00000001801e0c98     libvcruntime:undname.obj
 0002:00009ca8       ??_C@_0M@DHNBOJMP@extern?5?$CCC?$CC?5@ 00000001801e0ca8     libvcruntime:undname.obj
 0002:00009cb4       ??_C@_02KCKGHPCA@?$CJ?5@   00000001801e0cb4     libvcruntime:undname.obj
 0002:00009cb8       ??_C@_05CIHEBHNO@char?5@   00000001801e0cb8     libvcruntime:undname.obj
 0002:00009cc0       ??_C@_06EHJMALKF@short?5@  00000001801e0cc0     libvcruntime:undname.obj
 0002:00009cc8       ??_C@_04LAHKHJMA@int?5@    00000001801e0cc8     libvcruntime:undname.obj
 0002:00009cd0       ??_C@_05CJIMAING@long?5@   00000001801e0cd0     libvcruntime:undname.obj
 0002:00009cd8       ??_C@_09EBBEKKIH@unsigned?5@ 00000001801e0cd8     libvcruntime:undname.obj
 0002:00009ce4       ??_C@_05BEFAKPML@void?5@   00000001801e0ce4     libvcruntime:undname.obj
 0002:00009cf0       ??_C@_09GAIEOBLP@volatile?5@ 00000001801e0cf0     libvcruntime:undname.obj
 0002:00009d00       ??_C@_08PABEKFH@volatile@  00000001801e0d00     libvcruntime:undname.obj
 0002:00009d10       ??_C@_0BA@LKIJLKPP@std?3?3nullptr_t?5@ 00000001801e0d10     libvcruntime:undname.obj
 0002:00009d20       ??_C@_0P@GCOCNKDM@std?3?3nullptr_t@ 00000001801e0d20     libvcruntime:undname.obj
 0002:00009d30       ??_C@_0L@EGPHHEKN@?$DMellipsis?$DO@ 00000001801e0d30     libvcruntime:undname.obj
 0002:00009d3c       ??_C@_04EENFHACM@?0?4?4?4@ 00000001801e0d3c     libvcruntime:undname.obj
 0002:00009d48       ??_C@_0M@ELJOJFFH@?0?$DMellipsis?$DO@ 00000001801e0d48     libvcruntime:undname.obj
 0002:00009d58       ??_C@_09DNHFEOJI@?5noexcept@ 00000001801e0d58     libvcruntime:undname.obj
 0002:00009d64       ??_C@_03PBJBJNON@cpu@      00000001801e0d64     libvcruntime:undname.obj
 0002:00009d68       ??_C@_03DCBBJBAA@amp@      00000001801e0d68     libvcruntime:undname.obj
 0002:00009d6c       ??_C@_02KEGNLNML@?0?5@     00000001801e0d6c     libvcruntime:undname.obj
 0002:00009d70       ??_C@_04ENMBGAPA@char@     00000001801e0d70     libvcruntime:undname.obj
 0002:00009d78       ??_C@_05BFKKPKCG@short@    00000001801e0d78     libvcruntime:undname.obj
 0002:00009d80       ??_C@_03JBIPMCLC@int@      00000001801e0d80     libvcruntime:undname.obj
 0002:00009d84       ??_C@_04GOKPGOLB@long@     00000001801e0d84     libvcruntime:undname.obj
 0002:00009d8c       ??_C@_06BNJCAIGJ@double@   00000001801e0d8c     libvcruntime:undname.obj
 0002:00009d94       ??_C@_06EBGKOKIG@__int8@   00000001801e0d94     libvcruntime:undname.obj
 0002:00009da0       ??_C@_07ICFHOGAF@__int16@  00000001801e0da0     libvcruntime:undname.obj
 0002:00009da8       ??_C@_07OFLPPHGP@__int32@  00000001801e0da8     libvcruntime:undname.obj
 0002:00009db0       ??_C@_07LFCOJCAC@__int64@  00000001801e0db0     libvcruntime:undname.obj
 0002:00009db8       ??_C@_08GAHOLHEO@__int128@ 00000001801e0db8     libvcruntime:undname.obj
 0002:00009dc8       ??_C@_09EEKGDCPH@?$DMunknown?$DO@ 00000001801e0dc8     libvcruntime:undname.obj
 0002:00009dd8       ??_C@_07CFHGOPCN@char8_t@  00000001801e0dd8     libvcruntime:undname.obj
 0002:00009de0       ??_C@_08HBIPOFJB@char16_t@ 00000001801e0de0     libvcruntime:undname.obj
 0002:00009df0       ??_C@_08IECNCBKG@char32_t@ 00000001801e0df0     libvcruntime:undname.obj
 0002:00009e00       ??_C@_07CLGGIAMF@wchar_t@  00000001801e0e00     libvcruntime:undname.obj
 0002:00009e08       ??_C@_04HAPDLBFF@auto@     00000001801e0e08     libvcruntime:undname.obj
 0002:00009e10       ??_C@_0P@LHCGKIGK@decltype?$CIauto?$CJ@ 00000001801e0e10     libvcruntime:undname.obj
 0002:00009e20       ??_C@_05PCNBGHCF@this?5@   00000001801e0e20     libvcruntime:undname.obj
 0002:00009e28       ??_C@_06GCICPBLB@__w64?5@  00000001801e0e28     libvcruntime:undname.obj
 0002:00009e30       ??_C@_07NFANNNEC@UNKNOWN@  00000001801e0e30     libvcruntime:undname.obj
 0002:00009e38       ??_C@_07EDHNAJHC@signed?5@ 00000001801e0e38     libvcruntime:undname.obj
 0002:00009e40       ??_C@_05BNCCCJPP@const@    00000001801e0e40     libvcruntime:undname.obj
 0002:00009e48       ??_C@_09EFNPDFFP@?5volatile@ 00000001801e0e48     libvcruntime:undname.obj
 0002:00009e58       ??_C@_0P@GCIFDJCJ@?$GAunknown?5ecsu?8@ 00000001801e0e58     libvcruntime:undname.obj
 0002:00009e68       ??_C@_06MOJHIBMG@union?5@  00000001801e0e68     libvcruntime:undname.obj
 0002:00009e70       ??_C@_07DIBCDNGL@struct?5@ 00000001801e0e70     libvcruntime:undname.obj
 0002:00009e78       ??_C@_06LJBABKPM@class?5@  00000001801e0e78     libvcruntime:undname.obj
 0002:00009e80       ??_C@_08KOFANOFK@coclass?5@ 00000001801e0e80     libvcruntime:undname.obj
 0002:00009e90       ??_C@_0N@DLIEFKNA@cointerface?5@ 00000001801e0e90     libvcruntime:undname.obj
 0002:00009ea0       ??_C@_05LJGMCFOG@enum?5@   00000001801e0ea0     libvcruntime:undname.obj
 0002:00009ea8       ??_C@_06LIJLOJAG@const?5@  00000001801e0ea8     libvcruntime:undname.obj
 0002:00009eb0       ??_C@_02KJPKDIBN@?$CG?5@   00000001801e0eb0     libvcruntime:undname.obj
 0002:00009eb4       ??_C@_03PCKGMOPB@?$CG?$CG?5@ 00000001801e0eb4     libvcruntime:undname.obj
 0002:00009eb8       ??_C@_0M@EALIELKG@cli?3?3array?$DM@ 00000001801e0eb8     libvcruntime:undname.obj
 0002:00009ec8       ??_C@_0O@GKABPPIF@cli?3?3pin_ptr?$DM@ 00000001801e0ec8     libvcruntime:undname.obj
 0002:00009ed8       ??_C@_02GOGNNPBN@?$CJ?$FL@ 00000001801e0ed8     libvcruntime:undname.obj
 0002:00009edc       ??_C@_06EEGAIFAK@?$HLflat?$HN@ 00000001801e0edc     libvcruntime:undname.obj
 0002:00009ee4       ??_C@_05JIBOFOHK@?$HLfor?5@ 00000001801e0ee4     libvcruntime:undname.obj
 0002:00009eec       ??_C@_02MDINNEEG@s?5@      00000001801e0eec     libvcruntime:undname.obj
 0002:00009ef8       ??_7charNode@@6B@          00000001801e0ef8     libvcruntime:undname.obj
 0002:00009f20       ??_7pcharNode@@6B@         00000001801e0f20     libvcruntime:undname.obj
 0002:00009f48       ??_7pDNameNode@@6B@        00000001801e0f48     libvcruntime:undname.obj
 0002:00009f70       ??_7DNameStatusNode@@6B@   00000001801e0f70     libvcruntime:undname.obj
 0002:00009f98       ??_7pairNode@@6B@          00000001801e0f98     libvcruntime:undname.obj
 0002:0000a0c0       ??_C@_04OKOHEJBO@?5?$DP?$DP?5@ 00000001801e10c0     libvcruntime:undname.obj
 0002:0000a0d0       ?nodes@?1??make@DNameStatusNode@@SAPEBV2@W4DNameStatus@@@Z@4QBV2@B 00000001801e10d0     libvcruntime:undname.obj
 0002:0000a110       ?s_negLengthTab@FH4@@3QBCB 00000001801e1110     libvcruntime:risctrnsctrl.obj
 0002:0000a120       ?s_shiftTab@FH4@@3QBEB     00000001801e1120     libvcruntime:risctrnsctrl.obj
 0002:0000a1e0       ??_C@_1DM@KHCHBNEB@?$AAa?$AAp?$AAi?$AA?9?$AAm?$AAs?$AA?9?$AAw?$AAi?$AAn?$AA?9?$AAc?$AAo?$AAr?$AAe@ 00000001801e11e0     libvcruntime:winapi_downlevel.obj
 0002:0000a220       ??_C@_1DK@LPPGFMPP@?$AAa?$AAp?$AAi?$AA?9?$AAm?$AAs?$AA?9?$AAw?$AAi?$AAn?$AA?9?$AAc?$AAo?$AAr?$AAe@ 00000001801e1220     libvcruntime:winapi_downlevel.obj
 0002:0000a260       ??_C@_1BC@GDMECMAK@?$AAk?$AAe?$AAr?$AAn?$AAe?$AAl?$AA3?$AA2@ 00000001801e1260     libvcruntime:winapi_downlevel.obj
 0002:0000a278       ??_C@_1BA@PFFKHIOG@?$AAa?$AAp?$AAi?$AA?9?$AAm?$AAs?$AA?9@ 00000001801e1278     libvcruntime:winapi_downlevel.obj
 0002:0000a290       ??_C@_08KNHFBNJ@FlsAlloc@  00000001801e1290     libvcruntime:winapi_downlevel.obj
 0002:0000a2a8       ??_C@_07PEJMOBNF@FlsFree@  00000001801e12a8     libvcruntime:winapi_downlevel.obj
 0002:0000a2b8       ??_C@_0M@GDNOONDI@FlsGetValue@ 00000001801e12b8     libvcruntime:winapi_downlevel.obj
 0002:0000a2d0       ??_C@_0M@JCPCPOEF@FlsSetValue@ 00000001801e12d0     libvcruntime:winapi_downlevel.obj
 0002:0000a2e8       ??_C@_0BM@HCFOFFN@InitializeCriticalSectionEx@ 00000001801e12e8     libvcruntime:winapi_downlevel.obj
 0002:0000a310       ??_7exception@std@@6B@     00000001801e1310     libvcruntime:frame.obj
 0002:0000a320       ??_C@_0BC@EOODALEL@Unknown?5exception@ 00000001801e1320     libvcruntime:frame.obj
 0002:0000a340       ??_7bad_exception@std@@6B@ 00000001801e1340     libvcruntime:frame.obj
 0002:0000a350       ??_C@_0O@DPKOEFFH@bad?5exception@ 00000001801e1350     libvcruntime:frame.obj
 0002:0000a6a0       ?standard_lookup_table_spectre@__crt_stdio_output@@3V?$spectre_mitigated_lookup_table@Ustate_transition_pair@__crt_stdio_output@@$0IA@@1@B 00000001801e16a0     libucrt:output.obj
 0002:0000aaa0       ?format_validation_lookup_table_spectre@__crt_stdio_output@@3V?$spectre_mitigated_lookup_table@Ustate_transition_pair@__crt_stdio_output@@$0IA@@1@B 00000001801e1aa0     libucrt:output.obj
 0002:0000aea0       ??_C@_1O@CEDCILHN@?$AA?$CI?$AAn?$AAu?$AAl?$AAl?$AA?$CJ@ 00000001801e1ea0     libucrt:output.obj
 0002:0000aeb0       ??_C@_06OJHGLDPL@?$CInull?$CJ@ 00000001801e1eb0     libucrt:output.obj
 0002:0000bf48       __real@3f1a36e2eb1c432d    00000001801e2f48     libucrt:atan2f.obj
 0002:0000bf50       __real@3fb0000000000000    00000001801e2f50     libucrt:atan2f.obj
 0002:0000bf58       __real@3fc2492482bd6be1    00000001801e2f58     libucrt:atan2f.obj
 0002:0000bf60       __real@3fc99999999643a3    00000001801e2f60     libucrt:atan2f.obj
 0002:0000bf68       __real@3fd5555555550877    00000001801e2f68     libucrt:atan2f.obj
 0002:0000bf70       __real@3fd5555555555538    00000001801e2f70     libucrt:atan2f.obj
 0002:0000bf78       __real@3ff921fb54442d18    00000001801e2f78     libucrt:atan2f.obj
 0002:0000bf80       __real@400921fb54442d18    00000001801e2f80     libucrt:atan2f.obj
 0002:0000bf88       __real@40490fdb            00000001801e2f88     libucrt:atan2f.obj
 0002:0000bf90       __real@4070000000000000    00000001801e2f90     libucrt:atan2f.obj
 0002:0000bf98       __real@bf490fdb            00000001801e2f98     libucrt:atan2f.obj
 0002:0000bf9c       __real@bfc90fdb            00000001801e2f9c     libucrt:atan2f.obj
 0002:0000bfa0       __real@c016cbe4            00000001801e2fa0     libucrt:atan2f.obj
 0002:0000bfa4       __real@c0490fdb            00000001801e2fa4     libucrt:atan2f.obj
 0002:0000bfa8       ??_C@_05FFFCHCED@acosf@    00000001801e2fa8     libucrt:acosf.obj
 0002:0000bfb0       __real@3b81ce6b            00000001801e2fb0     libucrt:acosf.obj
 0002:0000bfb8       __real@3c91a62633145c07    00000001801e2fb8     libucrt:acosf.obj
 0002:0000bfc0       __real@3d678bdd            00000001801e2fc0     libucrt:acosf.obj
 0002:0000bfc4       __real@3e3c94dc            00000001801e2fc4     libucrt:acosf.obj
 0002:0000bfc8       __real@3f561f0d            00000001801e2fc8     libucrt:acosf.obj
 0002:0000bfcc       __real@3f8d6fa5            00000001801e2fcc     libucrt:acosf.obj
 0002:0000bfd0       __real@bc5b3fe1            00000001801e2fd0     libucrt:acosf.obj
 0002:0000bfe0       __acrt_exception_action_table 00000001801e2fe0     libucrt:exception_filter.obj
 0002:0000c0a0       __acrt_signal_action_table_count 00000001801e30a0     libucrt:exception_filter.obj
 0002:0000c0a8       __acrt_signal_action_first_fpe_index 00000001801e30a8     libucrt:exception_filter.obj
 0002:0000c0b0       __acrt_signal_action_fpe_count 00000001801e30b0     libucrt:exception_filter.obj
 0002:0000c0b8       ??_C@_1BI@BGOHAHKC@?$AAm?$AAs?$AAc?$AAo?$AAr?$AAe?$AAe?$AA?4?$AAd?$AAl?$AAl@ 00000001801e30b8     libucrt:exit.obj
 0002:0000c0d0       ??_C@_0P@MIGLKIOC@CorExitProcess@ 00000001801e30d0     libucrt:exit.obj
 0002:0000c350       ??_C@_04LAGPAAHP@sinf@     00000001801e3350     libucrt:sincos_special.obj
 0002:0000c358       ??_C@_04OBBKPIAC@cosf@     00000001801e3358     libucrt:sincos_special.obj
 0002:0000c360       ??_C@_04MHPLPEIA@tanf@     00000001801e3360     libucrt:sincos_special.obj
 0002:0000c370       __Lcosfarray               00000001801e3370     libucrt:lsincosf_array.obj
 0002:0000c3a0       __Lsinfarray               00000001801e33a0     libucrt:lsincosf_array.obj
 0002:0000c3c0       __L_2_by_pi_bits           00000001801e33c0     libucrt:l2_by_pi_bits.obj
 0002:0000c720       ??_C@_1EA@JGEFHKEI@?$AAa?$AAp?$AAi?$AA?9?$AAm?$AAs?$AA?9?$AAw?$AAi?$AAn?$AA?9?$AAc?$AAo?$AAr?$AAe@ 00000001801e3720     libucrt:winapi_thunks.obj
 0002:0000c760       ??_C@_1DI@IJCEHOCB@?$AAa?$AAp?$AAi?$AA?9?$AAm?$AAs?$AA?9?$AAw?$AAi?$AAn?$AA?9?$AAc?$AAo?$AAr?$AAe@ 00000001801e3760     libucrt:winapi_thunks.obj
 0002:0000c7a0       ??_C@_1EI@MPIAOHOC@?$AAa?$AAp?$AAi?$AA?9?$AAm?$AAs?$AA?9?$AAw?$AAi?$AAn?$AA?9?$AAc?$AAo?$AAr?$AAe@ 00000001801e37a0     libucrt:winapi_thunks.obj
 0002:0000c7f0       ??_C@_1FK@FPHCKFIE@?$AAa?$AAp?$AAi?$AA?9?$AAm?$AAs?$AA?9?$AAw?$AAi?$AAn?$AA?9?$AAc?$AAo?$AAr?$AAe@ 00000001801e37f0     libucrt:winapi_thunks.obj
 0002:0000c850       ??_C@_1EM@DILCGIIO@?$AAa?$AAp?$AAi?$AA?9?$AAm?$AAs?$AA?9?$AAw?$AAi?$AAn?$AA?9?$AAc?$AAo?$AAr?$AAe@ 00000001801e3850     libucrt:winapi_thunks.obj
 0002:0000c8a0       ??_C@_1DM@LNCGDDPN@?$AAa?$AAp?$AAi?$AA?9?$AAm?$AAs?$AA?9?$AAw?$AAi?$AAn?$AA?9?$AAc?$AAo?$AAr?$AAe@ 00000001801e38a0     libucrt:winapi_thunks.obj
 0002:0000c8e0       ??_C@_1DO@FPAPJEMD@?$AAa?$AAp?$AAi?$AA?9?$AAm?$AAs?$AA?9?$AAw?$AAi?$AAn?$AA?9?$AAc?$AAo?$AAr?$AAe@ 00000001801e38e0     libucrt:winapi_thunks.obj
 0002:0000c920       ??_C@_1DK@NDHNAHIO@?$AAa?$AAp?$AAi?$AA?9?$AAm?$AAs?$AA?9?$AAw?$AAi?$AAn?$AA?9?$AAc?$AAo?$AAr?$AAe@ 00000001801e3920     libucrt:winapi_thunks.obj
 0002:0000c960       ??_C@_1DM@KGHDGBCM@?$AAa?$AAp?$AAi?$AA?9?$AAm?$AAs?$AA?9?$AAw?$AAi?$AAn?$AA?9?$AAc?$AAo?$AAr?$AAe@ 00000001801e3960     libucrt:winapi_thunks.obj
 0002:0000c9a0       ??_C@_1EO@IJIOEFOH@?$AAa?$AAp?$AAi?$AA?9?$AAm?$AAs?$AA?9?$AAw?$AAi?$AAn?$AA?9?$AAr?$AAt?$AAc?$AAo@ 00000001801e39a0     libucrt:winapi_thunks.obj
 0002:0000c9f0       ??_C@_1FG@HHGEKANL@?$AAa?$AAp?$AAi?$AA?9?$AAm?$AAs?$AA?9?$AAw?$AAi?$AAn?$AA?9?$AAs?$AAe?$AAc?$AAu@ 00000001801e39f0     libucrt:winapi_thunks.obj
 0002:0000ca50       ??_C@_1EG@DBIOJECG@?$AAe?$AAx?$AAt?$AA?9?$AAm?$AAs?$AA?9?$AAw?$AAi?$AAn?$AA?9?$AAn?$AAt?$AAu?$AAs@ 00000001801e3a50     libucrt:winapi_thunks.obj
 0002:0000caa0       ??_C@_1EO@FIHMJCLF@?$AAe?$AAx?$AAt?$AA?9?$AAm?$AAs?$AA?9?$AAw?$AAi?$AAn?$AA?9?$AAn?$AAt?$AAu?$AAs@ 00000001801e3aa0     libucrt:winapi_thunks.obj
 0002:0000caf0       ??_C@_1BC@DNHGCMLG@?$AAa?$AAd?$AAv?$AAa?$AAp?$AAi?$AA3?$AA2@ 00000001801e3af0     libucrt:winapi_thunks.obj
 0002:0000cb08       ??_C@_1M@OAIMIKLP@?$AAn?$AAt?$AAd?$AAl?$AAl@ 00000001801e3b08     libucrt:winapi_thunks.obj
 0002:0000cb20       ??_C@_1EG@DPGNFKGC@?$AAa?$AAp?$AAi?$AA?9?$AAm?$AAs?$AA?9?$AAw?$AAi?$AAn?$AA?9?$AAa?$AAp?$AAp?$AAm@ 00000001801e3b20     libucrt:winapi_thunks.obj
 0002:0000cb68       ??_C@_1O@BCCLBEOE@?$AAu?$AAs?$AAe?$AAr?$AA3?$AA2@ 00000001801e3b68     libucrt:winapi_thunks.obj
 0002:0000cb78       ??_C@_1BA@IAIFMGEF@?$AAe?$AAx?$AAt?$AA?9?$AAm?$AAs?$AA?9@ 00000001801e3b78     libucrt:winapi_thunks.obj
 0002:0000cb90       ??_C@_0BA@FHFNEAED@AreFileApisANSI@ 00000001801e3b90     libucrt:winapi_thunks.obj
 0002:0000cbd0       ??_C@_0O@KKBNKAPF@LCMapStringEx@ 00000001801e3bd0     libucrt:winapi_thunks.obj
 0002:0000cbe8       ??_C@_0BB@HBDEELFH@LocaleNameToLCID@ 00000001801e3be8     libucrt:winapi_thunks.obj
 0002:0000cc00       ??_C@_0CF@OJOFEIGO@AppPolicyGetProcessTerminationM@ 00000001801e3c00     libucrt:winapi_thunks.obj
 0002:0000ccb0       ??_C@_03OEIAHPBN@INF@      00000001801e3cb0     libucrt:cvt.obj
 0002:0000ccb4       ??_C@_03OJHLLCGB@inf@      00000001801e3cb4     libucrt:cvt.obj
 0002:0000ccb8       ??_C@_03LKNCIKJB@NAN@      00000001801e3cb8     libucrt:cvt.obj
 0002:0000ccbc       ??_C@_03LHCJEHON@nan@      00000001801e3cbc     libucrt:cvt.obj
 0002:0000ccc0       ??_C@_09OFJJIMPC@NAN?$CISNAN?$CJ@ 00000001801e3cc0     libucrt:cvt.obj
 0002:0000ccd0       ??_C@_09IPFBKMDL@nan?$CIsnan?$CJ@ 00000001801e3cd0     libucrt:cvt.obj
 0002:0000cce0       ??_C@_08IKHNHAJ@NAN?$CIIND?$CJ@ 00000001801e3ce0     libucrt:cvt.obj
 0002:0000ccf0       ??_C@_08OFCDMILK@nan?$CIind?$CJ@ 00000001801e3cf0     libucrt:cvt.obj
 0002:0000ccfc       ??_C@_05KLBDPFGC@e?$CL000@ 00000001801e3cfc     libucrt:cvt.obj
 0002:0000cd10       __lc_time_c                00000001801e3d10     libucrt:nlsdata.obj
 0002:0000cfd0       ??_C@_03KOEHGMDN@Sun@      00000001801e3fd0     libucrt:nlsdata.obj
 0002:0000cfd4       ??_C@_03PDAGKDH@Mon@       00000001801e3fd4     libucrt:nlsdata.obj
 0002:0000cfd8       ??_C@_03NAGEINEP@Tue@      00000001801e3fd8     libucrt:nlsdata.obj
 0002:0000cfdc       ??_C@_03MHOMLAJA@Wed@      00000001801e3fdc     libucrt:nlsdata.obj
 0002:0000cfe0       ??_C@_03IOFIKPDN@Thu@      00000001801e3fe0     libucrt:nlsdata.obj
 0002:0000cfe4       ??_C@_03IDIOELNC@Fri@      00000001801e3fe4     libucrt:nlsdata.obj
 0002:0000cfe8       ??_C@_03FEFJNEK@Sat@       00000001801e3fe8     libucrt:nlsdata.obj
 0002:0000cfec       ??_C@_06OOPIFAJ@Sunday@    00000001801e3fec     libucrt:nlsdata.obj
 0002:0000cff4       ??_C@_06JLEDEDGH@Monday@   00000001801e3ff4     libucrt:nlsdata.obj
 0002:0000d000       ??_C@_07BAAGCFCM@Tuesday@  00000001801e4000     libucrt:nlsdata.obj
 0002:0000d008       ??_C@_09DLIGFAKA@Wednesday@ 00000001801e4008     libucrt:nlsdata.obj
 0002:0000d018       ??_C@_08HACCIKIA@Thursday@ 00000001801e4018     libucrt:nlsdata.obj
 0002:0000d024       ??_C@_06JECMNKMI@Friday@   00000001801e4024     libucrt:nlsdata.obj
 0002:0000d030       ??_C@_08INBOOONO@Saturday@ 00000001801e4030     libucrt:nlsdata.obj
 0002:0000d03c       ??_C@_03JIHJHPIE@Jan@      00000001801e403c     libucrt:nlsdata.obj
 0002:0000d040       ??_C@_03HJBDCHOM@Feb@      00000001801e4040     libucrt:nlsdata.obj
 0002:0000d044       ??_C@_03ODNJBKGA@Mar@      00000001801e4044     libucrt:nlsdata.obj
 0002:0000d048       ??_C@_03LEOLGMJP@Apr@      00000001801e4048     libucrt:nlsdata.obj
 0002:0000d04c       ??_C@_03CNMDKL@May@        00000001801e404c     libucrt:nlsdata.obj
 0002:0000d050       ??_C@_03IDFGHECI@Jun@      00000001801e4050     libucrt:nlsdata.obj
 0002:0000d054       ??_C@_03LBGABGKK@Jul@      00000001801e4054     libucrt:nlsdata.obj
 0002:0000d058       ??_C@_03IFJFEIGA@Aug@      00000001801e4058     libucrt:nlsdata.obj
 0002:0000d05c       ??_C@_03GGCAPAJC@Sep@      00000001801e405c     libucrt:nlsdata.obj
